GAS LISTING /tmp/cchCOabs.s 			page 1


   1              		.file	"_new.cpp"
   2              		.option pic
   3              		.option norelax
   4              		.text
   5              	.Ltext0:
   6              		.align	2
   7              		.globl	_Znwm
   9              	_Znwm:
  10              	.LFB43:
  11              		.file 1 "src/_new.cpp"
   1:src/_new.cpp  **** //
   2:src/_new.cpp  **** // Created by marko on 20.4.22..
   3:src/_new.cpp  **** //
   4:src/_new.cpp  **** 
   5:src/_new.cpp  **** #include "../h/syscall_c.hpp"
   6:src/_new.cpp  **** #include "../h/print.hpp"
   7:src/_new.cpp  **** using size_t = decltype(sizeof(0));
   8:src/_new.cpp  **** 
   9:src/_new.cpp  **** void *operator new(size_t n)
  10:src/_new.cpp  **** {
  12              		.loc 1 10 1
  13              		.cfi_startproc
  14              	.LVL0:
  15 0000 130101FF 		addi	sp,sp,-16
  16              		.cfi_def_cfa_offset 16
  17 0004 23341100 		sd	ra,8(sp)
  18 0008 23308100 		sd	s0,0(sp)
  19              		.cfi_offset 1, -8
  20              		.cfi_offset 8, -16
  21 000c 13040101 		addi	s0,sp,16
  22              		.cfi_def_cfa 8, 0
  11:src/_new.cpp  ****     return mem_alloc(n);
  23              		.loc 1 11 5
  24              		.loc 1 11 21 is_stmt 0
  25 0010 97000000 		call	_Z9mem_allocm@plt
  25      E7800000 
  26              	.LVL1:
  12:src/_new.cpp  **** }
  27              		.loc 1 12 1
  28 0018 83308100 		ld	ra,8(sp)
  29              		.cfi_restore 1
  30 001c 03340100 		ld	s0,0(sp)
  31              		.cfi_restore 8
  32              		.cfi_def_cfa 2, 16
  33 0020 13010101 		addi	sp,sp,16
  34              		.cfi_def_cfa_offset 0
  35 0024 67800000 		jr	ra
  36              		.cfi_endproc
  37              	.LFE43:
  39              		.align	2
  40              		.globl	_Znam
  42              	_Znam:
  43              	.LFB44:
  13:src/_new.cpp  **** 
  14:src/_new.cpp  **** void *operator new[](size_t n)
  15:src/_new.cpp  **** {
  44              		.loc 1 15 1 is_stmt 1
GAS LISTING /tmp/cchCOabs.s 			page 2


  45              		.cfi_startproc
  46              	.LVL2:
  47 0028 130101FF 		addi	sp,sp,-16
  48              		.cfi_def_cfa_offset 16
  49 002c 23341100 		sd	ra,8(sp)
  50 0030 23308100 		sd	s0,0(sp)
  51              		.cfi_offset 1, -8
  52              		.cfi_offset 8, -16
  53 0034 13040101 		addi	s0,sp,16
  54              		.cfi_def_cfa 8, 0
  16:src/_new.cpp  ****     return mem_alloc(n);
  55              		.loc 1 16 5
  56              		.loc 1 16 21 is_stmt 0
  57 0038 97000000 		call	_Z9mem_allocm@plt
  57      E7800000 
  58              	.LVL3:
  17:src/_new.cpp  **** }
  59              		.loc 1 17 1
  60 0040 83308100 		ld	ra,8(sp)
  61              		.cfi_restore 1
  62 0044 03340100 		ld	s0,0(sp)
  63              		.cfi_restore 8
  64              		.cfi_def_cfa 2, 16
  65 0048 13010101 		addi	sp,sp,16
  66              		.cfi_def_cfa_offset 0
  67 004c 67800000 		jr	ra
  68              		.cfi_endproc
  69              	.LFE44:
  71              		.align	2
  72              		.globl	_ZdlPv
  74              	_ZdlPv:
  75              	.LFB45:
  18:src/_new.cpp  **** 
  19:src/_new.cpp  **** void operator delete(void *p) noexcept
  20:src/_new.cpp  **** {
  76              		.loc 1 20 1 is_stmt 1
  77              		.cfi_startproc
  78              		.cfi_personality 0x9b,DW.ref.__gxx_personality_v0
  79              		.cfi_lsda 0x1b,.LLSDA45
  80              	.LVL4:
  81 0050 130101FF 		addi	sp,sp,-16
  82              		.cfi_def_cfa_offset 16
  83 0054 23341100 		sd	ra,8(sp)
  84 0058 23308100 		sd	s0,0(sp)
  85              		.cfi_offset 1, -8
  86              		.cfi_offset 8, -16
  87 005c 13040101 		addi	s0,sp,16
  88              		.cfi_def_cfa 8, 0
  21:src/_new.cpp  ****     mem_free(p);
  89              		.loc 1 21 5
  90              		.loc 1 21 13 is_stmt 0
  91 0060 97000000 		call	_Z8mem_freePv@plt
  91      E7800000 
  92              	.LVL5:
  22:src/_new.cpp  **** }
  93              		.loc 1 22 1
  94 0068 83308100 		ld	ra,8(sp)
GAS LISTING /tmp/cchCOabs.s 			page 3


  95              		.cfi_restore 1
  96 006c 03340100 		ld	s0,0(sp)
  97              		.cfi_restore 8
  98              		.cfi_def_cfa 2, 16
  99 0070 13010101 		addi	sp,sp,16
 100              		.cfi_def_cfa_offset 0
 101 0074 67800000 		jr	ra
 102              		.cfi_endproc
 103              	.LFE45:
 104              		.globl	__gxx_personality_v0
 105              		.section	.gcc_except_table,"a",@progbits
 106              	.LLSDA45:
 107 0000 FF       		.byte	0xff
 108 0001 FF       		.byte	0xff
 109 0002 03       		.byte	0x3
 110 0003 00       		.byte	0
 111              		.text
 113              		.align	2
 114              		.globl	_ZdaPv
 116              	_ZdaPv:
 117              	.LFB46:
  23:src/_new.cpp  **** 
  24:src/_new.cpp  **** void operator delete[](void *p) noexcept
  25:src/_new.cpp  **** {
 118              		.loc 1 25 1 is_stmt 1
 119              		.cfi_startproc
 120              		.cfi_personality 0x9b,DW.ref.__gxx_personality_v0
 121              		.cfi_lsda 0x1b,.LLSDA46
 122              	.LVL6:
 123 0078 130101FF 		addi	sp,sp,-16
 124              		.cfi_def_cfa_offset 16
 125 007c 23341100 		sd	ra,8(sp)
 126 0080 23308100 		sd	s0,0(sp)
 127              		.cfi_offset 1, -8
 128              		.cfi_offset 8, -16
 129 0084 13040101 		addi	s0,sp,16
 130              		.cfi_def_cfa 8, 0
  26:src/_new.cpp  ****     mem_free(p);
 131              		.loc 1 26 5
 132              		.loc 1 26 13 is_stmt 0
 133 0088 97000000 		call	_Z8mem_freePv@plt
 133      E7800000 
 134              	.LVL7:
  27:src/_new.cpp  **** }...
 135              		.loc 1 27 1
 136 0090 83308100 		ld	ra,8(sp)
 137              		.cfi_restore 1
 138 0094 03340100 		ld	s0,0(sp)
 139              		.cfi_restore 8
 140              		.cfi_def_cfa 2, 16
 141 0098 13010101 		addi	sp,sp,16
 142              		.cfi_def_cfa_offset 0
 143 009c 67800000 		jr	ra
 144              		.cfi_endproc
 145              	.LFE46:
 146              		.section	.gcc_except_table
 147              	.LLSDA46:
GAS LISTING /tmp/cchCOabs.s 			page 4


 148 0004 FF       		.byte	0xff
 149 0005 FF       		.byte	0xff
 150 0006 03       		.byte	0x3
 151 0007 00       		.byte	0
 152              		.text
 154              	.Letext0:
 155              		.file 2 "src/../h/../lib/hw.h"
 156              		.file 3 "src/../h/syscall_c.hpp"
 842              		.align	3
 845              	DW.ref.__gxx_personality_v0:
 846 0000 00000000 		.dword	__gxx_personality_v0
 846      00000000 
 847              		.ident	"GCC: (Ubuntu 9.3.0-17ubuntu1~20.04) 9.3.0"
 848              		.section	.note.GNU-stack,"",@progbits
GAS LISTING /tmp/cchCOabs.s 			page 5


DEFINED SYMBOLS
                            *ABS*:0000000000000000 _new.cpp
     /tmp/cchCOabs.s:9      .text:0000000000000000 _Znwm
     /tmp/cchCOabs.s:13     .text:0000000000000000 .L0 
     /tmp/cchCOabs.s:15     .text:0000000000000000 .L0 
     /tmp/cchCOabs.s:16     .text:0000000000000004 .L0 
     /tmp/cchCOabs.s:19     .text:000000000000000c .L0 
     /tmp/cchCOabs.s:20     .text:000000000000000c .L0 
     /tmp/cchCOabs.s:22     .text:0000000000000010 .L0 
     /tmp/cchCOabs.s:24     .text:0000000000000010 .L0 
     /tmp/cchCOabs.s:25     .text:0000000000000010 .L0 
     /tmp/cchCOabs.s:28     .text:0000000000000018 .L0 
     /tmp/cchCOabs.s:29     .text:000000000000001c .L0 
     /tmp/cchCOabs.s:31     .text:0000000000000020 .L0 
     /tmp/cchCOabs.s:32     .text:0000000000000020 .L0 
     /tmp/cchCOabs.s:34     .text:0000000000000024 .L0 
     /tmp/cchCOabs.s:36     .text:0000000000000028 .L0 
     /tmp/cchCOabs.s:42     .text:0000000000000028 _Znam
     /tmp/cchCOabs.s:45     .text:0000000000000028 .L0 
     /tmp/cchCOabs.s:47     .text:0000000000000028 .L0 
     /tmp/cchCOabs.s:48     .text:000000000000002c .L0 
     /tmp/cchCOabs.s:51     .text:0000000000000034 .L0 
     /tmp/cchCOabs.s:52     .text:0000000000000034 .L0 
     /tmp/cchCOabs.s:54     .text:0000000000000038 .L0 
     /tmp/cchCOabs.s:56     .text:0000000000000038 .L0 
     /tmp/cchCOabs.s:57     .text:0000000000000038 .L0 
     /tmp/cchCOabs.s:60     .text:0000000000000040 .L0 
     /tmp/cchCOabs.s:61     .text:0000000000000044 .L0 
     /tmp/cchCOabs.s:63     .text:0000000000000048 .L0 
     /tmp/cchCOabs.s:64     .text:0000000000000048 .L0 
     /tmp/cchCOabs.s:66     .text:000000000000004c .L0 
     /tmp/cchCOabs.s:68     .text:0000000000000050 .L0 
     /tmp/cchCOabs.s:74     .text:0000000000000050 _ZdlPv
     /tmp/cchCOabs.s:77     .text:0000000000000050 .L0 
     /tmp/cchCOabs.s:845    .data.rel.local.DW.ref.__gxx_personality_v0:0000000000000000 DW.ref.__gxx_personality_v0
     /tmp/cchCOabs.s:81     .text:0000000000000050 .L0 
     /tmp/cchCOabs.s:82     .text:0000000000000054 .L0 
     /tmp/cchCOabs.s:85     .text:000000000000005c .L0 
     /tmp/cchCOabs.s:86     .text:000000000000005c .L0 
     /tmp/cchCOabs.s:88     .text:0000000000000060 .L0 
     /tmp/cchCOabs.s:90     .text:0000000000000060 .L0 
     /tmp/cchCOabs.s:91     .text:0000000000000060 .L0 
     /tmp/cchCOabs.s:94     .text:0000000000000068 .L0 
     /tmp/cchCOabs.s:95     .text:000000000000006c .L0 
     /tmp/cchCOabs.s:97     .text:0000000000000070 .L0 
     /tmp/cchCOabs.s:98     .text:0000000000000070 .L0 
     /tmp/cchCOabs.s:100    .text:0000000000000074 .L0 
     /tmp/cchCOabs.s:102    .text:0000000000000078 .L0 
     /tmp/cchCOabs.s:116    .text:0000000000000078 _ZdaPv
     /tmp/cchCOabs.s:119    .text:0000000000000078 .L0 
     /tmp/cchCOabs.s:123    .text:0000000000000078 .L0 
     /tmp/cchCOabs.s:124    .text:000000000000007c .L0 
     /tmp/cchCOabs.s:127    .text:0000000000000084 .L0 
     /tmp/cchCOabs.s:128    .text:0000000000000084 .L0 
     /tmp/cchCOabs.s:130    .text:0000000000000088 .L0 
     /tmp/cchCOabs.s:132    .text:0000000000000088 .L0 
     /tmp/cchCOabs.s:133    .text:0000000000000088 .L0 
GAS LISTING /tmp/cchCOabs.s 			page 6


     /tmp/cchCOabs.s:136    .text:0000000000000090 .L0 
     /tmp/cchCOabs.s:137    .text:0000000000000094 .L0 
     /tmp/cchCOabs.s:139    .text:0000000000000098 .L0 
     /tmp/cchCOabs.s:140    .text:0000000000000098 .L0 
     /tmp/cchCOabs.s:142    .text:000000000000009c .L0 
     /tmp/cchCOabs.s:144    .text:00000000000000a0 .L0 
     /tmp/cchCOabs.s:157    .text:00000000000000a0 .L0 
     /tmp/cchCOabs.s:434    .debug_abbrev:0000000000000000 .Ldebug_abbrev0
     /tmp/cchCOabs.s:809    .debug_str:00000000000000f9 .LASF30
     /tmp/cchCOabs.s:789    .debug_str:000000000000006a .LASF31
     /tmp/cchCOabs.s:787    .debug_str:000000000000004c .LASF32
     /tmp/cchCOabs.s:5      .text:0000000000000000 .Ltext0
     /tmp/cchCOabs.s:154    .text:00000000000000a0 .Letext0
     /tmp/cchCOabs.s:771    .debug_line:0000000000000000 .Ldebug_line0
     /tmp/cchCOabs.s:807    .debug_str:00000000000000ec .LASF0
     /tmp/cchCOabs.s:801    .debug_str:00000000000000bf .LASF1
     /tmp/cchCOabs.s:795    .debug_str:0000000000000099 .LASF2
     /tmp/cchCOabs.s:783    .debug_str:0000000000000040 .LASF4
     /tmp/cchCOabs.s:799    .debug_str:00000000000000ad .LASF3
     /tmp/cchCOabs.s:777    .debug_str:000000000000001c .LASF5
     /tmp/cchCOabs.s:823    .debug_str:000000000000021f .LASF6
     /tmp/cchCOabs.s:791    .debug_str:0000000000000077 .LASF7
     /tmp/cchCOabs.s:813    .debug_str:00000000000001cd .LASF8
     /tmp/cchCOabs.s:775    .debug_str:000000000000000e .LASF9
     /tmp/cchCOabs.s:837    .debug_str:0000000000000276 .LASF10
     /tmp/cchCOabs.s:793    .debug_str:000000000000008a .LASF11
     /tmp/cchCOabs.s:825    .debug_str:0000000000000232 .LASF12
     /tmp/cchCOabs.s:817    .debug_str:00000000000001f3 .LASF13
     /tmp/cchCOabs.s:803    .debug_str:00000000000000d2 .LASF14
     /tmp/cchCOabs.s:781    .debug_str:000000000000002a .LASF15
     /tmp/cchCOabs.s:815    .debug_str:00000000000001dd .LASF16
     /tmp/cchCOabs.s:785    .debug_str:0000000000000047 .LASF17
     /tmp/cchCOabs.s:821    .debug_str:000000000000020c .LASF18
     /tmp/cchCOabs.s:779    .debug_str:0000000000000023 .LASF20
     /tmp/cchCOabs.s:117    .text:0000000000000078 .LFB46
     /tmp/cchCOabs.s:145    .text:00000000000000a0 .LFE46
     /tmp/cchCOabs.s:702    .debug_loc:0000000000000000 .LLST3
     /tmp/cchCOabs.s:134    .text:0000000000000090 .LVL7
     /tmp/cchCOabs.s:811    .debug_str:00000000000001bd .LASF19
     /tmp/cchCOabs.s:827    .debug_str:0000000000000242 .LASF21
     /tmp/cchCOabs.s:75     .text:0000000000000050 .LFB45
     /tmp/cchCOabs.s:103    .text:0000000000000078 .LFE45
     /tmp/cchCOabs.s:716    .debug_loc:0000000000000039 .LLST2
     /tmp/cchCOabs.s:92     .text:0000000000000068 .LVL5
     /tmp/cchCOabs.s:833    .debug_str:0000000000000260 .LASF22
     /tmp/cchCOabs.s:797    .debug_str:00000000000000a7 .LASF24
     /tmp/cchCOabs.s:43     .text:0000000000000028 .LFB44
     /tmp/cchCOabs.s:69     .text:0000000000000050 .LFE44
     /tmp/cchCOabs.s:730    .debug_loc:0000000000000072 .LLST1
     /tmp/cchCOabs.s:58     .text:0000000000000040 .LVL3
     /tmp/cchCOabs.s:829    .debug_str:0000000000000249 .LASF23
     /tmp/cchCOabs.s:835    .debug_str:0000000000000270 .LASF25
     /tmp/cchCOabs.s:10     .text:0000000000000000 .LFB43
     /tmp/cchCOabs.s:37     .text:0000000000000028 .LFE43
     /tmp/cchCOabs.s:744    .debug_loc:00000000000000ab .LLST0
     /tmp/cchCOabs.s:26     .text:0000000000000018 .LVL1
     /tmp/cchCOabs.s:773    .debug_str:0000000000000000 .LASF26
GAS LISTING /tmp/cchCOabs.s 			page 7


     /tmp/cchCOabs.s:819    .debug_str:0000000000000203 .LASF28
     /tmp/cchCOabs.s:805    .debug_str:00000000000000de .LASF27
     /tmp/cchCOabs.s:831    .debug_str:0000000000000256 .LASF29
     /tmp/cchCOabs.s:122    .text:0000000000000078 .LVL6
     /tmp/cchCOabs.s:80     .text:0000000000000050 .LVL4
     /tmp/cchCOabs.s:46     .text:0000000000000028 .LVL2
     /tmp/cchCOabs.s:14     .text:0000000000000000 .LVL0
     /tmp/cchCOabs.s:158    .debug_info:0000000000000000 .Ldebug_info0
     /tmp/cchCOabs.s:106    .gcc_except_table:0000000000000000 .LLSDA45
     /tmp/cchCOabs.s:147    .gcc_except_table:0000000000000004 .LLSDA46

UNDEFINED SYMBOLS
_Z9mem_allocm
_Z8mem_freePv
__gxx_personality_v0
