GAS LISTING /tmp/ccZVRKjJ.s 			page 1


   1              		.file	"main.cpp"
   2              		.option pic
   3              		.option norelax
   4              		.text
   5              	.Ltext0:
   6              		.section	.rodata.str1.8,"aMS",@progbits,1
   7              		.align	3
   8              	.LC0:
   9 0000 54687265 		.string	"ThreadA created\n"
   9      61644120 
   9      63726561 
   9      7465640A 
   9      00
  10 0011 00000000 		.align	3
  10      000000
  11              	.LC1:
  12 0018 54687265 		.string	"ThreadB created\n"
  12      61644220 
  12      63726561 
  12      7465640A 
  12      00
  13 0029 00000000 		.align	3
  13      000000
  14              	.LC2:
  15 0030 54687265 		.string	"ThreadC created\n"
  15      61644320 
  15      63726561 
  15      7465640A 
  15      00
  16 0041 00000000 		.align	3
  16      000000
  17              	.LC3:
  18 0048 54687265 		.string	"ThreadD created\n"
  18      61644420 
  18      63726561 
  18      7465640A 
  18      00
  19 0059 00000000 		.align	3
  19      000000
  20              	.LC4:
  21 0060 46696E69 		.string	"Finished\n"
  21      73686564 
  21      0A00
  22              		.text
  23              		.align	2
  24              		.globl	main
  26              	main:
  27              	.LFB40:
  28              		.file 1 "src/main.cpp"
   1:src/main.cpp  **** //
   2:src/main.cpp  **** // Created by marko on 20.4.22..
   3:src/main.cpp  **** //
   4:src/main.cpp  **** 
   5:src/main.cpp  **** #include "../h/tcb.hpp"
   6:src/main.cpp  **** #include "../h/workers.hpp"
   7:src/main.cpp  **** #include "../h/syscall_c.hpp"
   8:src/main.cpp  **** 
GAS LISTING /tmp/ccZVRKjJ.s 			page 2


   9:src/main.cpp  **** int main()
  10:src/main.cpp  **** {
  29              		.loc 1 10 1
  30              		.cfi_startproc
  31 0000 130101FB 		addi	sp,sp,-80
  32              		.cfi_def_cfa_offset 80
  33 0004 23341104 		sd	ra,72(sp)
  34 0008 23308104 		sd	s0,64(sp)
  35 000c 233C9102 		sd	s1,56(sp)
  36              		.cfi_offset 1, -8
  37              		.cfi_offset 8, -16
  38              		.cfi_offset 9, -24
  39 0010 13040105 		addi	s0,sp,80
  40              		.cfi_def_cfa 8, 0
  11:src/main.cpp  ****     MemoryAllocator::init();
  41              		.loc 1 11 5
  42              		.loc 1 11 26 is_stmt 0
  43 0014 97000000 		call	_ZN15MemoryAllocator4initEv@plt
  43      E7800000 
  44              	.LVL0:
  12:src/main.cpp  ****     TCB *threads[5];
  45              		.loc 1 12 5 is_stmt 1
  13:src/main.cpp  **** 
  14:src/main.cpp  ****     Riscv::w_stvec((uint64) &Riscv::supervisorTrap);
  46              		.loc 1 14 5
  47              		.loc 1 14 19 is_stmt 0
  48 001c 97070000 		la	a5,_ZN5Riscv14supervisorTrapEv
  48      83B70700 
  49              	.LVL1:
  50              	.LBB15:
  51              	.LBB16:
  52              		.file 2 "src/../h/riscv.hpp"
   1:src/../h/riscv.hpp **** //
   2:src/../h/riscv.hpp **** // Created by marko on 20.4.22..
   3:src/../h/riscv.hpp **** //
   4:src/../h/riscv.hpp **** 
   5:src/../h/riscv.hpp **** #ifndef OS1_VEZBE07_RISCV_CONTEXT_SWITCH_2_INTERRUPT_RISCV_HPP
   6:src/../h/riscv.hpp **** #define OS1_VEZBE07_RISCV_CONTEXT_SWITCH_2_INTERRUPT_RISCV_HPP
   7:src/../h/riscv.hpp **** 
   8:src/../h/riscv.hpp **** #include "../lib/hw.h"
   9:src/../h/riscv.hpp **** #include "../lib/console.h"
  10:src/../h/riscv.hpp **** #include "print.hpp"
  11:src/../h/riscv.hpp **** #include "tcb.hpp"
  12:src/../h/riscv.hpp **** #include "MemoryAllocator.hpp"
  13:src/../h/riscv.hpp **** class Riscv
  14:src/../h/riscv.hpp **** {
  15:src/../h/riscv.hpp **** public:
  16:src/../h/riscv.hpp **** 
  17:src/../h/riscv.hpp ****     //pop sstatus spp and sstatus spie
  18:src/../h/riscv.hpp ****     static void popSppSpie();
  19:src/../h/riscv.hpp ****     //push x3..31 registers
  20:src/../h/riscv.hpp ****     static void pushRegisters();
  21:src/../h/riscv.hpp ****     //pop x3..31 regiesters
  22:src/../h/riscv.hpp ****     static void popRegisters();
  23:src/../h/riscv.hpp **** 
  24:src/../h/riscv.hpp ****     // read register scause
  25:src/../h/riscv.hpp ****     static uint64 r_scause();
GAS LISTING /tmp/ccZVRKjJ.s 			page 3


  26:src/../h/riscv.hpp **** 
  27:src/../h/riscv.hpp ****     // write register scause
  28:src/../h/riscv.hpp ****     static void w_scause(uint64 scause);
  29:src/../h/riscv.hpp **** 
  30:src/../h/riscv.hpp ****     // read register sepc
  31:src/../h/riscv.hpp ****     static uint64 r_sepc();
  32:src/../h/riscv.hpp **** 
  33:src/../h/riscv.hpp ****     // write register sepc
  34:src/../h/riscv.hpp ****     static void w_sepc(uint64 sepc);
  35:src/../h/riscv.hpp **** 
  36:src/../h/riscv.hpp ****     // read register stvec
  37:src/../h/riscv.hpp ****     static uint64 r_stvec();
  38:src/../h/riscv.hpp **** 
  39:src/../h/riscv.hpp ****     // write register stvec
  40:src/../h/riscv.hpp ****     static void w_stvec(uint64 stvec);
  41:src/../h/riscv.hpp **** 
  42:src/../h/riscv.hpp ****     // read register stval
  43:src/../h/riscv.hpp ****     static uint64 r_stval();
  44:src/../h/riscv.hpp **** 
  45:src/../h/riscv.hpp ****     // write register stval
  46:src/../h/riscv.hpp ****     static void w_stval(uint64 stval);
  47:src/../h/riscv.hpp **** 
  48:src/../h/riscv.hpp ****     enum BitMaskSip
  49:src/../h/riscv.hpp ****     {
  50:src/../h/riscv.hpp ****         SIP_SSIP = (1 << 1),
  51:src/../h/riscv.hpp ****         SIP_STIP = (1 << 5),
  52:src/../h/riscv.hpp ****         SIP_SEIP = (1 << 9),
  53:src/../h/riscv.hpp ****     };
  54:src/../h/riscv.hpp **** 
  55:src/../h/riscv.hpp ****     // mask set register sip
  56:src/../h/riscv.hpp ****     static void ms_sip(uint64 mask);
  57:src/../h/riscv.hpp **** 
  58:src/../h/riscv.hpp ****     // mask clear register sip
  59:src/../h/riscv.hpp ****     static void mc_sip(uint64 mask);
  60:src/../h/riscv.hpp **** 
  61:src/../h/riscv.hpp ****     // read register sip
  62:src/../h/riscv.hpp ****     static uint64 r_sip();
  63:src/../h/riscv.hpp **** 
  64:src/../h/riscv.hpp ****     // write register sip
  65:src/../h/riscv.hpp ****     static void w_sip(uint64 sip);
  66:src/../h/riscv.hpp **** 
  67:src/../h/riscv.hpp ****     enum BitMaskSstatus
  68:src/../h/riscv.hpp ****     {
  69:src/../h/riscv.hpp ****         SSTATUS_SIE = (1 << 1),
  70:src/../h/riscv.hpp ****         SSTATUS_SPIE = (1 << 5),
  71:src/../h/riscv.hpp ****         SSTATUS_SPP = (1 << 8),
  72:src/../h/riscv.hpp ****     };
  73:src/../h/riscv.hpp **** 
  74:src/../h/riscv.hpp ****     // mask set register sstatus
  75:src/../h/riscv.hpp ****     static void ms_sstatus(uint64 mask);
  76:src/../h/riscv.hpp **** 
  77:src/../h/riscv.hpp ****     // mask clear register sstatus
  78:src/../h/riscv.hpp ****     static void mc_sstatus(uint64 mask);
  79:src/../h/riscv.hpp **** 
  80:src/../h/riscv.hpp ****     // read register sstatus
  81:src/../h/riscv.hpp ****     static uint64 r_sstatus();
  82:src/../h/riscv.hpp **** 
GAS LISTING /tmp/ccZVRKjJ.s 			page 4


  83:src/../h/riscv.hpp ****     // write register sstatus
  84:src/../h/riscv.hpp ****     static void w_sstatus(uint64 sstatus);
  85:src/../h/riscv.hpp **** 
  86:src/../h/riscv.hpp ****     //read a0 register
  87:src/../h/riscv.hpp ****     static uint64 r_a0();
  88:src/../h/riscv.hpp **** 
  89:src/../h/riscv.hpp ****     //write to a0 register
  90:src/../h/riscv.hpp ****     static void w_a0(uint64 writeValue);
  91:src/../h/riscv.hpp **** 
  92:src/../h/riscv.hpp ****     static void supervisorTrap();
  93:src/../h/riscv.hpp **** 
  94:src/../h/riscv.hpp **** private:
  95:src/../h/riscv.hpp ****     static void handleSupervisorTrap();
  96:src/../h/riscv.hpp **** };
  97:src/../h/riscv.hpp **** 
  98:src/../h/riscv.hpp **** 
  99:src/../h/riscv.hpp **** inline uint64 Riscv::r_scause()
 100:src/../h/riscv.hpp **** {
 101:src/../h/riscv.hpp ****     uint64 volatile scause;
 102:src/../h/riscv.hpp ****     __asm__ volatile ("csrr %[scause], scause" : [scause] "=r"(scause));
 103:src/../h/riscv.hpp ****     return scause;
 104:src/../h/riscv.hpp **** }
 105:src/../h/riscv.hpp **** 
 106:src/../h/riscv.hpp **** inline void Riscv::w_scause(uint64 scause)
 107:src/../h/riscv.hpp **** {
 108:src/../h/riscv.hpp ****     __asm__ volatile ("csrw scause, %[scause]" : : [scause] "r"(scause));
 109:src/../h/riscv.hpp **** }
 110:src/../h/riscv.hpp **** 
 111:src/../h/riscv.hpp **** inline uint64 Riscv::r_sepc()
 112:src/../h/riscv.hpp **** {
 113:src/../h/riscv.hpp ****     uint64 volatile sepc;
 114:src/../h/riscv.hpp ****     __asm__ volatile ("csrr %[sepc], sepc" : [sepc] "=r"(sepc));
 115:src/../h/riscv.hpp ****     return sepc;
 116:src/../h/riscv.hpp **** }
 117:src/../h/riscv.hpp **** 
 118:src/../h/riscv.hpp **** inline void Riscv::w_sepc(uint64 sepc)
 119:src/../h/riscv.hpp **** {
 120:src/../h/riscv.hpp ****     __asm__ volatile ("csrw sepc, %[sepc]" : : [sepc] "r"(sepc));
 121:src/../h/riscv.hpp **** }
 122:src/../h/riscv.hpp **** 
 123:src/../h/riscv.hpp **** inline uint64 Riscv::r_stvec()
 124:src/../h/riscv.hpp **** {
 125:src/../h/riscv.hpp ****     uint64 volatile stvec;
 126:src/../h/riscv.hpp ****     __asm__ volatile ("csrr %[stvec], stvec" : [stvec] "=r"(stvec));
 127:src/../h/riscv.hpp ****     return stvec;
 128:src/../h/riscv.hpp **** }
 129:src/../h/riscv.hpp **** 
 130:src/../h/riscv.hpp **** inline void Riscv::w_stvec(uint64 stvec)
 131:src/../h/riscv.hpp **** {
 132:src/../h/riscv.hpp ****     __asm__ volatile ("csrw stvec, %[stvec]" : : [stvec] "r"(stvec));
  53              		.loc 2 132 5 is_stmt 1
  54              		.loc 2 132 69 is_stmt 0
  55              	#APP
  56              	# 132 "src/../h/riscv.hpp" 1
 133              	}
  57              		csrw stvec, a5
  58              	# 0 "" 2
GAS LISTING /tmp/ccZVRKjJ.s 			page 5


  59              	.LVL2:
  60              	#NO_APP
  61              	.LBE16:
  62              	.LBE15:
  15:src/main.cpp  **** 
  16:src/main.cpp  ****     int velicinaZaglavlja = 2 *sizeof(size_t); // meni je ovoliko
  63              		.loc 1 16 5 is_stmt 1
  17:src/main.cpp  **** 
  18:src/main.cpp  ****     const size_t maxMemorija = (((size_t)HEAP_END_ADDR - (size_t)HEAP_START_ADDR - velicinaZaglavlj
  64              		.loc 1 18 5
  65              		.loc 1 18 56 is_stmt 0
  66 0028 97070000 		la	a5,HEAP_END_ADDR
  66      83B70700 
  67 0030 03B50700 		ld	a0,0(a5)
  68 0034 97070000 		la	a5,HEAP_START_ADDR
  68      83B70700 
  69 003c 83B70700 		ld	a5,0(a5)
  70 0040 3305F540 		sub	a0,a0,a5
  71              		.loc 1 18 82
  72 0044 130505FF 		addi	a0,a0,-16
  73              	.LVL3:
  19:src/main.cpp  ****     char* niz = (char*)mem_alloc(maxMemorija); // celokupan prostor
  74              		.loc 1 19 5 is_stmt 1
  75              		.loc 1 19 33 is_stmt 0
  76 0048 137505FC 		andi	a0,a0,-64
  77              	.LVL4:
  78 004c 97000000 		call	_Z9mem_allocm@plt
  78      E7800000 
  79              	.LVL5:
  80 0054 93040500 		mv	s1,a0
  81              	.LVL6:
  20:src/main.cpp  ****     if(niz == nullptr) {
  82              		.loc 1 20 5 is_stmt 1
  83 0058 63020510 		beqz	a0,.L12
  84              	.L2:
  21:src/main.cpp  ****         __putc('?');
  22:src/main.cpp  ****     }
  23:src/main.cpp  **** 
  24:src/main.cpp  ****     int n = 10;
  85              		.loc 1 24 5
  86              	.LVL7:
  25:src/main.cpp  ****     char* niz2 = (char*)mem_alloc(n*sizeof(char));
  87              		.loc 1 25 5
  88              		.loc 1 25 34 is_stmt 0
  89 005c 1305A000 		li	a0,10
  90 0060 97000000 		call	_Z9mem_allocm@plt
  90      E7800000 
  91              	.LVL8:
  26:src/main.cpp  ****     if(niz2 == nullptr) {
  92              		.loc 1 26 5 is_stmt 1
  93 0068 63020510 		beqz	a0,.L13
  94              	.LVL9:
  95              	.L3:
  27:src/main.cpp  ****         __putc('k');
  28:src/main.cpp  ****     }
  29:src/main.cpp  **** 
  30:src/main.cpp  ****     int status = MemoryAllocator::mem_free(niz);
GAS LISTING /tmp/ccZVRKjJ.s 			page 6


  96              		.loc 1 30 5
  97              		.loc 1 30 43 is_stmt 0
  98 006c 13850400 		mv	a0,s1
  99 0070 97000000 		call	_ZN15MemoryAllocator8mem_freeEPKv@plt
  99      E7800000 
 100              	.LVL10:
  31:src/main.cpp  ****     if(status != 0) {
 101              		.loc 1 31 5 is_stmt 1
 102 0078 63120510 		bnez	a0,.L14
 103              	.LVL11:
 104              	.L4:
  32:src/main.cpp  ****         __putc('?');
  33:src/main.cpp  ****     }
  34:src/main.cpp  ****     niz2 = (char*)mem_alloc(n*sizeof(char));
 105              		.loc 1 34 5
 106              		.loc 1 34 28 is_stmt 0
 107 007c 1305A000 		li	a0,10
 108 0080 97000000 		call	_Z9mem_allocm@plt
 108      E7800000 
 109              	.LVL12:
  35:src/main.cpp  ****     if(niz2 == nullptr) {
 110              		.loc 1 35 5 is_stmt 1
 111 0088 63020510 		beqz	a0,.L15
 112              	.LVL13:
 113              	.L5:
  36:src/main.cpp  ****         __putc('?');
  37:src/main.cpp  ****     }
  38:src/main.cpp  **** 
  39:src/main.cpp  **** 
  40:src/main.cpp  **** 
  41:src/main.cpp  ****     //threads[0] = TCB::createThread(nullptr, nullptr);
  42:src/main.cpp  ****     thread_create(threads[0],nullptr, nullptr);
 114              		.loc 1 42 5
 115              		.loc 1 42 18 is_stmt 0
 116 008c 13060000 		li	a2,0
 117 0090 93050000 		li	a1,0
 118 0094 033584FB 		ld	a0,-72(s0)
 119 0098 97000000 		call	_Z13thread_createP3TCBPFvPvES1_@plt
 119      E7800000 
 120              	.LVL14:
  43:src/main.cpp  ****     TCB::running = threads[0];
 121              		.loc 1 43 5 is_stmt 1
 122              		.loc 1 43 18 is_stmt 0
 123 00a0 033784FB 		ld	a4,-72(s0)
 124 00a4 97070000 		la	a5,_ZN3TCB7runningE
 124      83B70700 
 125 00ac 23B0E700 		sd	a4,0(a5)
  44:src/main.cpp  **** 
  45:src/main.cpp  ****     threads[1] = TCB::createThread(workerBodyA, nullptr);
 126              		.loc 1 45 5 is_stmt 1
 127              		.loc 1 45 35 is_stmt 0
 128 00b0 93050000 		li	a1,0
 129 00b4 17050000 		la	a0,_Z11workerBodyAPv
 129      03350500 
 130 00bc 97000000 		call	_ZN3TCB12createThreadEPFvPvES0_@plt
 130      E7800000 
 131              	.LVL15:
GAS LISTING /tmp/ccZVRKjJ.s 			page 7


 132              		.loc 1 45 16
 133 00c4 2330A4FC 		sd	a0,-64(s0)
  46:src/main.cpp  ****     //thread_create(threads[1],workerBodyA, nullptr);
  47:src/main.cpp  ****     printString("ThreadA created\n");
 134              		.loc 1 47 5 is_stmt 1
 135              		.loc 1 47 16 is_stmt 0
 136 00c8 17050000 		lla	a0,.LC0
 136      13050500 
 137 00d0 97000000 		call	_Z11printStringPKc@plt
 137      E7800000 
 138              	.LVL16:
  48:src/main.cpp  ****     threads[2] = TCB::createThread(workerBodyB , nullptr);
 139              		.loc 1 48 5 is_stmt 1
 140              		.loc 1 48 35 is_stmt 0
 141 00d8 93050000 		li	a1,0
 142 00dc 17050000 		la	a0,_Z11workerBodyBPv
 142      03350500 
 143 00e4 97000000 		call	_ZN3TCB12createThreadEPFvPvES0_@plt
 143      E7800000 
 144              	.LVL17:
 145              		.loc 1 48 16
 146 00ec 2334A4FC 		sd	a0,-56(s0)
  49:src/main.cpp  ****     //thread_create(threads[2],workerBodyB, nullptr);
  50:src/main.cpp  ****     printString("ThreadB created\n");
 147              		.loc 1 50 5 is_stmt 1
 148              		.loc 1 50 16 is_stmt 0
 149 00f0 17050000 		lla	a0,.LC1
 149      13050500 
 150 00f8 97000000 		call	_Z11printStringPKc@plt
 150      E7800000 
 151              	.LVL18:
  51:src/main.cpp  ****     threads[3] = TCB::createThread(workerBodyC, nullptr);
 152              		.loc 1 51 5 is_stmt 1
 153              		.loc 1 51 35 is_stmt 0
 154 0100 93050000 		li	a1,0
 155 0104 17050000 		la	a0,_Z11workerBodyCPv
 155      03350500 
 156 010c 97000000 		call	_ZN3TCB12createThreadEPFvPvES0_@plt
 156      E7800000 
 157              	.LVL19:
 158              		.loc 1 51 16
 159 0114 2338A4FC 		sd	a0,-48(s0)
  52:src/main.cpp  ****     //thread_create(threads[3],workerBodyC, nullptr);
  53:src/main.cpp  ****     printString("ThreadC created\n");
 160              		.loc 1 53 5 is_stmt 1
 161              		.loc 1 53 16 is_stmt 0
 162 0118 17050000 		lla	a0,.LC2
 162      13050500 
 163 0120 97000000 		call	_Z11printStringPKc@plt
 163      E7800000 
 164              	.LVL20:
  54:src/main.cpp  ****     threads[4] = TCB::createThread(workerBodyD, nullptr);
 165              		.loc 1 54 5 is_stmt 1
 166              		.loc 1 54 35 is_stmt 0
 167 0128 93050000 		li	a1,0
 168 012c 17050000 		la	a0,_Z11workerBodyDPv
 168      03350500 
GAS LISTING /tmp/ccZVRKjJ.s 			page 8


 169 0134 97000000 		call	_ZN3TCB12createThreadEPFvPvES0_@plt
 169      E7800000 
 170              	.LVL21:
 171              		.loc 1 54 16
 172 013c 233CA4FC 		sd	a0,-40(s0)
  55:src/main.cpp  ****     //thread_create(threads[4],workerBodyD, nullptr);
  56:src/main.cpp  ****     printString("ThreadD created\n");
 173              		.loc 1 56 5 is_stmt 1
 174              		.loc 1 56 16 is_stmt 0
 175 0140 17050000 		lla	a0,.LC3
 175      13050500 
 176 0148 97000000 		call	_Z11printStringPKc@plt
 176      E7800000 
 177              	.LVL22:
  57:src/main.cpp  **** 
  58:src/main.cpp  **** 
  59:src/main.cpp  **** 
  60:src/main.cpp  ****    Riscv::ms_sstatus(Riscv::SSTATUS_SIE);
 178              		.loc 1 60 4 is_stmt 1
 179              	.LBB17:
 180              	.LBB18:
 134:src/../h/riscv.hpp **** 
 135:src/../h/riscv.hpp **** inline uint64 Riscv::r_stval()
 136:src/../h/riscv.hpp **** {
 137:src/../h/riscv.hpp ****     uint64 volatile stval;
 138:src/../h/riscv.hpp ****     __asm__ volatile ("csrr %[stval], stval" : [stval] "=r"(stval));
 139:src/../h/riscv.hpp ****     return stval;
 140:src/../h/riscv.hpp **** }
 141:src/../h/riscv.hpp **** 
 142:src/../h/riscv.hpp **** inline void Riscv::w_stval(uint64 stval)
 143:src/../h/riscv.hpp **** {
 144:src/../h/riscv.hpp ****     __asm__ volatile ("csrw stval, %[stval]" : : [stval] "r"(stval));
 145:src/../h/riscv.hpp **** }
 146:src/../h/riscv.hpp **** 
 147:src/../h/riscv.hpp **** inline void Riscv::ms_sip(uint64 mask)
 148:src/../h/riscv.hpp **** {
 149:src/../h/riscv.hpp ****     __asm__ volatile ("csrs sip, %[mask]" : : [mask] "r"(mask));
 150:src/../h/riscv.hpp **** }
 151:src/../h/riscv.hpp **** 
 152:src/../h/riscv.hpp **** inline void Riscv::mc_sip(uint64 mask)
 153:src/../h/riscv.hpp **** {
 154:src/../h/riscv.hpp ****     __asm__ volatile ("csrc sip, %[mask]" : : [mask] "r"(mask));
 155:src/../h/riscv.hpp **** }
 156:src/../h/riscv.hpp **** 
 157:src/../h/riscv.hpp **** inline uint64 Riscv::r_sip()
 158:src/../h/riscv.hpp **** {
 159:src/../h/riscv.hpp ****     uint64 volatile sip;
 160:src/../h/riscv.hpp ****     __asm__ volatile ("csrr %[sip], sip" : [sip] "=r"(sip));
 161:src/../h/riscv.hpp ****     return sip;
 162:src/../h/riscv.hpp **** }
 163:src/../h/riscv.hpp **** 
 164:src/../h/riscv.hpp **** inline void Riscv::w_sip(uint64 sip)
 165:src/../h/riscv.hpp **** {
 166:src/../h/riscv.hpp ****     __asm__ volatile ("csrw sip, %[sip]" : : [sip] "r"(sip));
 167:src/../h/riscv.hpp **** }
 168:src/../h/riscv.hpp **** 
 169:src/../h/riscv.hpp **** inline void Riscv::ms_sstatus(uint64 mask)
GAS LISTING /tmp/ccZVRKjJ.s 			page 9


 170:src/../h/riscv.hpp **** {
 171:src/../h/riscv.hpp ****     __asm__ volatile ("csrs sstatus, %[mask]" : : [mask] "r"(mask));
 181              		.loc 2 171 5
 182              		.loc 2 171 68 is_stmt 0
 183 0150 93072000 		li	a5,2
 184              	#APP
 185              	# 171 "src/../h/riscv.hpp" 1
 172              	}
 186              		csrs sstatus, a5
 187              	# 0 "" 2
 188              		.loc 2 172 1
 189              	#NO_APP
 190 0158 6F00C004 		j	.L8
 191              	.LVL23:
 192              	.L12:
 193              	.LBE18:
 194              	.LBE17:
  21:src/main.cpp  ****     }
 195              		.loc 1 21 9 is_stmt 1
  21:src/main.cpp  ****     }
 196              		.loc 1 21 15 is_stmt 0
 197 015c 1305F003 		li	a0,63
 198 0160 97000000 		call	__putc@plt
 198      E7800000 
 199              	.LVL24:
 200 0168 6FF05FEF 		j	.L2
 201              	.LVL25:
 202              	.L13:
  27:src/main.cpp  ****     }
 203              		.loc 1 27 9 is_stmt 1
  27:src/main.cpp  ****     }
 204              		.loc 1 27 15 is_stmt 0
 205 016c 1305B006 		li	a0,107
 206              	.LVL26:
 207 0170 97000000 		call	__putc@plt
 207      E7800000 
 208              	.LVL27:
 209 0178 6FF05FEF 		j	.L3
 210              	.LVL28:
 211              	.L14:
  32:src/main.cpp  ****     }
 212              		.loc 1 32 9 is_stmt 1
  32:src/main.cpp  ****     }
 213              		.loc 1 32 15 is_stmt 0
 214 017c 1305F003 		li	a0,63
 215              	.LVL29:
 216 0180 97000000 		call	__putc@plt
 216      E7800000 
 217              	.LVL30:
 218 0188 6FF05FEF 		j	.L4
 219              	.LVL31:
 220              	.L15:
  36:src/main.cpp  ****     }
 221              		.loc 1 36 9 is_stmt 1
  36:src/main.cpp  ****     }
 222              		.loc 1 36 15 is_stmt 0
 223 018c 1305F003 		li	a0,63
GAS LISTING /tmp/ccZVRKjJ.s 			page 10


 224              	.LVL32:
 225 0190 97000000 		call	__putc@plt
 225      E7800000 
 226              	.LVL33:
 227 0198 6FF05FEF 		j	.L5
 228              	.L6:
  61:src/main.cpp  ****     while (!(threads[1]->isFinished() &&
  62:src/main.cpp  ****              threads[2]->isFinished() &&
  63:src/main.cpp  ****              threads[3]->isFinished() &&
  64:src/main.cpp  ****              threads[4]->isFinished()))
  65:src/main.cpp  ****     {
  66:src/main.cpp  ****         thread_dispatch();
 229              		.loc 1 66 9 is_stmt 1 discriminator 3
 230              		.loc 1 66 24 is_stmt 0 discriminator 3
 231 019c 97000000 		call	_Z15thread_dispatchv@plt
 231      E7800000 
 232              	.LVL34:
 233              	.L8:
  61:src/main.cpp  ****     while (!(threads[1]->isFinished() &&
 234              		.loc 1 61 5 is_stmt 1
  61:src/main.cpp  ****     while (!(threads[1]->isFinished() &&
 235              		.loc 1 61 12
  61:src/main.cpp  ****     while (!(threads[1]->isFinished() &&
 236              		.loc 1 61 23 is_stmt 0
 237 01a4 833704FC 		ld	a5,-64(s0)
 238              	.LVL35:
 239              	.LBB19:
 240              	.LBB20:
 241              		.file 3 "src/../h/tcb.hpp"
   1:src/../h/tcb.hpp **** //
   2:src/../h/tcb.hpp **** // Created by os on 5/19/24.
   3:src/../h/tcb.hpp **** //
   4:src/../h/tcb.hpp **** 
   5:src/../h/tcb.hpp **** #ifndef PROJEKAT_TCB_HPP
   6:src/../h/tcb.hpp **** #define PROJEKAT_TCB_HPP
   7:src/../h/tcb.hpp **** #include "../lib/hw.h"
   8:src/../h/tcb.hpp **** #include "scheduler.hpp"
   9:src/../h/tcb.hpp **** #include "riscv.hpp"
  10:src/../h/tcb.hpp **** 
  11:src/../h/tcb.hpp **** class TCB {
  12:src/../h/tcb.hpp **** 
  13:src/../h/tcb.hpp ****     void *operator new(size_t n);
  14:src/../h/tcb.hpp **** 
  15:src/../h/tcb.hpp ****     void *operator new[](size_t n);
  16:src/../h/tcb.hpp **** 
  17:src/../h/tcb.hpp ****     void operator delete(void *p) noexcept;
  18:src/../h/tcb.hpp **** 
  19:src/../h/tcb.hpp ****     void operator delete[](void *p) noexcept;
  20:src/../h/tcb.hpp **** 
  21:src/../h/tcb.hpp **** public:
  22:src/../h/tcb.hpp ****     ~TCB(){TCB::operator delete[](stack);}
  23:src/../h/tcb.hpp ****     bool isFinished() const {return finished;}
 242              		.loc 3 23 30 is_stmt 1
 243              		.loc 3 23 37 is_stmt 0
 244 01a8 83C70703 		lbu	a5,48(a5)
 245              	.LVL36:
 246              	.LBE20:
GAS LISTING /tmp/ccZVRKjJ.s 			page 11


 247              	.LBE19:
  61:src/main.cpp  ****     while (!(threads[1]->isFinished() &&
 248              		.loc 1 61 12
 249 01ac E38807FE 		beqz	a5,.L6
  62:src/main.cpp  ****              threads[3]->isFinished() &&
 250              		.loc 1 62 23 discriminator 2
 251 01b0 833784FC 		ld	a5,-56(s0)
 252              	.LVL37:
 253              	.LBB21:
 254              	.LBB22:
 255              		.loc 3 23 30 is_stmt 1 discriminator 2
 256              		.loc 3 23 37 is_stmt 0 discriminator 2
 257 01b4 83C70703 		lbu	a5,48(a5)
 258              	.LVL38:
 259              	.LBE22:
 260              	.LBE21:
  61:src/main.cpp  ****     while (!(threads[1]->isFinished() &&
 261              		.loc 1 61 39 discriminator 2
 262 01b8 E38207FE 		beqz	a5,.L6
  63:src/main.cpp  ****              threads[4]->isFinished()))
 263              		.loc 1 63 23
 264 01bc 833704FD 		ld	a5,-48(s0)
 265              	.LVL39:
 266              	.LBB23:
 267              	.LBB24:
 268              		.loc 3 23 30 is_stmt 1
 269              		.loc 3 23 37 is_stmt 0
 270 01c0 83C70703 		lbu	a5,48(a5)
 271              	.LVL40:
 272              	.LBE24:
 273              	.LBE23:
  62:src/main.cpp  ****              threads[3]->isFinished() &&
 274              		.loc 1 62 39
 275 01c4 E38C07FC 		beqz	a5,.L6
  64:src/main.cpp  ****     {
 276              		.loc 1 64 23 discriminator 4
 277 01c8 833784FD 		ld	a5,-40(s0)
 278              	.LVL41:
 279              	.LBB25:
 280              	.LBB26:
 281              		.loc 3 23 30 is_stmt 1 discriminator 4
 282              		.loc 3 23 37 is_stmt 0 discriminator 4
 283 01cc 83C70703 		lbu	a5,48(a5)
 284              	.LVL42:
 285              	.LBE26:
 286              	.LBE25:
  61:src/main.cpp  ****              threads[2]->isFinished() &&
 287              		.loc 1 61 12 discriminator 4
 288 01d0 E38607FC 		beqz	a5,.L6
 289 01d4 930484FB 		addi	s1,s0,-72
 290              	.LVL43:
 291              	.L7:
 292              	.LBB27:
  67:src/main.cpp  ****     }
  68:src/main.cpp  **** 
  69:src/main.cpp  ****     for (auto &thread: threads)
 293              		.loc 1 69 24 is_stmt 1 discriminator 1
GAS LISTING /tmp/ccZVRKjJ.s 			page 12


 294 01d8 930704FE 		addi	a5,s0,-32
 295 01dc 638CF400 		beq	s1,a5,.L9
 296              	.LVL44:
  70:src/main.cpp  ****     {
  71:src/main.cpp  ****         TCB::deleteThread(thread);
 297              		.loc 1 71 9 discriminator 2
 298              		.loc 1 71 26 is_stmt 0 discriminator 2
 299 01e0 03B50400 		ld	a0,0(s1)
 300 01e4 97000000 		call	_ZN3TCB12deleteThreadEPS_@plt
 300      E7800000 
 301              	.LVL45:
  69:src/main.cpp  ****     {
 302              		.loc 1 69 5 is_stmt 1 discriminator 2
 303 01ec 93848400 		addi	s1,s1,8
 304              	.LVL46:
 305 01f0 6FF09FFE 		j	.L7
 306              	.LVL47:
 307              	.L9:
 308              	.LBE27:
  72:src/main.cpp  ****     }
  73:src/main.cpp  ****     printString("Finished\n");
 309              		.loc 1 73 5
 310              		.loc 1 73 16 is_stmt 0
 311 01f4 17050000 		lla	a0,.LC4
 311      13050500 
 312 01fc 97000000 		call	_Z11printStringPKc@plt
 312      E7800000 
 313              	.LVL48:
  74:src/main.cpp  **** 
  75:src/main.cpp  ****     return 0;
 314              		.loc 1 75 5 is_stmt 1
  76:src/main.cpp  **** }
 315              		.loc 1 76 1 is_stmt 0
 316 0204 13050000 		li	a0,0
 317 0208 83308104 		ld	ra,72(sp)
 318              		.cfi_restore 1
 319 020c 03340104 		ld	s0,64(sp)
 320              		.cfi_restore 8
 321              		.cfi_def_cfa 2, 80
 322 0210 83348103 		ld	s1,56(sp)
 323              		.cfi_restore 9
 324              	.LVL49:
 325 0214 13010105 		addi	sp,sp,80
 326              		.cfi_def_cfa_offset 0
 327 0218 67800000 		jr	ra
 328              		.cfi_endproc
 329              	.LFE40:
 331              	.Letext0:
 332              		.file 4 "src/../h/../lib/hw.h"
 333              		.file 5 "src/../h/MemoryAllocator.hpp"
 334              		.file 6 "src/../h/syscall_c.hpp"
 335              		.file 7 "src/../h/print.hpp"
 336              		.file 8 "src/../h/../lib/console.h"
GAS LISTING /tmp/ccZVRKjJ.s 			page 13


DEFINED SYMBOLS
                            *ABS*:0000000000000000 main.cpp
     /tmp/ccZVRKjJ.s:26     .text:0000000000000000 main
     /tmp/ccZVRKjJ.s:30     .text:0000000000000000 .L0 
     /tmp/ccZVRKjJ.s:31     .text:0000000000000000 .L0 
     /tmp/ccZVRKjJ.s:32     .text:0000000000000004 .L0 
     /tmp/ccZVRKjJ.s:36     .text:0000000000000010 .L0 
     /tmp/ccZVRKjJ.s:37     .text:0000000000000010 .L0 
     /tmp/ccZVRKjJ.s:38     .text:0000000000000010 .L0 
     /tmp/ccZVRKjJ.s:40     .text:0000000000000014 .L0 
     /tmp/ccZVRKjJ.s:42     .text:0000000000000014 .L0 
     /tmp/ccZVRKjJ.s:43     .text:0000000000000014 .L0 
     /tmp/ccZVRKjJ.s:46     .text:000000000000001c .L0 
     /tmp/ccZVRKjJ.s:47     .text:000000000000001c .L0 
     /tmp/ccZVRKjJ.s:48     .text:000000000000001c .L0 
     /tmp/ccZVRKjJ.s:54     .text:0000000000000024 .L0 
  src/../h/riscv.hpp:132    .text:0000000000000024 .L0 
     /tmp/ccZVRKjJ.s:64     .text:0000000000000028 .L0 
     /tmp/ccZVRKjJ.s:65     .text:0000000000000028 .L0 
     /tmp/ccZVRKjJ.s:66     .text:0000000000000028 .L0 
     /tmp/ccZVRKjJ.s:72     .text:0000000000000044 .L0 
     /tmp/ccZVRKjJ.s:75     .text:0000000000000048 .L0 
     /tmp/ccZVRKjJ.s:76     .text:0000000000000048 .L0 
     /tmp/ccZVRKjJ.s:83     .text:0000000000000058 .L0 
     /tmp/ccZVRKjJ.s:87     .text:000000000000005c .L0 
     /tmp/ccZVRKjJ.s:88     .text:000000000000005c .L0 
     /tmp/ccZVRKjJ.s:89     .text:000000000000005c .L0 
     /tmp/ccZVRKjJ.s:93     .text:0000000000000068 .L0 
     /tmp/ccZVRKjJ.s:97     .text:000000000000006c .L0 
     /tmp/ccZVRKjJ.s:98     .text:000000000000006c .L0 
     /tmp/ccZVRKjJ.s:102    .text:0000000000000078 .L0 
     /tmp/ccZVRKjJ.s:106    .text:000000000000007c .L0 
     /tmp/ccZVRKjJ.s:107    .text:000000000000007c .L0 
     /tmp/ccZVRKjJ.s:111    .text:0000000000000088 .L0 
     /tmp/ccZVRKjJ.s:115    .text:000000000000008c .L0 
     /tmp/ccZVRKjJ.s:116    .text:000000000000008c .L0 
     /tmp/ccZVRKjJ.s:122    .text:00000000000000a0 .L0 
     /tmp/ccZVRKjJ.s:123    .text:00000000000000a0 .L0 
     /tmp/ccZVRKjJ.s:127    .text:00000000000000b0 .L0 
     /tmp/ccZVRKjJ.s:128    .text:00000000000000b0 .L0 
     /tmp/ccZVRKjJ.s:133    .text:00000000000000c4 .L0 
     /tmp/ccZVRKjJ.s:135    .text:00000000000000c8 .L0 
     /tmp/ccZVRKjJ.s:136    .text:00000000000000c8 .L0 
     /tmp/ccZVRKjJ.s:140    .text:00000000000000d8 .L0 
     /tmp/ccZVRKjJ.s:141    .text:00000000000000d8 .L0 
     /tmp/ccZVRKjJ.s:146    .text:00000000000000ec .L0 
     /tmp/ccZVRKjJ.s:148    .text:00000000000000f0 .L0 
     /tmp/ccZVRKjJ.s:149    .text:00000000000000f0 .L0 
     /tmp/ccZVRKjJ.s:153    .text:0000000000000100 .L0 
     /tmp/ccZVRKjJ.s:154    .text:0000000000000100 .L0 
     /tmp/ccZVRKjJ.s:159    .text:0000000000000114 .L0 
     /tmp/ccZVRKjJ.s:161    .text:0000000000000118 .L0 
     /tmp/ccZVRKjJ.s:162    .text:0000000000000118 .L0 
     /tmp/ccZVRKjJ.s:166    .text:0000000000000128 .L0 
     /tmp/ccZVRKjJ.s:167    .text:0000000000000128 .L0 
     /tmp/ccZVRKjJ.s:172    .text:000000000000013c .L0 
     /tmp/ccZVRKjJ.s:174    .text:0000000000000140 .L0 
GAS LISTING /tmp/ccZVRKjJ.s 			page 14


     /tmp/ccZVRKjJ.s:175    .text:0000000000000140 .L0 
     /tmp/ccZVRKjJ.s:181    .text:0000000000000150 .L0 
     /tmp/ccZVRKjJ.s:182    .text:0000000000000150 .L0 
     /tmp/ccZVRKjJ.s:183    .text:0000000000000150 .L0 
     /tmp/ccZVRKjJ.s:190    .text:0000000000000158 .L0 
     /tmp/ccZVRKjJ.s:196    .text:000000000000015c .L0 
     /tmp/ccZVRKjJ.s:197    .text:000000000000015c .L0 
     /tmp/ccZVRKjJ.s:204    .text:000000000000016c .L0 
     /tmp/ccZVRKjJ.s:205    .text:000000000000016c .L0 
     /tmp/ccZVRKjJ.s:213    .text:000000000000017c .L0 
     /tmp/ccZVRKjJ.s:214    .text:000000000000017c .L0 
     /tmp/ccZVRKjJ.s:222    .text:000000000000018c .L0 
     /tmp/ccZVRKjJ.s:223    .text:000000000000018c .L0 
     /tmp/ccZVRKjJ.s:230    .text:000000000000019c .L0 
     /tmp/ccZVRKjJ.s:231    .text:000000000000019c .L0 
     /tmp/ccZVRKjJ.s:235    .text:00000000000001a4 .L0 
     /tmp/ccZVRKjJ.s:236    .text:00000000000001a4 .L0 
     /tmp/ccZVRKjJ.s:237    .text:00000000000001a4 .L0 
     /tmp/ccZVRKjJ.s:243    .text:00000000000001a8 .L0 
     /tmp/ccZVRKjJ.s:244    .text:00000000000001a8 .L0 
     /tmp/ccZVRKjJ.s:249    .text:00000000000001ac .L0 
     /tmp/ccZVRKjJ.s:251    .text:00000000000001b0 .L0 
     /tmp/ccZVRKjJ.s:256    .text:00000000000001b4 .L0 
     /tmp/ccZVRKjJ.s:257    .text:00000000000001b4 .L0 
     /tmp/ccZVRKjJ.s:262    .text:00000000000001b8 .L0 
     /tmp/ccZVRKjJ.s:264    .text:00000000000001bc .L0 
     /tmp/ccZVRKjJ.s:269    .text:00000000000001c0 .L0 
     /tmp/ccZVRKjJ.s:270    .text:00000000000001c0 .L0 
     /tmp/ccZVRKjJ.s:275    .text:00000000000001c4 .L0 
     /tmp/ccZVRKjJ.s:277    .text:00000000000001c8 .L0 
     /tmp/ccZVRKjJ.s:282    .text:00000000000001cc .L0 
     /tmp/ccZVRKjJ.s:283    .text:00000000000001cc .L0 
     /tmp/ccZVRKjJ.s:288    .text:00000000000001d0 .L0 
     /tmp/ccZVRKjJ.s:294    .text:00000000000001d8 .L0 
     /tmp/ccZVRKjJ.s:298    .text:00000000000001e0 .L0 
     /tmp/ccZVRKjJ.s:299    .text:00000000000001e0 .L0 
     /tmp/ccZVRKjJ.s:303    .text:00000000000001ec .L0 
     /tmp/ccZVRKjJ.s:310    .text:00000000000001f4 .L0 
     /tmp/ccZVRKjJ.s:311    .text:00000000000001f4 .L0 
     /tmp/ccZVRKjJ.s:315    .text:0000000000000204 .L0 
     /tmp/ccZVRKjJ.s:316    .text:0000000000000204 .L0 
     /tmp/ccZVRKjJ.s:318    .text:000000000000020c .L0 
     /tmp/ccZVRKjJ.s:320    .text:0000000000000210 .L0 
     /tmp/ccZVRKjJ.s:321    .text:0000000000000210 .L0 
     /tmp/ccZVRKjJ.s:323    .text:0000000000000214 .L0 
     /tmp/ccZVRKjJ.s:326    .text:0000000000000218 .L0 
     /tmp/ccZVRKjJ.s:328    .text:000000000000021c .L0 
     /tmp/ccZVRKjJ.s:337    .text:000000000000021c .L0 
     /tmp/ccZVRKjJ.s:48     .text:000000000000001c .L0 
     /tmp/ccZVRKjJ.s:66     .text:0000000000000028 .L0 
     /tmp/ccZVRKjJ.s:68     .text:0000000000000034 .L0 
     /tmp/ccZVRKjJ.s:124    .text:00000000000000a4 .L0 
     /tmp/ccZVRKjJ.s:129    .text:00000000000000b4 .L0 
     /tmp/ccZVRKjJ.s:8      .rodata.str1.8:0000000000000000 .LC0
     /tmp/ccZVRKjJ.s:136    .text:00000000000000c8 .L0 
     /tmp/ccZVRKjJ.s:142    .text:00000000000000dc .L0 
     /tmp/ccZVRKjJ.s:11     .rodata.str1.8:0000000000000018 .LC1
GAS LISTING /tmp/ccZVRKjJ.s 			page 15


     /tmp/ccZVRKjJ.s:149    .text:00000000000000f0 .L0 
     /tmp/ccZVRKjJ.s:155    .text:0000000000000104 .L0 
     /tmp/ccZVRKjJ.s:14     .rodata.str1.8:0000000000000030 .LC2
     /tmp/ccZVRKjJ.s:162    .text:0000000000000118 .L0 
     /tmp/ccZVRKjJ.s:168    .text:000000000000012c .L0 
     /tmp/ccZVRKjJ.s:17     .rodata.str1.8:0000000000000048 .LC3
     /tmp/ccZVRKjJ.s:175    .text:0000000000000140 .L0 
     /tmp/ccZVRKjJ.s:20     .rodata.str1.8:0000000000000060 .LC4
     /tmp/ccZVRKjJ.s:311    .text:00000000000001f4 .L0 
     /tmp/ccZVRKjJ.s:192    .text:000000000000015c .L12
     /tmp/ccZVRKjJ.s:202    .text:000000000000016c .L13
     /tmp/ccZVRKjJ.s:211    .text:000000000000017c .L14
     /tmp/ccZVRKjJ.s:220    .text:000000000000018c .L15
     /tmp/ccZVRKjJ.s:233    .text:00000000000001a4 .L8
     /tmp/ccZVRKjJ.s:84     .text:000000000000005c .L2
     /tmp/ccZVRKjJ.s:95     .text:000000000000006c .L3
     /tmp/ccZVRKjJ.s:104    .text:000000000000007c .L4
     /tmp/ccZVRKjJ.s:113    .text:000000000000008c .L5
     /tmp/ccZVRKjJ.s:228    .text:000000000000019c .L6
     /tmp/ccZVRKjJ.s:307    .text:00000000000001f4 .L9
     /tmp/ccZVRKjJ.s:291    .text:00000000000001d8 .L7
     /tmp/ccZVRKjJ.s:1560   .debug_abbrev:0000000000000000 .Ldebug_abbrev0
     /tmp/ccZVRKjJ.s:2672   .debug_str:00000000000000d2 .LASF142
     /tmp/ccZVRKjJ.s:2778   .debug_str:00000000000004b6 .LASF143
     /tmp/ccZVRKjJ.s:2796   .debug_str:000000000000053a .LASF144
     /tmp/ccZVRKjJ.s:5      .text:0000000000000000 .Ltext0
     /tmp/ccZVRKjJ.s:331    .text:000000000000021c .Letext0
     /tmp/ccZVRKjJ.s:2642   .debug_line:0000000000000000 .Ldebug_line0
     /tmp/ccZVRKjJ.s:2814   .debug_str:00000000000005b1 .LASF0
     /tmp/ccZVRKjJ.s:2830   .debug_str:000000000000060d .LASF1
     /tmp/ccZVRKjJ.s:2792   .debug_str:000000000000051c .LASF2
     /tmp/ccZVRKjJ.s:2764   .debug_str:0000000000000469 .LASF4
     /tmp/ccZVRKjJ.s:2876   .debug_str:0000000000000737 .LASF3
     /tmp/ccZVRKjJ.s:2674   .debug_str:0000000000000196 .LASF5
     /tmp/ccZVRKjJ.s:2836   .debug_str:0000000000000633 .LASF6
     /tmp/ccZVRKjJ.s:2812   .debug_str:000000000000059e .LASF7
     /tmp/ccZVRKjJ.s:2914   .debug_str:0000000000000881 .LASF8
     /tmp/ccZVRKjJ.s:2746   .debug_str:00000000000003cc .LASF9
     /tmp/ccZVRKjJ.s:2848   .debug_str:000000000000067f .LASF10
     /tmp/ccZVRKjJ.s:2904   .debug_str:0000000000000826 .LASF11
     /tmp/ccZVRKjJ.s:2678   .debug_str:00000000000001a9 .LASF12
     /tmp/ccZVRKjJ.s:2648   .debug_str:0000000000000029 .LASF13
     /tmp/ccZVRKjJ.s:2688   .debug_str:00000000000001f8 .LASF14
     /tmp/ccZVRKjJ.s:2868   .debug_str:00000000000006fb .LASF15
     /tmp/ccZVRKjJ.s:2700   .debug_str:0000000000000250 .LASF16
     /tmp/ccZVRKjJ.s:2794   .debug_str:000000000000052a .LASF26
     /tmp/ccZVRKjJ.s:2730   .debug_str:0000000000000358 .LASF27
     /tmp/ccZVRKjJ.s:2906   .debug_str:0000000000000835 .LASF17
     /tmp/ccZVRKjJ.s:2892   .debug_str:00000000000007c8 .LASF18
     /tmp/ccZVRKjJ.s:2844   .debug_str:000000000000065d .LASF19
     /tmp/ccZVRKjJ.s:2880   .debug_str:000000000000075a .LASF29
     /tmp/ccZVRKjJ.s:2908   .debug_str:000000000000083a .LASF31
     /tmp/ccZVRKjJ.s:2768   .debug_str:0000000000000483 .LASF20
     /tmp/ccZVRKjJ.s:2644   .debug_str:0000000000000000 .LASF51
     /tmp/ccZVRKjJ.s:2710   .debug_str:00000000000002be .LASF53
     /tmp/ccZVRKjJ.s:2918   .debug_str:0000000000000898 .LASF21
     /tmp/ccZVRKjJ.s:2890   .debug_str:00000000000007a7 .LASF23
GAS LISTING /tmp/ccZVRKjJ.s 			page 16


     /tmp/ccZVRKjJ.s:2852   .debug_str:0000000000000699 .LASF22
     /tmp/ccZVRKjJ.s:2940   .debug_str:0000000000000939 .LASF24
     /tmp/ccZVRKjJ.s:2842   .debug_str:0000000000000658 .LASF55
     /tmp/ccZVRKjJ.s:2900   .debug_str:00000000000007fd .LASF57
     /tmp/ccZVRKjJ.s:2728   .debug_str:0000000000000353 .LASF25
     /tmp/ccZVRKjJ.s:2656   .debug_str:0000000000000068 .LASF28
     /tmp/ccZVRKjJ.s:2924   .debug_str:00000000000008c5 .LASF30
     /tmp/ccZVRKjJ.s:2670   .debug_str:00000000000000c6 .LASF32
     /tmp/ccZVRKjJ.s:2742   .debug_str:00000000000003a5 .LASF33
     /tmp/ccZVRKjJ.s:2750   .debug_str:00000000000003df .LASF34
     /tmp/ccZVRKjJ.s:2886   .debug_str:0000000000000782 .LASF35
     /tmp/ccZVRKjJ.s:2862   .debug_str:00000000000006dc .LASF37
     /tmp/ccZVRKjJ.s:2766   .debug_str:0000000000000470 .LASF36
     /tmp/ccZVRKjJ.s:2902   .debug_str:0000000000000819 .LASF38
     /tmp/ccZVRKjJ.s:2714   .debug_str:00000000000002f3 .LASF39
     /tmp/ccZVRKjJ.s:2856   .debug_str:00000000000006b5 .LASF40
     /tmp/ccZVRKjJ.s:2838   .debug_str:0000000000000646 .LASF43
     /tmp/ccZVRKjJ.s:2744   .debug_str:00000000000003b5 .LASF45
     /tmp/ccZVRKjJ.s:2798   .debug_str:0000000000000558 .LASF41
     /tmp/ccZVRKjJ.s:2760   .debug_str:000000000000042a .LASF42
     /tmp/ccZVRKjJ.s:2790   .debug_str:000000000000050f .LASF44
     /tmp/ccZVRKjJ.s:2894   .debug_str:00000000000007cd .LASF46
     /tmp/ccZVRKjJ.s:2720   .debug_str:000000000000031c .LASF145
     /tmp/ccZVRKjJ.s:2776   .debug_str:00000000000004a9 .LASF47
     /tmp/ccZVRKjJ.s:2828   .debug_str:00000000000005ed .LASF48
     /tmp/ccZVRKjJ.s:2858   .debug_str:00000000000006c1 .LASF146
     /tmp/ccZVRKjJ.s:2690   .debug_str:0000000000000204 .LASF49
     /tmp/ccZVRKjJ.s:2652   .debug_str:0000000000000042 .LASF50
     /tmp/ccZVRKjJ.s:2850   .debug_str:000000000000068e .LASF52
     /tmp/ccZVRKjJ.s:2860   .debug_str:00000000000006c6 .LASF54
     /tmp/ccZVRKjJ.s:2870   .debug_str:0000000000000711 .LASF56
     /tmp/ccZVRKjJ.s:2804   .debug_str:000000000000057d .LASF58
     /tmp/ccZVRKjJ.s:2936   .debug_str:000000000000090c .LASF147
     /tmp/ccZVRKjJ.s:2770   .debug_str:0000000000000491 .LASF59
     /tmp/ccZVRKjJ.s:2822   .debug_str:00000000000005d4 .LASF60
     /tmp/ccZVRKjJ.s:2820   .debug_str:00000000000005ce .LASF61
     /tmp/ccZVRKjJ.s:2774   .debug_str:00000000000004a1 .LASF62
     /tmp/ccZVRKjJ.s:2824   .debug_str:00000000000005dd .LASF63
     /tmp/ccZVRKjJ.s:2926   .debug_str:00000000000008d2 .LASF64
     /tmp/ccZVRKjJ.s:2878   .debug_str:0000000000000749 .LASF65
     /tmp/ccZVRKjJ.s:2782   .debug_str:00000000000004cd .LASF66
     /tmp/ccZVRKjJ.s:2758   .debug_str:000000000000041f .LASF67
     /tmp/ccZVRKjJ.s:2784   .debug_str:00000000000004d8 .LASF68
     /tmp/ccZVRKjJ.s:2754   .debug_str:0000000000000401 .LASF70
     /tmp/ccZVRKjJ.s:2818   .debug_str:00000000000005c5 .LASF69
     /tmp/ccZVRKjJ.s:2726   .debug_str:0000000000000340 .LASF71
     /tmp/ccZVRKjJ.s:2922   .debug_str:00000000000008b7 .LASF148
     /tmp/ccZVRKjJ.s:2762   .debug_str:0000000000000441 .LASF149
     /tmp/ccZVRKjJ.s:2826   .debug_str:00000000000005e7 .LASF72
     /tmp/ccZVRKjJ.s:2704   .debug_str:000000000000027a .LASF150
     /tmp/ccZVRKjJ.s:2698   .debug_str:0000000000000244 .LASF73
     /tmp/ccZVRKjJ.s:2930   .debug_str:00000000000008e7 .LASF74
     /tmp/ccZVRKjJ.s:2676   .debug_str:000000000000019d .LASF75
     /tmp/ccZVRKjJ.s:2864   .debug_str:00000000000006e9 .LASF76
     /tmp/ccZVRKjJ.s:2938   .debug_str:0000000000000921 .LASF77
     /tmp/ccZVRKjJ.s:2668   .debug_str:00000000000000b8 .LASF78
     /tmp/ccZVRKjJ.s:2718   .debug_str:0000000000000301 .LASF79
GAS LISTING /tmp/ccZVRKjJ.s 			page 17


     /tmp/ccZVRKjJ.s:2732   .debug_str:0000000000000360 .LASF80
     /tmp/ccZVRKjJ.s:2646   .debug_str:000000000000000f .LASF81
     /tmp/ccZVRKjJ.s:2650   .debug_str:0000000000000039 .LASF82
     /tmp/ccZVRKjJ.s:2888   .debug_str:0000000000000792 .LASF83
     /tmp/ccZVRKjJ.s:2716   .debug_str:00000000000002f8 .LASF84
     /tmp/ccZVRKjJ.s:2694   .debug_str:0000000000000221 .LASF85
     /tmp/ccZVRKjJ.s:2802   .debug_str:0000000000000576 .LASF86
     /tmp/ccZVRKjJ.s:2854   .debug_str:00000000000006a2 .LASF87
     /tmp/ccZVRKjJ.s:2916   .debug_str:0000000000000891 .LASF88
     /tmp/ccZVRKjJ.s:2910   .debug_str:0000000000000862 .LASF89
     /tmp/ccZVRKjJ.s:2738   .debug_str:0000000000000395 .LASF90
     /tmp/ccZVRKjJ.s:2702   .debug_str:0000000000000266 .LASF91
     /tmp/ccZVRKjJ.s:2872   .debug_str:0000000000000717 .LASF92
     /tmp/ccZVRKjJ.s:2882   .debug_str:000000000000075f .LASF93
     /tmp/ccZVRKjJ.s:2722   .debug_str:0000000000000324 .LASF94
     /tmp/ccZVRKjJ.s:2680   .debug_str:00000000000001b9 .LASF95
     /tmp/ccZVRKjJ.s:2944   .debug_str:0000000000000966 .LASF96
     /tmp/ccZVRKjJ.s:2724   .debug_str:000000000000032c .LASF97
     /tmp/ccZVRKjJ.s:2816   .debug_str:00000000000005be .LASF98
     /tmp/ccZVRKjJ.s:2932   .debug_str:00000000000008f4 .LASF99
     /tmp/ccZVRKjJ.s:2664   .debug_str:00000000000000a0 .LASF100
     /tmp/ccZVRKjJ.s:2736   .debug_str:0000000000000382 .LASF101
     /tmp/ccZVRKjJ.s:2806   .debug_str:000000000000058d .LASF102
     /tmp/ccZVRKjJ.s:2898   .debug_str:00000000000007eb .LASF103
     /tmp/ccZVRKjJ.s:2662   .debug_str:000000000000009a .LASF104
     /tmp/ccZVRKjJ.s:2948   .debug_str:0000000000000973 .LASF105
     /tmp/ccZVRKjJ.s:2942   .debug_str:000000000000095b .LASF106
     /tmp/ccZVRKjJ.s:2874   .debug_str:000000000000071f .LASF107
     /tmp/ccZVRKjJ.s:2772   .debug_str:0000000000000496 .LASF108
     /tmp/ccZVRKjJ.s:2786   .debug_str:00000000000004e6 .LASF109
     /tmp/ccZVRKjJ.s:2686   .debug_str:00000000000001ee .LASF110
     /tmp/ccZVRKjJ.s:2846   .debug_str:0000000000000669 .LASF111
     /tmp/ccZVRKjJ.s:2660   .debug_str:0000000000000090 .LASF112
     /tmp/ccZVRKjJ.s:2752   .debug_str:00000000000003eb .LASF113
     /tmp/ccZVRKjJ.s:2896   .debug_str:00000000000007e6 .LASF114
     /tmp/ccZVRKjJ.s:2788   .debug_str:00000000000004fe .LASF115
     /tmp/ccZVRKjJ.s:2748   .debug_str:00000000000003da .LASF116
     /tmp/ccZVRKjJ.s:2666   .debug_str:00000000000000a7 .LASF117
     /tmp/ccZVRKjJ.s:2884   .debug_str:0000000000000773 .LASF118
     /tmp/ccZVRKjJ.s:2682   .debug_str:00000000000001cd .LASF119
     /tmp/ccZVRKjJ.s:2920   .debug_str:00000000000008a2 .LASF120
     /tmp/ccZVRKjJ.s:2706   .debug_str:0000000000000289 .LASF121
     /tmp/ccZVRKjJ.s:2684   .debug_str:00000000000001e9 .LASF122
     /tmp/ccZVRKjJ.s:27     .text:0000000000000000 .LFB40
     /tmp/ccZVRKjJ.s:329    .text:000000000000021c .LFE40
     /tmp/ccZVRKjJ.s:2740   .debug_str:000000000000039d .LASF123
     /tmp/ccZVRKjJ.s:2800   .debug_str:0000000000000564 .LASF124
     /tmp/ccZVRKjJ.s:2912   .debug_str:0000000000000875 .LASF125
     /tmp/ccZVRKjJ.s:2507   .debug_loc:0000000000000000 .LLST0
     /tmp/ccZVRKjJ.s:2523   .debug_loc:000000000000003b .LLST1
     /tmp/ccZVRKjJ.s:2530   .debug_loc:000000000000005e .LLST2
     /tmp/ccZVRKjJ.s:2808   .debug_str:0000000000000593 .LASF126
     /tmp/ccZVRKjJ.s:2543   .debug_loc:0000000000000096 .LLST3
     /tmp/ccZVRKjJ.s:2834   .debug_str:000000000000062c .LASF127
     /tmp/ccZVRKjJ.s:2562   .debug_loc:00000000000000f2 .LLST4
     /tmp/ccZVRKjJ.s:292    .text:00000000000001d8 .LBB27
     /tmp/ccZVRKjJ.s:308    .text:00000000000001f4 .LBE27
GAS LISTING /tmp/ccZVRKjJ.s 			page 18


     /tmp/ccZVRKjJ.s:2840   .debug_str:0000000000000651 .LASF128
     /tmp/ccZVRKjJ.s:2573   .debug_loc:0000000000000128 .LLST10
     /tmp/ccZVRKjJ.s:2928   .debug_str:00000000000008db .LASF129
     /tmp/ccZVRKjJ.s:2832   .debug_str:0000000000000620 .LASF151
     /tmp/ccZVRKjJ.s:2586   .debug_loc:0000000000000160 .LLST11
     /tmp/ccZVRKjJ.s:2780   .debug_str:00000000000004c3 .LASF130
     /tmp/ccZVRKjJ.s:301    .text:00000000000001ec .LVL45
     /tmp/ccZVRKjJ.s:50     .text:0000000000000024 .LBB15
     /tmp/ccZVRKjJ.s:62     .text:0000000000000028 .LBE15
     /tmp/ccZVRKjJ.s:179    .text:0000000000000150 .LBB17
     /tmp/ccZVRKjJ.s:194    .text:000000000000015c .LBE17
     /tmp/ccZVRKjJ.s:2593   .debug_loc:0000000000000183 .LLST5
     /tmp/ccZVRKjJ.s:239    .text:00000000000001a8 .LBB19
     /tmp/ccZVRKjJ.s:247    .text:00000000000001ac .LBE19
     /tmp/ccZVRKjJ.s:2601   .debug_loc:00000000000001a7 .LLST6
     /tmp/ccZVRKjJ.s:253    .text:00000000000001b4 .LBB21
     /tmp/ccZVRKjJ.s:260    .text:00000000000001b8 .LBE21
     /tmp/ccZVRKjJ.s:2608   .debug_loc:00000000000001ca .LLST7
     /tmp/ccZVRKjJ.s:266    .text:00000000000001c0 .LBB23
     /tmp/ccZVRKjJ.s:273    .text:00000000000001c4 .LBE23
     /tmp/ccZVRKjJ.s:2615   .debug_loc:00000000000001ed .LLST8
     /tmp/ccZVRKjJ.s:279    .text:00000000000001cc .LBB25
     /tmp/ccZVRKjJ.s:286    .text:00000000000001d0 .LBE25
     /tmp/ccZVRKjJ.s:2622   .debug_loc:0000000000000210 .LLST9
     /tmp/ccZVRKjJ.s:44     .text:000000000000001c .LVL0
     /tmp/ccZVRKjJ.s:79     .text:0000000000000054 .LVL5
     /tmp/ccZVRKjJ.s:91     .text:0000000000000068 .LVL8
     /tmp/ccZVRKjJ.s:100    .text:0000000000000078 .LVL10
     /tmp/ccZVRKjJ.s:109    .text:0000000000000088 .LVL12
     /tmp/ccZVRKjJ.s:120    .text:00000000000000a0 .LVL14
     /tmp/ccZVRKjJ.s:131    .text:00000000000000c4 .LVL15
     /tmp/ccZVRKjJ.s:138    .text:00000000000000d8 .LVL16
     /tmp/ccZVRKjJ.s:144    .text:00000000000000ec .LVL17
     /tmp/ccZVRKjJ.s:151    .text:0000000000000100 .LVL18
     /tmp/ccZVRKjJ.s:157    .text:0000000000000114 .LVL19
     /tmp/ccZVRKjJ.s:164    .text:0000000000000128 .LVL20
     /tmp/ccZVRKjJ.s:170    .text:000000000000013c .LVL21
     /tmp/ccZVRKjJ.s:177    .text:0000000000000150 .LVL22
     /tmp/ccZVRKjJ.s:199    .text:0000000000000168 .LVL24
     /tmp/ccZVRKjJ.s:208    .text:0000000000000178 .LVL27
     /tmp/ccZVRKjJ.s:217    .text:0000000000000188 .LVL30
     /tmp/ccZVRKjJ.s:226    .text:0000000000000198 .LVL33
     /tmp/ccZVRKjJ.s:232    .text:00000000000001a4 .LVL34
     /tmp/ccZVRKjJ.s:313    .text:0000000000000204 .LVL48
     /tmp/ccZVRKjJ.s:2756   .debug_str:000000000000041a .LASF131
     /tmp/ccZVRKjJ.s:2934   .debug_str:0000000000000907 .LASF152
     /tmp/ccZVRKjJ.s:2946   .debug_str:000000000000096e .LASF132
     /tmp/ccZVRKjJ.s:2810   .debug_str:0000000000000598 .LASF133
     /tmp/ccZVRKjJ.s:2696   .debug_str:0000000000000236 .LASF134
     /tmp/ccZVRKjJ.s:2658   .debug_str:0000000000000070 .LASF135
     /tmp/ccZVRKjJ.s:2712   .debug_str:00000000000002e5 .LASF136
     /tmp/ccZVRKjJ.s:2708   .debug_str:00000000000002ab .LASF137
     /tmp/ccZVRKjJ.s:2654   .debug_str:000000000000005c .LASF138
     /tmp/ccZVRKjJ.s:2866   .debug_str:00000000000006f4 .LASF139
     /tmp/ccZVRKjJ.s:2734   .debug_str:000000000000036d .LASF140
     /tmp/ccZVRKjJ.s:2692   .debug_str:0000000000000211 .LASF141
     /tmp/ccZVRKjJ.s:73     .text:0000000000000048 .LVL3
GAS LISTING /tmp/ccZVRKjJ.s 			page 19


     /tmp/ccZVRKjJ.s:77     .text:000000000000004c .LVL4
     /tmp/ccZVRKjJ.s:81     .text:0000000000000058 .LVL6
     /tmp/ccZVRKjJ.s:290    .text:00000000000001d8 .LVL43
     /tmp/ccZVRKjJ.s:86     .text:000000000000005c .LVL7
     /tmp/ccZVRKjJ.s:191    .text:000000000000015c .LVL23
     /tmp/ccZVRKjJ.s:201    .text:000000000000016c .LVL25
     /tmp/ccZVRKjJ.s:94     .text:000000000000006c .LVL9
     /tmp/ccZVRKjJ.s:112    .text:000000000000008c .LVL13
     /tmp/ccZVRKjJ.s:206    .text:0000000000000170 .LVL26
     /tmp/ccZVRKjJ.s:219    .text:000000000000018c .LVL31
     /tmp/ccZVRKjJ.s:224    .text:0000000000000190 .LVL32
     /tmp/ccZVRKjJ.s:103    .text:000000000000007c .LVL11
     /tmp/ccZVRKjJ.s:210    .text:000000000000017c .LVL28
     /tmp/ccZVRKjJ.s:215    .text:0000000000000180 .LVL29
     /tmp/ccZVRKjJ.s:296    .text:00000000000001e0 .LVL44
     /tmp/ccZVRKjJ.s:304    .text:00000000000001f0 .LVL46
     /tmp/ccZVRKjJ.s:306    .text:00000000000001f4 .LVL47
     /tmp/ccZVRKjJ.s:324    .text:0000000000000214 .LVL49
     /tmp/ccZVRKjJ.s:238    .text:00000000000001a8 .LVL35
     /tmp/ccZVRKjJ.s:245    .text:00000000000001ac .LVL36
     /tmp/ccZVRKjJ.s:252    .text:00000000000001b4 .LVL37
     /tmp/ccZVRKjJ.s:258    .text:00000000000001b8 .LVL38
     /tmp/ccZVRKjJ.s:265    .text:00000000000001c0 .LVL39
     /tmp/ccZVRKjJ.s:271    .text:00000000000001c4 .LVL40
     /tmp/ccZVRKjJ.s:278    .text:00000000000001cc .LVL41
     /tmp/ccZVRKjJ.s:284    .text:00000000000001d0 .LVL42
     /tmp/ccZVRKjJ.s:338    .debug_info:0000000000000000 .Ldebug_info0

UNDEFINED SYMBOLS
_ZN15MemoryAllocator4initEv
_ZN5Riscv14supervisorTrapEv
HEAP_END_ADDR
HEAP_START_ADDR
_Z9mem_allocm
_ZN15MemoryAllocator8mem_freeEPKv
_Z13thread_createP3TCBPFvPvES1_
_ZN3TCB7runningE
_Z11workerBodyAPv
_ZN3TCB12createThreadEPFvPvES0_
_Z11printStringPKc
_Z11workerBodyBPv
_Z11workerBodyCPv
_Z11workerBodyDPv
__putc
_Z15thread_dispatchv
_ZN3TCB12deleteThreadEPS_
