GAS LISTING /tmp/ccpsoHjH.s 			page 1


   1              		.file	"main.cpp"
   2              		.option pic
   3              		.option norelax
   4              		.text
   5              	.Ltext0:
   6              		.section	.rodata.str1.8,"aMS",@progbits,1
   7              		.align	3
   8              	.LC0:
   9 0000 54687265 		.string	"ThreadA created\n"
   9      61644120 
   9      63726561 
   9      7465640A 
   9      00
  10 0011 00000000 		.align	3
  10      000000
  11              	.LC1:
  12 0018 54687265 		.string	"ThreadB created\n"
  12      61644220 
  12      63726561 
  12      7465640A 
  12      00
  13 0029 00000000 		.align	3
  13      000000
  14              	.LC2:
  15 0030 54687265 		.string	"ThreadC created\n"
  15      61644320 
  15      63726561 
  15      7465640A 
  15      00
  16 0041 00000000 		.align	3
  16      000000
  17              	.LC3:
  18 0048 54687265 		.string	"ThreadD created\n"
  18      61644420 
  18      63726561 
  18      7465640A 
  18      00
  19 0059 00000000 		.align	3
  19      000000
  20              	.LC4:
  21 0060 46696E69 		.string	"Finished\n"
  21      73686564 
  21      0A00
  22              		.text
  23              		.align	2
  24              		.globl	main
  26              	main:
  27              	.LFB40:
  28              		.file 1 "src/main.cpp"
   1:src/main.cpp  **** //
   2:src/main.cpp  **** // Created by marko on 20.4.22..
   3:src/main.cpp  **** //
   4:src/main.cpp  **** 
   5:src/main.cpp  **** #include "../h/tcb.hpp"
   6:src/main.cpp  **** #include "../h/workers.hpp"
   7:src/main.cpp  **** #include "../h/syscall_c.hpp"
   8:src/main.cpp  **** 
GAS LISTING /tmp/ccpsoHjH.s 			page 2


   9:src/main.cpp  **** int main()
  10:src/main.cpp  **** {
  29              		.loc 1 10 1
  30              		.cfi_startproc
  31 0000 130101FB 		addi	sp,sp,-80
  32              		.cfi_def_cfa_offset 80
  33 0004 23341104 		sd	ra,72(sp)
  34 0008 23308104 		sd	s0,64(sp)
  35 000c 233C9102 		sd	s1,56(sp)
  36              		.cfi_offset 1, -8
  37              		.cfi_offset 8, -16
  38              		.cfi_offset 9, -24
  39 0010 13040105 		addi	s0,sp,80
  40              		.cfi_def_cfa 8, 0
  11:src/main.cpp  ****     MemoryAllocator::init();
  41              		.loc 1 11 5
  42              		.loc 1 11 26 is_stmt 0
  43 0014 97000000 		call	_ZN15MemoryAllocator4initEv@plt
  43      E7800000 
  44              	.LVL0:
  12:src/main.cpp  ****     TCB *threads[5];
  45              		.loc 1 12 5 is_stmt 1
  13:src/main.cpp  **** 
  14:src/main.cpp  ****     Riscv::w_stvec((uint64) &Riscv::supervisorTrap);
  46              		.loc 1 14 5
  47              		.loc 1 14 19 is_stmt 0
  48 001c 97070000 		la	a5,_ZN5Riscv14supervisorTrapEv
  48      83B70700 
  49              	.LVL1:
  50              	.LBB15:
  51              	.LBB16:
  52              		.file 2 "src/../h/riscv.hpp"
   1:src/../h/riscv.hpp **** //
   2:src/../h/riscv.hpp **** // Created by marko on 20.4.22..
   3:src/../h/riscv.hpp **** //
   4:src/../h/riscv.hpp **** 
   5:src/../h/riscv.hpp **** #ifndef OS1_VEZBE07_RISCV_CONTEXT_SWITCH_2_INTERRUPT_RISCV_HPP
   6:src/../h/riscv.hpp **** #define OS1_VEZBE07_RISCV_CONTEXT_SWITCH_2_INTERRUPT_RISCV_HPP
   7:src/../h/riscv.hpp **** 
   8:src/../h/riscv.hpp **** #include "../lib/hw.h"
   9:src/../h/riscv.hpp **** #include "../lib/console.h"
  10:src/../h/riscv.hpp **** #include "print.hpp"
  11:src/../h/riscv.hpp **** #include "tcb.hpp"
  12:src/../h/riscv.hpp **** #include "MemoryAllocator.hpp"
  13:src/../h/riscv.hpp **** class Riscv
  14:src/../h/riscv.hpp **** {
  15:src/../h/riscv.hpp **** public:
  16:src/../h/riscv.hpp **** 
  17:src/../h/riscv.hpp ****     //pop sstatus spp and sstatus spie
  18:src/../h/riscv.hpp ****     static void popSppSpie();
  19:src/../h/riscv.hpp ****     //push x3..31 registers
  20:src/../h/riscv.hpp ****     static void pushRegisters();
  21:src/../h/riscv.hpp ****     //pop x3..31 regiesters
  22:src/../h/riscv.hpp ****     static void popRegisters();
  23:src/../h/riscv.hpp **** 
  24:src/../h/riscv.hpp ****     // read register scause
  25:src/../h/riscv.hpp ****     static uint64 r_scause();
GAS LISTING /tmp/ccpsoHjH.s 			page 3


  26:src/../h/riscv.hpp **** 
  27:src/../h/riscv.hpp ****     // write register scause
  28:src/../h/riscv.hpp ****     static void w_scause(uint64 scause);
  29:src/../h/riscv.hpp **** 
  30:src/../h/riscv.hpp ****     // read register sepc
  31:src/../h/riscv.hpp ****     static uint64 r_sepc();
  32:src/../h/riscv.hpp **** 
  33:src/../h/riscv.hpp ****     // write register sepc
  34:src/../h/riscv.hpp ****     static void w_sepc(uint64 sepc);
  35:src/../h/riscv.hpp **** 
  36:src/../h/riscv.hpp ****     // read register stvec
  37:src/../h/riscv.hpp ****     static uint64 r_stvec();
  38:src/../h/riscv.hpp **** 
  39:src/../h/riscv.hpp ****     // write register stvec
  40:src/../h/riscv.hpp ****     static void w_stvec(uint64 stvec);
  41:src/../h/riscv.hpp **** 
  42:src/../h/riscv.hpp ****     // read register stval
  43:src/../h/riscv.hpp ****     static uint64 r_stval();
  44:src/../h/riscv.hpp **** 
  45:src/../h/riscv.hpp ****     // write register stval
  46:src/../h/riscv.hpp ****     static void w_stval(uint64 stval);
  47:src/../h/riscv.hpp **** 
  48:src/../h/riscv.hpp ****     enum BitMaskSip
  49:src/../h/riscv.hpp ****     {
  50:src/../h/riscv.hpp ****         SIP_SSIP = (1 << 1),
  51:src/../h/riscv.hpp ****         SIP_STIP = (1 << 5),
  52:src/../h/riscv.hpp ****         SIP_SEIP = (1 << 9),
  53:src/../h/riscv.hpp ****     };
  54:src/../h/riscv.hpp **** 
  55:src/../h/riscv.hpp ****     // mask set register sip
  56:src/../h/riscv.hpp ****     static void ms_sip(uint64 mask);
  57:src/../h/riscv.hpp **** 
  58:src/../h/riscv.hpp ****     // mask clear register sip
  59:src/../h/riscv.hpp ****     static void mc_sip(uint64 mask);
  60:src/../h/riscv.hpp **** 
  61:src/../h/riscv.hpp ****     // read register sip
  62:src/../h/riscv.hpp ****     static uint64 r_sip();
  63:src/../h/riscv.hpp **** 
  64:src/../h/riscv.hpp ****     // write register sip
  65:src/../h/riscv.hpp ****     static void w_sip(uint64 sip);
  66:src/../h/riscv.hpp **** 
  67:src/../h/riscv.hpp ****     enum BitMaskSstatus
  68:src/../h/riscv.hpp ****     {
  69:src/../h/riscv.hpp ****         SSTATUS_SIE = (1 << 1),
  70:src/../h/riscv.hpp ****         SSTATUS_SPIE = (1 << 5),
  71:src/../h/riscv.hpp ****         SSTATUS_SPP = (1 << 8),
  72:src/../h/riscv.hpp ****     };
  73:src/../h/riscv.hpp **** 
  74:src/../h/riscv.hpp ****     // mask set register sstatus
  75:src/../h/riscv.hpp ****     static void ms_sstatus(uint64 mask);
  76:src/../h/riscv.hpp **** 
  77:src/../h/riscv.hpp ****     // mask clear register sstatus
  78:src/../h/riscv.hpp ****     static void mc_sstatus(uint64 mask);
  79:src/../h/riscv.hpp **** 
  80:src/../h/riscv.hpp ****     // read register sstatus
  81:src/../h/riscv.hpp ****     static uint64 r_sstatus();
  82:src/../h/riscv.hpp **** 
GAS LISTING /tmp/ccpsoHjH.s 			page 4


  83:src/../h/riscv.hpp ****     // write register sstatus
  84:src/../h/riscv.hpp ****     static void w_sstatus(uint64 sstatus);
  85:src/../h/riscv.hpp **** 
  86:src/../h/riscv.hpp ****     //read a0 register
  87:src/../h/riscv.hpp ****     static uint64 r_a0();
  88:src/../h/riscv.hpp **** 
  89:src/../h/riscv.hpp ****     //write to a0 register
  90:src/../h/riscv.hpp ****     static void w_a0(uint64 writeValue);
  91:src/../h/riscv.hpp **** 
  92:src/../h/riscv.hpp ****     static void supervisorTrap();
  93:src/../h/riscv.hpp **** 
  94:src/../h/riscv.hpp **** private:
  95:src/../h/riscv.hpp ****     static void handleSupervisorTrap();
  96:src/../h/riscv.hpp **** };
  97:src/../h/riscv.hpp **** 
  98:src/../h/riscv.hpp **** 
  99:src/../h/riscv.hpp **** inline uint64 Riscv::r_scause()
 100:src/../h/riscv.hpp **** {
 101:src/../h/riscv.hpp ****     uint64 volatile scause;
 102:src/../h/riscv.hpp ****     __asm__ volatile ("csrr %[scause], scause" : [scause] "=r"(scause));
 103:src/../h/riscv.hpp ****     return scause;
 104:src/../h/riscv.hpp **** }
 105:src/../h/riscv.hpp **** 
 106:src/../h/riscv.hpp **** inline void Riscv::w_scause(uint64 scause)
 107:src/../h/riscv.hpp **** {
 108:src/../h/riscv.hpp ****     __asm__ volatile ("csrw scause, %[scause]" : : [scause] "r"(scause));
 109:src/../h/riscv.hpp **** }
 110:src/../h/riscv.hpp **** 
 111:src/../h/riscv.hpp **** inline uint64 Riscv::r_sepc()
 112:src/../h/riscv.hpp **** {
 113:src/../h/riscv.hpp ****     uint64 volatile sepc;
 114:src/../h/riscv.hpp ****     __asm__ volatile ("csrr %[sepc], sepc" : [sepc] "=r"(sepc));
 115:src/../h/riscv.hpp ****     return sepc;
 116:src/../h/riscv.hpp **** }
 117:src/../h/riscv.hpp **** 
 118:src/../h/riscv.hpp **** inline void Riscv::w_sepc(uint64 sepc)
 119:src/../h/riscv.hpp **** {
 120:src/../h/riscv.hpp ****     __asm__ volatile ("csrw sepc, %[sepc]" : : [sepc] "r"(sepc));
 121:src/../h/riscv.hpp **** }
 122:src/../h/riscv.hpp **** 
 123:src/../h/riscv.hpp **** inline uint64 Riscv::r_stvec()
 124:src/../h/riscv.hpp **** {
 125:src/../h/riscv.hpp ****     uint64 volatile stvec;
 126:src/../h/riscv.hpp ****     __asm__ volatile ("csrr %[stvec], stvec" : [stvec] "=r"(stvec));
 127:src/../h/riscv.hpp ****     return stvec;
 128:src/../h/riscv.hpp **** }
 129:src/../h/riscv.hpp **** 
 130:src/../h/riscv.hpp **** inline void Riscv::w_stvec(uint64 stvec)
 131:src/../h/riscv.hpp **** {
 132:src/../h/riscv.hpp ****     __asm__ volatile ("csrw stvec, %[stvec]" : : [stvec] "r"(stvec));
  53              		.loc 2 132 5 is_stmt 1
  54              		.loc 2 132 69 is_stmt 0
  55              	#APP
  56              	# 132 "src/../h/riscv.hpp" 1
 133              	}
  57              		csrw stvec, a5
  58              	# 0 "" 2
GAS LISTING /tmp/ccpsoHjH.s 			page 5


  59              	.LVL2:
  60              	#NO_APP
  61              	.LBE16:
  62              	.LBE15:
  15:src/main.cpp  **** 
  16:src/main.cpp  ****     int velicinaZaglavlja = 2 *sizeof(size_t); // meni je ovoliko
  63              		.loc 1 16 5 is_stmt 1
  17:src/main.cpp  **** 
  18:src/main.cpp  ****     const size_t maxMemorija = (((size_t)HEAP_END_ADDR - (size_t)HEAP_START_ADDR - velicinaZaglavlj
  64              		.loc 1 18 5
  65              		.loc 1 18 56 is_stmt 0
  66 0028 97070000 		la	a5,HEAP_END_ADDR
  66      83B70700 
  67 0030 03B50700 		ld	a0,0(a5)
  68 0034 97070000 		la	a5,HEAP_START_ADDR
  68      83B70700 
  69 003c 83B70700 		ld	a5,0(a5)
  70 0040 3305F540 		sub	a0,a0,a5
  71              		.loc 1 18 82
  72 0044 130505FF 		addi	a0,a0,-16
  73              	.LVL3:
  19:src/main.cpp  ****     char* niz = (char*)mem_alloc(maxMemorija); // celokupan prostor
  74              		.loc 1 19 5 is_stmt 1
  75              		.loc 1 19 33 is_stmt 0
  76 0048 137505FC 		andi	a0,a0,-64
  77              	.LVL4:
  78 004c 97000000 		call	_Z9mem_allocm@plt
  78      E7800000 
  79              	.LVL5:
  80 0054 93040500 		mv	s1,a0
  81              	.LVL6:
  20:src/main.cpp  ****     if(niz == nullptr) {
  82              		.loc 1 20 5 is_stmt 1
  83 0058 6306050E 		beqz	a0,.L12
  84              	.L2:
  21:src/main.cpp  ****         __putc('?');
  22:src/main.cpp  ****     }
  23:src/main.cpp  **** 
  24:src/main.cpp  ****     int n = 10;
  85              		.loc 1 24 5
  86              	.LVL7:
  25:src/main.cpp  ****     char* niz2 = (char*)mem_alloc(n*sizeof(char));
  87              		.loc 1 25 5
  88              		.loc 1 25 34 is_stmt 0
  89 005c 1305A000 		li	a0,10
  90 0060 97000000 		call	_Z9mem_allocm@plt
  90      E7800000 
  91              	.LVL8:
  26:src/main.cpp  ****     if(niz2 == nullptr) {
  92              		.loc 1 26 5 is_stmt 1
  93 0068 6306050E 		beqz	a0,.L13
  94              	.LVL9:
  95              	.L3:
  27:src/main.cpp  ****         __putc('k');
  28:src/main.cpp  ****     }
  29:src/main.cpp  **** 
  30:src/main.cpp  ****     int status = MemoryAllocator::mem_free(niz);
GAS LISTING /tmp/ccpsoHjH.s 			page 6


  96              		.loc 1 30 5
  97              		.loc 1 30 43 is_stmt 0
  98 006c 13850400 		mv	a0,s1
  99 0070 97000000 		call	_ZN15MemoryAllocator8mem_freeEPKv@plt
  99      E7800000 
 100              	.LVL10:
  31:src/main.cpp  ****     if(status != 0) {
 101              		.loc 1 31 5 is_stmt 1
 102 0078 6316050E 		bnez	a0,.L14
 103              	.LVL11:
 104              	.L4:
  32:src/main.cpp  ****         __putc('?');
  33:src/main.cpp  ****     }
  34:src/main.cpp  ****     niz2 = (char*)mem_alloc(n*sizeof(char));
 105              		.loc 1 34 5
 106              		.loc 1 34 28 is_stmt 0
 107 007c 1305A000 		li	a0,10
 108 0080 97000000 		call	_Z9mem_allocm@plt
 108      E7800000 
 109              	.LVL12:
  35:src/main.cpp  ****     if(niz2 == nullptr) {
 110              		.loc 1 35 5 is_stmt 1
 111 0088 6306050E 		beqz	a0,.L15
 112              	.LVL13:
 113              	.L5:
  36:src/main.cpp  ****         __putc('?');
  37:src/main.cpp  ****     }
  38:src/main.cpp  **** 
  39:src/main.cpp  **** 
  40:src/main.cpp  **** 
  41:src/main.cpp  **** 
  42:src/main.cpp  ****     threads[0] = TCB::createThread(nullptr);
 114              		.loc 1 42 5
 115              		.loc 1 42 35 is_stmt 0
 116 008c 13050000 		li	a0,0
 117 0090 97000000 		call	_ZN3TCB12createThreadEPFvvE@plt
 117      E7800000 
 118              	.LVL14:
 119              		.loc 1 42 16
 120 0098 233CA4FA 		sd	a0,-72(s0)
  43:src/main.cpp  ****     TCB::running = threads[0];
 121              		.loc 1 43 5 is_stmt 1
 122              		.loc 1 43 18 is_stmt 0
 123 009c 97070000 		la	a5,_ZN3TCB7runningE
 123      83B70700 
 124 00a4 23B0A700 		sd	a0,0(a5)
  44:src/main.cpp  **** 
  45:src/main.cpp  ****     threads[1] = TCB::createThread(workerBodyA);
 125              		.loc 1 45 5 is_stmt 1
 126              		.loc 1 45 35 is_stmt 0
 127 00a8 17050000 		la	a0,_Z11workerBodyAv
 127      03350500 
 128 00b0 97000000 		call	_ZN3TCB12createThreadEPFvvE@plt
 128      E7800000 
 129              	.LVL15:
 130              		.loc 1 45 16
 131 00b8 2330A4FC 		sd	a0,-64(s0)
GAS LISTING /tmp/ccpsoHjH.s 			page 7


  46:src/main.cpp  ****     printString("ThreadA created\n");
 132              		.loc 1 46 5 is_stmt 1
 133              		.loc 1 46 16 is_stmt 0
 134 00bc 17050000 		lla	a0,.LC0
 134      13050500 
 135 00c4 97000000 		call	_Z11printStringPKc@plt
 135      E7800000 
 136              	.LVL16:
  47:src/main.cpp  ****     threads[2] = TCB::createThread(workerBodyB);
 137              		.loc 1 47 5 is_stmt 1
 138              		.loc 1 47 35 is_stmt 0
 139 00cc 17050000 		la	a0,_Z11workerBodyBv
 139      03350500 
 140 00d4 97000000 		call	_ZN3TCB12createThreadEPFvvE@plt
 140      E7800000 
 141              	.LVL17:
 142              		.loc 1 47 16
 143 00dc 2334A4FC 		sd	a0,-56(s0)
  48:src/main.cpp  ****     printString("ThreadB created\n");
 144              		.loc 1 48 5 is_stmt 1
 145              		.loc 1 48 16 is_stmt 0
 146 00e0 17050000 		lla	a0,.LC1
 146      13050500 
 147 00e8 97000000 		call	_Z11printStringPKc@plt
 147      E7800000 
 148              	.LVL18:
  49:src/main.cpp  ****     threads[3] = TCB::createThread(workerBodyC);
 149              		.loc 1 49 5 is_stmt 1
 150              		.loc 1 49 35 is_stmt 0
 151 00f0 17050000 		la	a0,_Z11workerBodyCv
 151      03350500 
 152 00f8 97000000 		call	_ZN3TCB12createThreadEPFvvE@plt
 152      E7800000 
 153              	.LVL19:
 154              		.loc 1 49 16
 155 0100 2338A4FC 		sd	a0,-48(s0)
  50:src/main.cpp  ****     printString("ThreadC created\n");
 156              		.loc 1 50 5 is_stmt 1
 157              		.loc 1 50 16 is_stmt 0
 158 0104 17050000 		lla	a0,.LC2
 158      13050500 
 159 010c 97000000 		call	_Z11printStringPKc@plt
 159      E7800000 
 160              	.LVL20:
  51:src/main.cpp  ****     threads[4] = TCB::createThread(workerBodyD);
 161              		.loc 1 51 5 is_stmt 1
 162              		.loc 1 51 35 is_stmt 0
 163 0114 17050000 		la	a0,_Z11workerBodyDv
 163      03350500 
 164 011c 97000000 		call	_ZN3TCB12createThreadEPFvvE@plt
 164      E7800000 
 165              	.LVL21:
 166              		.loc 1 51 16
 167 0124 233CA4FC 		sd	a0,-40(s0)
  52:src/main.cpp  ****     printString("ThreadD created\n");
 168              		.loc 1 52 5 is_stmt 1
 169              		.loc 1 52 16 is_stmt 0
GAS LISTING /tmp/ccpsoHjH.s 			page 8


 170 0128 17050000 		lla	a0,.LC3
 170      13050500 
 171 0130 97000000 		call	_Z11printStringPKc@plt
 171      E7800000 
 172              	.LVL22:
  53:src/main.cpp  **** 
  54:src/main.cpp  **** 
  55:src/main.cpp  **** 
  56:src/main.cpp  ****    Riscv::ms_sstatus(Riscv::SSTATUS_SIE);
 173              		.loc 1 56 4 is_stmt 1
 174              	.LBB17:
 175              	.LBB18:
 134:src/../h/riscv.hpp **** 
 135:src/../h/riscv.hpp **** inline uint64 Riscv::r_stval()
 136:src/../h/riscv.hpp **** {
 137:src/../h/riscv.hpp ****     uint64 volatile stval;
 138:src/../h/riscv.hpp ****     __asm__ volatile ("csrr %[stval], stval" : [stval] "=r"(stval));
 139:src/../h/riscv.hpp ****     return stval;
 140:src/../h/riscv.hpp **** }
 141:src/../h/riscv.hpp **** 
 142:src/../h/riscv.hpp **** inline void Riscv::w_stval(uint64 stval)
 143:src/../h/riscv.hpp **** {
 144:src/../h/riscv.hpp ****     __asm__ volatile ("csrw stval, %[stval]" : : [stval] "r"(stval));
 145:src/../h/riscv.hpp **** }
 146:src/../h/riscv.hpp **** 
 147:src/../h/riscv.hpp **** inline void Riscv::ms_sip(uint64 mask)
 148:src/../h/riscv.hpp **** {
 149:src/../h/riscv.hpp ****     __asm__ volatile ("csrs sip, %[mask]" : : [mask] "r"(mask));
 150:src/../h/riscv.hpp **** }
 151:src/../h/riscv.hpp **** 
 152:src/../h/riscv.hpp **** inline void Riscv::mc_sip(uint64 mask)
 153:src/../h/riscv.hpp **** {
 154:src/../h/riscv.hpp ****     __asm__ volatile ("csrc sip, %[mask]" : : [mask] "r"(mask));
 155:src/../h/riscv.hpp **** }
 156:src/../h/riscv.hpp **** 
 157:src/../h/riscv.hpp **** inline uint64 Riscv::r_sip()
 158:src/../h/riscv.hpp **** {
 159:src/../h/riscv.hpp ****     uint64 volatile sip;
 160:src/../h/riscv.hpp ****     __asm__ volatile ("csrr %[sip], sip" : [sip] "=r"(sip));
 161:src/../h/riscv.hpp ****     return sip;
 162:src/../h/riscv.hpp **** }
 163:src/../h/riscv.hpp **** 
 164:src/../h/riscv.hpp **** inline void Riscv::w_sip(uint64 sip)
 165:src/../h/riscv.hpp **** {
 166:src/../h/riscv.hpp ****     __asm__ volatile ("csrw sip, %[sip]" : : [sip] "r"(sip));
 167:src/../h/riscv.hpp **** }
 168:src/../h/riscv.hpp **** 
 169:src/../h/riscv.hpp **** inline void Riscv::ms_sstatus(uint64 mask)
 170:src/../h/riscv.hpp **** {
 171:src/../h/riscv.hpp ****     __asm__ volatile ("csrs sstatus, %[mask]" : : [mask] "r"(mask));
 176              		.loc 2 171 5
 177              		.loc 2 171 68 is_stmt 0
 178 0138 93072000 		li	a5,2
 179              	#APP
 180              	# 171 "src/../h/riscv.hpp" 1
 172              	}
 181              		csrs sstatus, a5
GAS LISTING /tmp/ccpsoHjH.s 			page 9


 182              	# 0 "" 2
 183              		.loc 2 172 1
 184              	#NO_APP
 185 0140 6F00C004 		j	.L8
 186              	.LVL23:
 187              	.L12:
 188              	.LBE18:
 189              	.LBE17:
  21:src/main.cpp  ****     }
 190              		.loc 1 21 9 is_stmt 1
  21:src/main.cpp  ****     }
 191              		.loc 1 21 15 is_stmt 0
 192 0144 1305F003 		li	a0,63
 193 0148 97000000 		call	__putc@plt
 193      E7800000 
 194              	.LVL24:
 195 0150 6FF0DFF0 		j	.L2
 196              	.LVL25:
 197              	.L13:
  27:src/main.cpp  ****     }
 198              		.loc 1 27 9 is_stmt 1
  27:src/main.cpp  ****     }
 199              		.loc 1 27 15 is_stmt 0
 200 0154 1305B006 		li	a0,107
 201              	.LVL26:
 202 0158 97000000 		call	__putc@plt
 202      E7800000 
 203              	.LVL27:
 204 0160 6FF0DFF0 		j	.L3
 205              	.LVL28:
 206              	.L14:
  32:src/main.cpp  ****     }
 207              		.loc 1 32 9 is_stmt 1
  32:src/main.cpp  ****     }
 208              		.loc 1 32 15 is_stmt 0
 209 0164 1305F003 		li	a0,63
 210              	.LVL29:
 211 0168 97000000 		call	__putc@plt
 211      E7800000 
 212              	.LVL30:
 213 0170 6FF0DFF0 		j	.L4
 214              	.LVL31:
 215              	.L15:
  36:src/main.cpp  ****     }
 216              		.loc 1 36 9 is_stmt 1
  36:src/main.cpp  ****     }
 217              		.loc 1 36 15 is_stmt 0
 218 0174 1305F003 		li	a0,63
 219              	.LVL32:
 220 0178 97000000 		call	__putc@plt
 220      E7800000 
 221              	.LVL33:
 222 0180 6FF0DFF0 		j	.L5
 223              	.L6:
  57:src/main.cpp  **** 
  58:src/main.cpp  ****     while (!(threads[1]->isFinished() &&
  59:src/main.cpp  ****              threads[2]->isFinished() &&
GAS LISTING /tmp/ccpsoHjH.s 			page 10


  60:src/main.cpp  ****              threads[3]->isFinished() &&
  61:src/main.cpp  ****              threads[4]->isFinished()))
  62:src/main.cpp  ****     {
  63:src/main.cpp  ****         TCB::yield();
 224              		.loc 1 63 9 is_stmt 1 discriminator 3
 225              		.loc 1 63 19 is_stmt 0 discriminator 3
 226 0184 97000000 		call	_ZN3TCB5yieldEv@plt
 226      E7800000 
 227              	.LVL34:
 228              	.L8:
  58:src/main.cpp  ****              threads[2]->isFinished() &&
 229              		.loc 1 58 5 is_stmt 1
  58:src/main.cpp  ****              threads[2]->isFinished() &&
 230              		.loc 1 58 12
  58:src/main.cpp  ****              threads[2]->isFinished() &&
 231              		.loc 1 58 23 is_stmt 0
 232 018c 833704FC 		ld	a5,-64(s0)
 233              	.LVL35:
 234              	.LBB19:
 235              	.LBB20:
 236              		.file 3 "src/../h/tcb.hpp"
   1:src/../h/tcb.hpp **** //
   2:src/../h/tcb.hpp **** // Created by os on 5/19/24.
   3:src/../h/tcb.hpp **** //
   4:src/../h/tcb.hpp **** 
   5:src/../h/tcb.hpp **** #ifndef PROJEKAT_TCB_HPP
   6:src/../h/tcb.hpp **** #define PROJEKAT_TCB_HPP
   7:src/../h/tcb.hpp **** #include "../lib/hw.h"
   8:src/../h/tcb.hpp **** #include "scheduler.hpp"
   9:src/../h/tcb.hpp **** #include "riscv.hpp"
  10:src/../h/tcb.hpp **** class TCB {
  11:src/../h/tcb.hpp **** 
  12:src/../h/tcb.hpp ****     void *operator new(size_t n);
  13:src/../h/tcb.hpp **** 
  14:src/../h/tcb.hpp ****     void *operator new[](size_t n);
  15:src/../h/tcb.hpp **** 
  16:src/../h/tcb.hpp ****     void operator delete(void *p) noexcept;
  17:src/../h/tcb.hpp **** 
  18:src/../h/tcb.hpp ****     void operator delete[](void *p) noexcept;
  19:src/../h/tcb.hpp **** 
  20:src/../h/tcb.hpp **** public:
  21:src/../h/tcb.hpp ****     ~TCB(){TCB::operator delete[](stack);}
  22:src/../h/tcb.hpp ****     bool isFinished() const {return finished;}
 237              		.loc 3 22 30 is_stmt 1
 238              		.loc 3 22 37 is_stmt 0
 239 0190 83C78702 		lbu	a5,40(a5)
 240              	.LVL36:
 241              	.LBE20:
 242              	.LBE19:
  58:src/main.cpp  ****              threads[2]->isFinished() &&
 243              		.loc 1 58 12
 244 0194 E38807FE 		beqz	a5,.L6
  59:src/main.cpp  ****              threads[3]->isFinished() &&
 245              		.loc 1 59 23 discriminator 2
 246 0198 833784FC 		ld	a5,-56(s0)
 247              	.LVL37:
 248              	.LBB21:
GAS LISTING /tmp/ccpsoHjH.s 			page 11


 249              	.LBB22:
 250              		.loc 3 22 30 is_stmt 1 discriminator 2
 251              		.loc 3 22 37 is_stmt 0 discriminator 2
 252 019c 83C78702 		lbu	a5,40(a5)
 253              	.LVL38:
 254              	.LBE22:
 255              	.LBE21:
  58:src/main.cpp  ****              threads[2]->isFinished() &&
 256              		.loc 1 58 39 discriminator 2
 257 01a0 E38207FE 		beqz	a5,.L6
  60:src/main.cpp  ****              threads[4]->isFinished()))
 258              		.loc 1 60 23
 259 01a4 833704FD 		ld	a5,-48(s0)
 260              	.LVL39:
 261              	.LBB23:
 262              	.LBB24:
 263              		.loc 3 22 30 is_stmt 1
 264              		.loc 3 22 37 is_stmt 0
 265 01a8 83C78702 		lbu	a5,40(a5)
 266              	.LVL40:
 267              	.LBE24:
 268              	.LBE23:
  59:src/main.cpp  ****              threads[3]->isFinished() &&
 269              		.loc 1 59 39
 270 01ac E38C07FC 		beqz	a5,.L6
  61:src/main.cpp  ****     {
 271              		.loc 1 61 23 discriminator 4
 272 01b0 833784FD 		ld	a5,-40(s0)
 273              	.LVL41:
 274              	.LBB25:
 275              	.LBB26:
 276              		.loc 3 22 30 is_stmt 1 discriminator 4
 277              		.loc 3 22 37 is_stmt 0 discriminator 4
 278 01b4 83C78702 		lbu	a5,40(a5)
 279              	.LVL42:
 280              	.LBE26:
 281              	.LBE25:
  58:src/main.cpp  ****              threads[2]->isFinished() &&
 282              		.loc 1 58 12 discriminator 4
 283 01b8 E38607FC 		beqz	a5,.L6
 284 01bc 930484FB 		addi	s1,s0,-72
 285              	.LVL43:
 286              	.L7:
 287              	.LBB27:
  64:src/main.cpp  ****     }
  65:src/main.cpp  **** 
  66:src/main.cpp  ****     for (auto &thread: threads)
 288              		.loc 1 66 24 is_stmt 1 discriminator 1
 289 01c0 930704FE 		addi	a5,s0,-32
 290 01c4 638CF400 		beq	s1,a5,.L9
 291              	.LVL44:
  67:src/main.cpp  ****     {
  68:src/main.cpp  ****         TCB::deleteThread(thread);
 292              		.loc 1 68 9 discriminator 2
 293              		.loc 1 68 26 is_stmt 0 discriminator 2
 294 01c8 03B50400 		ld	a0,0(s1)
 295 01cc 97000000 		call	_ZN3TCB12deleteThreadEPS_@plt
GAS LISTING /tmp/ccpsoHjH.s 			page 12


 295      E7800000 
 296              	.LVL45:
  66:src/main.cpp  ****     {
 297              		.loc 1 66 5 is_stmt 1 discriminator 2
 298 01d4 93848400 		addi	s1,s1,8
 299              	.LVL46:
 300 01d8 6FF09FFE 		j	.L7
 301              	.LVL47:
 302              	.L9:
 303              	.LBE27:
  69:src/main.cpp  ****     }
  70:src/main.cpp  ****     printString("Finished\n");
 304              		.loc 1 70 5
 305              		.loc 1 70 16 is_stmt 0
 306 01dc 17050000 		lla	a0,.LC4
 306      13050500 
 307 01e4 97000000 		call	_Z11printStringPKc@plt
 307      E7800000 
 308              	.LVL48:
  71:src/main.cpp  **** 
  72:src/main.cpp  ****     return 0;
 309              		.loc 1 72 5 is_stmt 1
  73:src/main.cpp  **** }
 310              		.loc 1 73 1 is_stmt 0
 311 01ec 13050000 		li	a0,0
 312 01f0 83308104 		ld	ra,72(sp)
 313              		.cfi_restore 1
 314 01f4 03340104 		ld	s0,64(sp)
 315              		.cfi_restore 8
 316              		.cfi_def_cfa 2, 80
 317 01f8 83348103 		ld	s1,56(sp)
 318              		.cfi_restore 9
 319              	.LVL49:
 320 01fc 13010105 		addi	sp,sp,80
 321              		.cfi_def_cfa_offset 0
 322 0200 67800000 		jr	ra
 323              		.cfi_endproc
 324              	.LFE40:
 326              	.Letext0:
 327              		.file 4 "src/../h/../lib/hw.h"
 328              		.file 5 "src/../h/MemoryAllocator.hpp"
 329              		.file 6 "src/../h/syscall_c.hpp"
 330              		.file 7 "src/../h/print.hpp"
 331              		.file 8 "src/../h/../lib/console.h"
GAS LISTING /tmp/ccpsoHjH.s 			page 13


DEFINED SYMBOLS
                            *ABS*:0000000000000000 main.cpp
     /tmp/ccpsoHjH.s:26     .text:0000000000000000 main
     /tmp/ccpsoHjH.s:30     .text:0000000000000000 .L0 
     /tmp/ccpsoHjH.s:31     .text:0000000000000000 .L0 
     /tmp/ccpsoHjH.s:32     .text:0000000000000004 .L0 
     /tmp/ccpsoHjH.s:36     .text:0000000000000010 .L0 
     /tmp/ccpsoHjH.s:37     .text:0000000000000010 .L0 
     /tmp/ccpsoHjH.s:38     .text:0000000000000010 .L0 
     /tmp/ccpsoHjH.s:40     .text:0000000000000014 .L0 
     /tmp/ccpsoHjH.s:42     .text:0000000000000014 .L0 
     /tmp/ccpsoHjH.s:43     .text:0000000000000014 .L0 
     /tmp/ccpsoHjH.s:46     .text:000000000000001c .L0 
     /tmp/ccpsoHjH.s:47     .text:000000000000001c .L0 
     /tmp/ccpsoHjH.s:48     .text:000000000000001c .L0 
     /tmp/ccpsoHjH.s:54     .text:0000000000000024 .L0 
  src/../h/riscv.hpp:132    .text:0000000000000024 .L0 
     /tmp/ccpsoHjH.s:64     .text:0000000000000028 .L0 
     /tmp/ccpsoHjH.s:65     .text:0000000000000028 .L0 
     /tmp/ccpsoHjH.s:66     .text:0000000000000028 .L0 
     /tmp/ccpsoHjH.s:72     .text:0000000000000044 .L0 
     /tmp/ccpsoHjH.s:75     .text:0000000000000048 .L0 
     /tmp/ccpsoHjH.s:76     .text:0000000000000048 .L0 
     /tmp/ccpsoHjH.s:83     .text:0000000000000058 .L0 
     /tmp/ccpsoHjH.s:87     .text:000000000000005c .L0 
     /tmp/ccpsoHjH.s:88     .text:000000000000005c .L0 
     /tmp/ccpsoHjH.s:89     .text:000000000000005c .L0 
     /tmp/ccpsoHjH.s:93     .text:0000000000000068 .L0 
     /tmp/ccpsoHjH.s:97     .text:000000000000006c .L0 
     /tmp/ccpsoHjH.s:98     .text:000000000000006c .L0 
     /tmp/ccpsoHjH.s:102    .text:0000000000000078 .L0 
     /tmp/ccpsoHjH.s:106    .text:000000000000007c .L0 
     /tmp/ccpsoHjH.s:107    .text:000000000000007c .L0 
     /tmp/ccpsoHjH.s:111    .text:0000000000000088 .L0 
     /tmp/ccpsoHjH.s:115    .text:000000000000008c .L0 
     /tmp/ccpsoHjH.s:116    .text:000000000000008c .L0 
     /tmp/ccpsoHjH.s:120    .text:0000000000000098 .L0 
     /tmp/ccpsoHjH.s:122    .text:000000000000009c .L0 
     /tmp/ccpsoHjH.s:123    .text:000000000000009c .L0 
     /tmp/ccpsoHjH.s:126    .text:00000000000000a8 .L0 
     /tmp/ccpsoHjH.s:127    .text:00000000000000a8 .L0 
     /tmp/ccpsoHjH.s:131    .text:00000000000000b8 .L0 
     /tmp/ccpsoHjH.s:133    .text:00000000000000bc .L0 
     /tmp/ccpsoHjH.s:134    .text:00000000000000bc .L0 
     /tmp/ccpsoHjH.s:138    .text:00000000000000cc .L0 
     /tmp/ccpsoHjH.s:139    .text:00000000000000cc .L0 
     /tmp/ccpsoHjH.s:143    .text:00000000000000dc .L0 
     /tmp/ccpsoHjH.s:145    .text:00000000000000e0 .L0 
     /tmp/ccpsoHjH.s:146    .text:00000000000000e0 .L0 
     /tmp/ccpsoHjH.s:150    .text:00000000000000f0 .L0 
     /tmp/ccpsoHjH.s:151    .text:00000000000000f0 .L0 
     /tmp/ccpsoHjH.s:155    .text:0000000000000100 .L0 
     /tmp/ccpsoHjH.s:157    .text:0000000000000104 .L0 
     /tmp/ccpsoHjH.s:158    .text:0000000000000104 .L0 
     /tmp/ccpsoHjH.s:162    .text:0000000000000114 .L0 
     /tmp/ccpsoHjH.s:163    .text:0000000000000114 .L0 
     /tmp/ccpsoHjH.s:167    .text:0000000000000124 .L0 
GAS LISTING /tmp/ccpsoHjH.s 			page 14


     /tmp/ccpsoHjH.s:169    .text:0000000000000128 .L0 
     /tmp/ccpsoHjH.s:170    .text:0000000000000128 .L0 
     /tmp/ccpsoHjH.s:176    .text:0000000000000138 .L0 
     /tmp/ccpsoHjH.s:177    .text:0000000000000138 .L0 
     /tmp/ccpsoHjH.s:178    .text:0000000000000138 .L0 
     /tmp/ccpsoHjH.s:185    .text:0000000000000140 .L0 
     /tmp/ccpsoHjH.s:191    .text:0000000000000144 .L0 
     /tmp/ccpsoHjH.s:192    .text:0000000000000144 .L0 
     /tmp/ccpsoHjH.s:199    .text:0000000000000154 .L0 
     /tmp/ccpsoHjH.s:200    .text:0000000000000154 .L0 
     /tmp/ccpsoHjH.s:208    .text:0000000000000164 .L0 
     /tmp/ccpsoHjH.s:209    .text:0000000000000164 .L0 
     /tmp/ccpsoHjH.s:217    .text:0000000000000174 .L0 
     /tmp/ccpsoHjH.s:218    .text:0000000000000174 .L0 
     /tmp/ccpsoHjH.s:225    .text:0000000000000184 .L0 
     /tmp/ccpsoHjH.s:226    .text:0000000000000184 .L0 
     /tmp/ccpsoHjH.s:230    .text:000000000000018c .L0 
     /tmp/ccpsoHjH.s:231    .text:000000000000018c .L0 
     /tmp/ccpsoHjH.s:232    .text:000000000000018c .L0 
     /tmp/ccpsoHjH.s:238    .text:0000000000000190 .L0 
     /tmp/ccpsoHjH.s:239    .text:0000000000000190 .L0 
     /tmp/ccpsoHjH.s:244    .text:0000000000000194 .L0 
     /tmp/ccpsoHjH.s:246    .text:0000000000000198 .L0 
     /tmp/ccpsoHjH.s:251    .text:000000000000019c .L0 
     /tmp/ccpsoHjH.s:252    .text:000000000000019c .L0 
     /tmp/ccpsoHjH.s:257    .text:00000000000001a0 .L0 
     /tmp/ccpsoHjH.s:259    .text:00000000000001a4 .L0 
     /tmp/ccpsoHjH.s:264    .text:00000000000001a8 .L0 
     /tmp/ccpsoHjH.s:265    .text:00000000000001a8 .L0 
     /tmp/ccpsoHjH.s:270    .text:00000000000001ac .L0 
     /tmp/ccpsoHjH.s:272    .text:00000000000001b0 .L0 
     /tmp/ccpsoHjH.s:277    .text:00000000000001b4 .L0 
     /tmp/ccpsoHjH.s:278    .text:00000000000001b4 .L0 
     /tmp/ccpsoHjH.s:283    .text:00000000000001b8 .L0 
     /tmp/ccpsoHjH.s:289    .text:00000000000001c0 .L0 
     /tmp/ccpsoHjH.s:293    .text:00000000000001c8 .L0 
     /tmp/ccpsoHjH.s:294    .text:00000000000001c8 .L0 
     /tmp/ccpsoHjH.s:298    .text:00000000000001d4 .L0 
     /tmp/ccpsoHjH.s:305    .text:00000000000001dc .L0 
     /tmp/ccpsoHjH.s:306    .text:00000000000001dc .L0 
     /tmp/ccpsoHjH.s:310    .text:00000000000001ec .L0 
     /tmp/ccpsoHjH.s:311    .text:00000000000001ec .L0 
     /tmp/ccpsoHjH.s:313    .text:00000000000001f4 .L0 
     /tmp/ccpsoHjH.s:315    .text:00000000000001f8 .L0 
     /tmp/ccpsoHjH.s:316    .text:00000000000001f8 .L0 
     /tmp/ccpsoHjH.s:318    .text:00000000000001fc .L0 
     /tmp/ccpsoHjH.s:321    .text:0000000000000200 .L0 
     /tmp/ccpsoHjH.s:323    .text:0000000000000204 .L0 
     /tmp/ccpsoHjH.s:332    .text:0000000000000204 .L0 
     /tmp/ccpsoHjH.s:48     .text:000000000000001c .L0 
     /tmp/ccpsoHjH.s:66     .text:0000000000000028 .L0 
     /tmp/ccpsoHjH.s:68     .text:0000000000000034 .L0 
     /tmp/ccpsoHjH.s:123    .text:000000000000009c .L0 
     /tmp/ccpsoHjH.s:127    .text:00000000000000a8 .L0 
     /tmp/ccpsoHjH.s:8      .rodata.str1.8:0000000000000000 .LC0
     /tmp/ccpsoHjH.s:134    .text:00000000000000bc .L0 
     /tmp/ccpsoHjH.s:139    .text:00000000000000cc .L0 
GAS LISTING /tmp/ccpsoHjH.s 			page 15


     /tmp/ccpsoHjH.s:11     .rodata.str1.8:0000000000000018 .LC1
     /tmp/ccpsoHjH.s:146    .text:00000000000000e0 .L0 
     /tmp/ccpsoHjH.s:151    .text:00000000000000f0 .L0 
     /tmp/ccpsoHjH.s:14     .rodata.str1.8:0000000000000030 .LC2
     /tmp/ccpsoHjH.s:158    .text:0000000000000104 .L0 
     /tmp/ccpsoHjH.s:163    .text:0000000000000114 .L0 
     /tmp/ccpsoHjH.s:17     .rodata.str1.8:0000000000000048 .LC3
     /tmp/ccpsoHjH.s:170    .text:0000000000000128 .L0 
     /tmp/ccpsoHjH.s:20     .rodata.str1.8:0000000000000060 .LC4
     /tmp/ccpsoHjH.s:306    .text:00000000000001dc .L0 
     /tmp/ccpsoHjH.s:187    .text:0000000000000144 .L12
     /tmp/ccpsoHjH.s:197    .text:0000000000000154 .L13
     /tmp/ccpsoHjH.s:206    .text:0000000000000164 .L14
     /tmp/ccpsoHjH.s:215    .text:0000000000000174 .L15
     /tmp/ccpsoHjH.s:228    .text:000000000000018c .L8
     /tmp/ccpsoHjH.s:84     .text:000000000000005c .L2
     /tmp/ccpsoHjH.s:95     .text:000000000000006c .L3
     /tmp/ccpsoHjH.s:104    .text:000000000000007c .L4
     /tmp/ccpsoHjH.s:113    .text:000000000000008c .L5
     /tmp/ccpsoHjH.s:223    .text:0000000000000184 .L6
     /tmp/ccpsoHjH.s:302    .text:00000000000001dc .L9
     /tmp/ccpsoHjH.s:286    .text:00000000000001c0 .L7
     /tmp/ccpsoHjH.s:1495   .debug_abbrev:0000000000000000 .Ldebug_abbrev0
     /tmp/ccpsoHjH.s:2603   .debug_str:00000000000000b2 .LASF137
     /tmp/ccpsoHjH.s:2705   .debug_str:0000000000000474 .LASF138
     /tmp/ccpsoHjH.s:2723   .debug_str:0000000000000503 .LASF139
     /tmp/ccpsoHjH.s:5      .text:0000000000000000 .Ltext0
     /tmp/ccpsoHjH.s:326    .text:0000000000000204 .Letext0
     /tmp/ccpsoHjH.s:2575   .debug_line:0000000000000000 .Ldebug_line0
     /tmp/ccpsoHjH.s:2741   .debug_str:000000000000057a .LASF0
     /tmp/ccpsoHjH.s:2753   .debug_str:00000000000005ad .LASF1
     /tmp/ccpsoHjH.s:2719   .debug_str:00000000000004e5 .LASF2
     /tmp/ccpsoHjH.s:2691   .debug_str:0000000000000427 .LASF4
     /tmp/ccpsoHjH.s:2799   .debug_str:00000000000006d7 .LASF3
     /tmp/ccpsoHjH.s:2605   .debug_str:0000000000000176 .LASF5
     /tmp/ccpsoHjH.s:2759   .debug_str:00000000000005d3 .LASF6
     /tmp/ccpsoHjH.s:2739   .debug_str:0000000000000567 .LASF7
     /tmp/ccpsoHjH.s:2839   .debug_str:0000000000000832 .LASF8
     /tmp/ccpsoHjH.s:2673   .debug_str:000000000000038a .LASF9
     /tmp/ccpsoHjH.s:2771   .debug_str:000000000000061f .LASF10
     /tmp/ccpsoHjH.s:2829   .debug_str:00000000000007d7 .LASF11
     /tmp/ccpsoHjH.s:2609   .debug_str:0000000000000189 .LASF12
     /tmp/ccpsoHjH.s:2581   .debug_str:0000000000000029 .LASF13
     /tmp/ccpsoHjH.s:2619   .debug_str:00000000000001d8 .LASF14
     /tmp/ccpsoHjH.s:2791   .debug_str:000000000000069b .LASF15
     /tmp/ccpsoHjH.s:2629   .debug_str:0000000000000220 .LASF16
     /tmp/ccpsoHjH.s:2721   .debug_str:00000000000004f3 .LASF26
     /tmp/ccpsoHjH.s:2657   .debug_str:000000000000031a .LASF27
     /tmp/ccpsoHjH.s:2831   .debug_str:00000000000007e6 .LASF17
     /tmp/ccpsoHjH.s:2815   .debug_str:0000000000000768 .LASF18
     /tmp/ccpsoHjH.s:2767   .debug_str:00000000000005fd .LASF19
     /tmp/ccpsoHjH.s:2803   .debug_str:00000000000006fa .LASF29
     /tmp/ccpsoHjH.s:2833   .debug_str:00000000000007eb .LASF31
     /tmp/ccpsoHjH.s:2695   .debug_str:0000000000000441 .LASF20
     /tmp/ccpsoHjH.s:2577   .debug_str:0000000000000000 .LASF51
     /tmp/ccpsoHjH.s:2639   .debug_str:000000000000028e .LASF53
     /tmp/ccpsoHjH.s:2843   .debug_str:0000000000000849 .LASF21
GAS LISTING /tmp/ccpsoHjH.s 			page 16


     /tmp/ccpsoHjH.s:2813   .debug_str:0000000000000747 .LASF23
     /tmp/ccpsoHjH.s:2775   .debug_str:0000000000000639 .LASF22
     /tmp/ccpsoHjH.s:2863   .debug_str:00000000000008d5 .LASF24
     /tmp/ccpsoHjH.s:2765   .debug_str:00000000000005f8 .LASF55
     /tmp/ccpsoHjH.s:2823   .debug_str:000000000000079d .LASF57
     /tmp/ccpsoHjH.s:2655   .debug_str:0000000000000315 .LASF25
     /tmp/ccpsoHjH.s:2589   .debug_str:0000000000000068 .LASF28
     /tmp/ccpsoHjH.s:2849   .debug_str:0000000000000876 .LASF30
     /tmp/ccpsoHjH.s:2601   .debug_str:00000000000000a6 .LASF32
     /tmp/ccpsoHjH.s:2669   .debug_str:0000000000000363 .LASF33
     /tmp/ccpsoHjH.s:2677   .debug_str:000000000000039d .LASF34
     /tmp/ccpsoHjH.s:2809   .debug_str:0000000000000722 .LASF35
     /tmp/ccpsoHjH.s:2785   .debug_str:000000000000067c .LASF37
     /tmp/ccpsoHjH.s:2693   .debug_str:000000000000042e .LASF36
     /tmp/ccpsoHjH.s:2825   .debug_str:00000000000007b9 .LASF38
     /tmp/ccpsoHjH.s:2641   .debug_str:00000000000002b5 .LASF39
     /tmp/ccpsoHjH.s:2779   .debug_str:0000000000000655 .LASF40
     /tmp/ccpsoHjH.s:2761   .debug_str:00000000000005e6 .LASF43
     /tmp/ccpsoHjH.s:2671   .debug_str:0000000000000373 .LASF45
     /tmp/ccpsoHjH.s:2725   .debug_str:0000000000000521 .LASF41
     /tmp/ccpsoHjH.s:2687   .debug_str:00000000000003e8 .LASF42
     /tmp/ccpsoHjH.s:2717   .debug_str:00000000000004d8 .LASF44
     /tmp/ccpsoHjH.s:2817   .debug_str:000000000000076d .LASF46
     /tmp/ccpsoHjH.s:2647   .debug_str:00000000000002de .LASF140
     /tmp/ccpsoHjH.s:2703   .debug_str:0000000000000467 .LASF47
     /tmp/ccpsoHjH.s:2715   .debug_str:00000000000004bc .LASF48
     /tmp/ccpsoHjH.s:2781   .debug_str:0000000000000661 .LASF141
     /tmp/ccpsoHjH.s:2621   .debug_str:00000000000001e4 .LASF49
     /tmp/ccpsoHjH.s:2585   .debug_str:0000000000000042 .LASF50
     /tmp/ccpsoHjH.s:2773   .debug_str:000000000000062e .LASF52
     /tmp/ccpsoHjH.s:2783   .debug_str:0000000000000666 .LASF54
     /tmp/ccpsoHjH.s:2793   .debug_str:00000000000006b1 .LASF56
     /tmp/ccpsoHjH.s:2731   .debug_str:0000000000000546 .LASF58
     /tmp/ccpsoHjH.s:2665   .debug_str:000000000000034a .LASF142
     /tmp/ccpsoHjH.s:2697   .debug_str:000000000000044f .LASF59
     /tmp/ccpsoHjH.s:2747   .debug_str:0000000000000597 .LASF60
     /tmp/ccpsoHjH.s:2701   .debug_str:000000000000045f .LASF61
     /tmp/ccpsoHjH.s:2749   .debug_str:000000000000059d .LASF62
     /tmp/ccpsoHjH.s:2851   .debug_str:0000000000000883 .LASF63
     /tmp/ccpsoHjH.s:2801   .debug_str:00000000000006e9 .LASF64
     /tmp/ccpsoHjH.s:2709   .debug_str:000000000000048b .LASF65
     /tmp/ccpsoHjH.s:2685   .debug_str:00000000000003dd .LASF66
     /tmp/ccpsoHjH.s:2711   .debug_str:0000000000000496 .LASF67
     /tmp/ccpsoHjH.s:2681   .debug_str:00000000000003bf .LASF69
     /tmp/ccpsoHjH.s:2745   .debug_str:000000000000058e .LASF68
     /tmp/ccpsoHjH.s:2653   .debug_str:0000000000000302 .LASF70
     /tmp/ccpsoHjH.s:2847   .debug_str:0000000000000868 .LASF143
     /tmp/ccpsoHjH.s:2689   .debug_str:00000000000003ff .LASF144
     /tmp/ccpsoHjH.s:2751   .debug_str:00000000000005a7 .LASF71
     /tmp/ccpsoHjH.s:2633   .debug_str:000000000000024a .LASF145
     /tmp/ccpsoHjH.s:2627   .debug_str:0000000000000214 .LASF72
     /tmp/ccpsoHjH.s:2855   .debug_str:0000000000000898 .LASF73
     /tmp/ccpsoHjH.s:2607   .debug_str:000000000000017d .LASF74
     /tmp/ccpsoHjH.s:2787   .debug_str:0000000000000689 .LASF75
     /tmp/ccpsoHjH.s:2861   .debug_str:00000000000008bd .LASF76
     /tmp/ccpsoHjH.s:2599   .debug_str:0000000000000098 .LASF77
     /tmp/ccpsoHjH.s:2645   .debug_str:00000000000002c3 .LASF78
GAS LISTING /tmp/ccpsoHjH.s 			page 17


     /tmp/ccpsoHjH.s:2659   .debug_str:0000000000000322 .LASF79
     /tmp/ccpsoHjH.s:2579   .debug_str:000000000000000f .LASF80
     /tmp/ccpsoHjH.s:2583   .debug_str:0000000000000039 .LASF81
     /tmp/ccpsoHjH.s:2811   .debug_str:0000000000000732 .LASF82
     /tmp/ccpsoHjH.s:2643   .debug_str:00000000000002ba .LASF83
     /tmp/ccpsoHjH.s:2623   .debug_str:00000000000001f1 .LASF84
     /tmp/ccpsoHjH.s:2729   .debug_str:000000000000053f .LASF85
     /tmp/ccpsoHjH.s:2777   .debug_str:0000000000000642 .LASF86
     /tmp/ccpsoHjH.s:2841   .debug_str:0000000000000842 .LASF87
     /tmp/ccpsoHjH.s:2835   .debug_str:0000000000000813 .LASF88
     /tmp/ccpsoHjH.s:2663   .debug_str:0000000000000342 .LASF89
     /tmp/ccpsoHjH.s:2631   .debug_str:0000000000000236 .LASF90
     /tmp/ccpsoHjH.s:2795   .debug_str:00000000000006b7 .LASF91
     /tmp/ccpsoHjH.s:2805   .debug_str:00000000000006ff .LASF92
     /tmp/ccpsoHjH.s:2649   .debug_str:00000000000002e6 .LASF93
     /tmp/ccpsoHjH.s:2611   .debug_str:0000000000000199 .LASF94
     /tmp/ccpsoHjH.s:2867   .debug_str:0000000000000902 .LASF95
     /tmp/ccpsoHjH.s:2651   .debug_str:00000000000002ee .LASF96
     /tmp/ccpsoHjH.s:2743   .debug_str:0000000000000587 .LASF97
     /tmp/ccpsoHjH.s:2857   .debug_str:00000000000008a5 .LASF98
     /tmp/ccpsoHjH.s:2595   .debug_str:0000000000000080 .LASF99
     /tmp/ccpsoHjH.s:2661   .debug_str:000000000000032f .LASF100
     /tmp/ccpsoHjH.s:2733   .debug_str:0000000000000556 .LASF101
     /tmp/ccpsoHjH.s:2821   .debug_str:000000000000078b .LASF102
     /tmp/ccpsoHjH.s:2593   .debug_str:000000000000007a .LASF103
     /tmp/ccpsoHjH.s:2871   .debug_str:000000000000090f .LASF104
     /tmp/ccpsoHjH.s:2865   .debug_str:00000000000008f7 .LASF105
     /tmp/ccpsoHjH.s:2797   .debug_str:00000000000006bf .LASF106
     /tmp/ccpsoHjH.s:2699   .debug_str:0000000000000454 .LASF107
     /tmp/ccpsoHjH.s:2713   .debug_str:00000000000004a4 .LASF108
     /tmp/ccpsoHjH.s:2617   .debug_str:00000000000001ce .LASF109
     /tmp/ccpsoHjH.s:2769   .debug_str:0000000000000609 .LASF110
     /tmp/ccpsoHjH.s:2591   .debug_str:0000000000000070 .LASF111
     /tmp/ccpsoHjH.s:2679   .debug_str:00000000000003a9 .LASF112
     /tmp/ccpsoHjH.s:2819   .debug_str:0000000000000786 .LASF113
     /tmp/ccpsoHjH.s:2827   .debug_str:00000000000007c6 .LASF114
     /tmp/ccpsoHjH.s:2675   .debug_str:0000000000000398 .LASF115
     /tmp/ccpsoHjH.s:2597   .debug_str:0000000000000087 .LASF116
     /tmp/ccpsoHjH.s:2807   .debug_str:0000000000000713 .LASF117
     /tmp/ccpsoHjH.s:2613   .debug_str:00000000000001ad .LASF118
     /tmp/ccpsoHjH.s:2845   .debug_str:0000000000000853 .LASF119
     /tmp/ccpsoHjH.s:2635   .debug_str:0000000000000259 .LASF120
     /tmp/ccpsoHjH.s:2615   .debug_str:00000000000001c9 .LASF121
     /tmp/ccpsoHjH.s:27     .text:0000000000000000 .LFB40
     /tmp/ccpsoHjH.s:324    .text:0000000000000204 .LFE40
     /tmp/ccpsoHjH.s:2667   .debug_str:000000000000035b .LASF122
     /tmp/ccpsoHjH.s:2727   .debug_str:000000000000052d .LASF123
     /tmp/ccpsoHjH.s:2837   .debug_str:0000000000000826 .LASF124
     /tmp/ccpsoHjH.s:2440   .debug_loc:0000000000000000 .LLST0
     /tmp/ccpsoHjH.s:2456   .debug_loc:000000000000003b .LLST1
     /tmp/ccpsoHjH.s:2463   .debug_loc:000000000000005e .LLST2
     /tmp/ccpsoHjH.s:2735   .debug_str:000000000000055c .LASF125
     /tmp/ccpsoHjH.s:2476   .debug_loc:0000000000000096 .LLST3
     /tmp/ccpsoHjH.s:2757   .debug_str:00000000000005cc .LASF126
     /tmp/ccpsoHjH.s:2495   .debug_loc:00000000000000f2 .LLST4
     /tmp/ccpsoHjH.s:287    .text:00000000000001c0 .LBB27
     /tmp/ccpsoHjH.s:303    .text:00000000000001dc .LBE27
GAS LISTING /tmp/ccpsoHjH.s 			page 18


     /tmp/ccpsoHjH.s:2763   .debug_str:00000000000005f1 .LASF127
     /tmp/ccpsoHjH.s:2506   .debug_loc:0000000000000128 .LLST10
     /tmp/ccpsoHjH.s:2853   .debug_str:000000000000088c .LASF128
     /tmp/ccpsoHjH.s:2755   .debug_str:00000000000005c0 .LASF146
     /tmp/ccpsoHjH.s:2519   .debug_loc:0000000000000160 .LLST11
     /tmp/ccpsoHjH.s:2707   .debug_str:0000000000000481 .LASF129
     /tmp/ccpsoHjH.s:296    .text:00000000000001d4 .LVL45
     /tmp/ccpsoHjH.s:50     .text:0000000000000024 .LBB15
     /tmp/ccpsoHjH.s:62     .text:0000000000000028 .LBE15
     /tmp/ccpsoHjH.s:174    .text:0000000000000138 .LBB17
     /tmp/ccpsoHjH.s:189    .text:0000000000000144 .LBE17
     /tmp/ccpsoHjH.s:2526   .debug_loc:0000000000000183 .LLST5
     /tmp/ccpsoHjH.s:234    .text:0000000000000190 .LBB19
     /tmp/ccpsoHjH.s:242    .text:0000000000000194 .LBE19
     /tmp/ccpsoHjH.s:2534   .debug_loc:00000000000001a7 .LLST6
     /tmp/ccpsoHjH.s:248    .text:000000000000019c .LBB21
     /tmp/ccpsoHjH.s:255    .text:00000000000001a0 .LBE21
     /tmp/ccpsoHjH.s:2541   .debug_loc:00000000000001ca .LLST7
     /tmp/ccpsoHjH.s:261    .text:00000000000001a8 .LBB23
     /tmp/ccpsoHjH.s:268    .text:00000000000001ac .LBE23
     /tmp/ccpsoHjH.s:2548   .debug_loc:00000000000001ed .LLST8
     /tmp/ccpsoHjH.s:274    .text:00000000000001b4 .LBB25
     /tmp/ccpsoHjH.s:281    .text:00000000000001b8 .LBE25
     /tmp/ccpsoHjH.s:2555   .debug_loc:0000000000000210 .LLST9
     /tmp/ccpsoHjH.s:44     .text:000000000000001c .LVL0
     /tmp/ccpsoHjH.s:79     .text:0000000000000054 .LVL5
     /tmp/ccpsoHjH.s:91     .text:0000000000000068 .LVL8
     /tmp/ccpsoHjH.s:100    .text:0000000000000078 .LVL10
     /tmp/ccpsoHjH.s:109    .text:0000000000000088 .LVL12
     /tmp/ccpsoHjH.s:118    .text:0000000000000098 .LVL14
     /tmp/ccpsoHjH.s:129    .text:00000000000000b8 .LVL15
     /tmp/ccpsoHjH.s:136    .text:00000000000000cc .LVL16
     /tmp/ccpsoHjH.s:141    .text:00000000000000dc .LVL17
     /tmp/ccpsoHjH.s:148    .text:00000000000000f0 .LVL18
     /tmp/ccpsoHjH.s:153    .text:0000000000000100 .LVL19
     /tmp/ccpsoHjH.s:160    .text:0000000000000114 .LVL20
     /tmp/ccpsoHjH.s:165    .text:0000000000000124 .LVL21
     /tmp/ccpsoHjH.s:172    .text:0000000000000138 .LVL22
     /tmp/ccpsoHjH.s:194    .text:0000000000000150 .LVL24
     /tmp/ccpsoHjH.s:203    .text:0000000000000160 .LVL27
     /tmp/ccpsoHjH.s:212    .text:0000000000000170 .LVL30
     /tmp/ccpsoHjH.s:221    .text:0000000000000180 .LVL33
     /tmp/ccpsoHjH.s:227    .text:000000000000018c .LVL34
     /tmp/ccpsoHjH.s:308    .text:00000000000001ec .LVL48
     /tmp/ccpsoHjH.s:2683   .debug_str:00000000000003d8 .LASF130
     /tmp/ccpsoHjH.s:2859   .debug_str:00000000000008b8 .LASF147
     /tmp/ccpsoHjH.s:2869   .debug_str:000000000000090a .LASF131
     /tmp/ccpsoHjH.s:2737   .debug_str:0000000000000561 .LASF132
     /tmp/ccpsoHjH.s:2625   .debug_str:0000000000000206 .LASF133
     /tmp/ccpsoHjH.s:2637   .debug_str:000000000000027b .LASF134
     /tmp/ccpsoHjH.s:2587   .debug_str:000000000000005c .LASF135
     /tmp/ccpsoHjH.s:2789   .debug_str:0000000000000694 .LASF136
     /tmp/ccpsoHjH.s:73     .text:0000000000000048 .LVL3
     /tmp/ccpsoHjH.s:77     .text:000000000000004c .LVL4
     /tmp/ccpsoHjH.s:81     .text:0000000000000058 .LVL6
     /tmp/ccpsoHjH.s:285    .text:00000000000001c0 .LVL43
     /tmp/ccpsoHjH.s:86     .text:000000000000005c .LVL7
GAS LISTING /tmp/ccpsoHjH.s 			page 19


     /tmp/ccpsoHjH.s:186    .text:0000000000000144 .LVL23
     /tmp/ccpsoHjH.s:196    .text:0000000000000154 .LVL25
     /tmp/ccpsoHjH.s:94     .text:000000000000006c .LVL9
     /tmp/ccpsoHjH.s:112    .text:000000000000008c .LVL13
     /tmp/ccpsoHjH.s:201    .text:0000000000000158 .LVL26
     /tmp/ccpsoHjH.s:214    .text:0000000000000174 .LVL31
     /tmp/ccpsoHjH.s:219    .text:0000000000000178 .LVL32
     /tmp/ccpsoHjH.s:103    .text:000000000000007c .LVL11
     /tmp/ccpsoHjH.s:205    .text:0000000000000164 .LVL28
     /tmp/ccpsoHjH.s:210    .text:0000000000000168 .LVL29
     /tmp/ccpsoHjH.s:291    .text:00000000000001c8 .LVL44
     /tmp/ccpsoHjH.s:299    .text:00000000000001d8 .LVL46
     /tmp/ccpsoHjH.s:301    .text:00000000000001dc .LVL47
     /tmp/ccpsoHjH.s:319    .text:00000000000001fc .LVL49
     /tmp/ccpsoHjH.s:233    .text:0000000000000190 .LVL35
     /tmp/ccpsoHjH.s:240    .text:0000000000000194 .LVL36
     /tmp/ccpsoHjH.s:247    .text:000000000000019c .LVL37
     /tmp/ccpsoHjH.s:253    .text:00000000000001a0 .LVL38
     /tmp/ccpsoHjH.s:260    .text:00000000000001a8 .LVL39
     /tmp/ccpsoHjH.s:266    .text:00000000000001ac .LVL40
     /tmp/ccpsoHjH.s:273    .text:00000000000001b4 .LVL41
     /tmp/ccpsoHjH.s:279    .text:00000000000001b8 .LVL42
     /tmp/ccpsoHjH.s:333    .debug_info:0000000000000000 .Ldebug_info0

UNDEFINED SYMBOLS
_ZN15MemoryAllocator4initEv
_ZN5Riscv14supervisorTrapEv
HEAP_END_ADDR
HEAP_START_ADDR
_Z9mem_allocm
_ZN15MemoryAllocator8mem_freeEPKv
_ZN3TCB12createThreadEPFvvE
_ZN3TCB7runningE
_Z11workerBodyAv
_Z11printStringPKc
_Z11workerBodyBv
_Z11workerBodyCv
_Z11workerBodyDv
__putc
_ZN3TCB5yieldEv
_ZN3TCB12deleteThreadEPS_
