GAS LISTING /tmp/ccZqmWbh.s 			page 1


   1              		.file	"main.cpp"
   2              		.option pic
   3              		.option norelax
   4              		.text
   5              	.Ltext0:
   6              		.align	2
   7              		.globl	_Z14functionHelperPv
   9              	_Z14functionHelperPv:
  10              	.LFB38:
  11              		.file 1 "src/main.cpp"
   1:src/main.cpp  **** #include "../h/tcb.hpp"
   2:src/main.cpp  **** #include "../test/printing.hpp"
   3:src/main.cpp  **** 
   4:src/main.cpp  **** 
   5:src/main.cpp  **** extern void userMain();
   6:src/main.cpp  **** 
   7:src/main.cpp  **** void functionHelper(void* thr){ //omotac korisnicke funkcije
  12              		.loc 1 7 31
  13              		.cfi_startproc
  14              	.LVL0:
  15 0000 130101FF 		addi	sp,sp,-16
  16              		.cfi_def_cfa_offset 16
  17 0004 23341100 		sd	ra,8(sp)
  18 0008 23308100 		sd	s0,0(sp)
  19              		.cfi_offset 1, -8
  20              		.cfi_offset 8, -16
  21 000c 13040101 		addi	s0,sp,16
  22              		.cfi_def_cfa 8, 0
   8:src/main.cpp  ****     //Riscv::mc_sstatus(Riscv::SSTATUS_SPP);
   9:src/main.cpp  ****     userMain();
  23              		.loc 1 9 5
  24              		.loc 1 9 13 is_stmt 0
  25 0010 97000000 		call	_Z8userMainv@plt
  25      E7800000 
  26              	.LVL1:
  10:src/main.cpp  **** }
  27              		.loc 1 10 1
  28 0018 83308100 		ld	ra,8(sp)
  29              		.cfi_restore 1
  30 001c 03340100 		ld	s0,0(sp)
  31              		.cfi_restore 8
  32              		.cfi_def_cfa 2, 16
  33 0020 13010101 		addi	sp,sp,16
  34              		.cfi_def_cfa_offset 0
  35 0024 67800000 		jr	ra
  36              		.cfi_endproc
  37              	.LFE38:
  39              		.section	.rodata.str1.8,"aMS",@progbits,1
  40              		.align	3
  41              	.LC0:
  42 0000 7072696E 		.string	"print\n"
  42      740A00
  43              		.text
  44              		.align	2
  45              		.globl	main
  47              	main:
  48              	.LFB39:
GAS LISTING /tmp/ccZqmWbh.s 			page 2


  11:src/main.cpp  **** 
  12:src/main.cpp  **** int main(){
  49              		.loc 1 12 11 is_stmt 1
  50              		.cfi_startproc
  51 0028 130101FE 		addi	sp,sp,-32
  52              		.cfi_def_cfa_offset 32
  53 002c 233C1100 		sd	ra,24(sp)
  54 0030 23388100 		sd	s0,16(sp)
  55              		.cfi_offset 1, -8
  56              		.cfi_offset 8, -16
  57 0034 13040102 		addi	s0,sp,32
  58              		.cfi_def_cfa 8, 0
  13:src/main.cpp  ****     __asm__ volatile("csrw stvec, %[trap]" : : [trap] "r" (&Riscv::supervisorTrap)); //pripremanje 
  59              		.loc 1 13 5
  60              		.loc 1 13 84 is_stmt 0
  61 0038 97070000 		la	a5,_ZN5Riscv14supervisorTrapEv
  61      83B70700 
  62              	#APP
  63              	# 13 "src/main.cpp" 1
  14              	    MemoryAllocator::init();
  64              		csrw stvec, a5
  65              	# 0 "" 2
  66              		.loc 1 14 5 is_stmt 1
  67              		.loc 1 14 26 is_stmt 0
  68              	#NO_APP
  69 0044 97000000 		call	_ZN15MemoryAllocator4initEv@plt
  69      E7800000 
  70              	.LVL2:
  15:src/main.cpp  **** 
  16:src/main.cpp  ****     TCB* threads[2];
  71              		.loc 1 16 5 is_stmt 1
  17:src/main.cpp  **** 
  18:src/main.cpp  ****     thread_create(&threads[0], nullptr, nullptr);
  72              		.loc 1 18 5
  73              		.loc 1 18 18 is_stmt 0
  74 004c 13060000 		li	a2,0
  75 0050 93050000 		li	a1,0
  76 0054 130504FE 		addi	a0,s0,-32
  77 0058 97000000 		call	_Z13thread_createPP3TCBPFvPvES2_@plt
  77      E7800000 
  78              	.LVL3:
  19:src/main.cpp  ****     TCB::running = threads[0];
  79              		.loc 1 19 5 is_stmt 1
  80              		.loc 1 19 18 is_stmt 0
  81 0060 033704FE 		ld	a4,-32(s0)
  82 0064 97070000 		la	a5,_ZN3TCB7runningE
  82      83B70700 
  83 006c 23B0E700 		sd	a4,0(a5)
  20:src/main.cpp  **** 
  21:src/main.cpp  ****     thread_create(&threads[1],functionHelper, nullptr);
  84              		.loc 1 21 5 is_stmt 1
  85              		.loc 1 21 18 is_stmt 0
  86 0070 13060000 		li	a2,0
  87 0074 97050000 		lla	a1,_Z14functionHelperPv
  87      93850500 
  88 007c 130584FE 		addi	a0,s0,-24
  89 0080 97000000 		call	_Z13thread_createPP3TCBPFvPvES2_@plt
GAS LISTING /tmp/ccZqmWbh.s 			page 3


  89      E7800000 
  90              	.LVL4:
  91              	.L5:
  22:src/main.cpp  ****     while(!(threads[1]->isFinished())){
  92              		.loc 1 22 5 is_stmt 1
  93              		.loc 1 22 11
  94              		.loc 1 22 22 is_stmt 0
  95 0088 833784FE 		ld	a5,-24(s0)
  96              	.LVL5:
  97              	.LBB4:
  98              	.LBB5:
  99              		.file 2 "src/../h/tcb.hpp"
   1:src/../h/tcb.hpp **** //
   2:src/../h/tcb.hpp **** // Created by os on 5/19/24.
   3:src/../h/tcb.hpp **** //
   4:src/../h/tcb.hpp **** 
   5:src/../h/tcb.hpp **** #ifndef PROJEKAT_TCB_HPP
   6:src/../h/tcb.hpp **** #define PROJEKAT_TCB_HPP
   7:src/../h/tcb.hpp **** #include "../lib/hw.h"
   8:src/../h/tcb.hpp **** #include "scheduler.hpp"
   9:src/../h/tcb.hpp **** #include "riscv.hpp"
  10:src/../h/tcb.hpp **** 
  11:src/../h/tcb.hpp **** class TCB {
  12:src/../h/tcb.hpp **** 
  13:src/../h/tcb.hpp ****     void *operator new(size_t n);
  14:src/../h/tcb.hpp **** 
  15:src/../h/tcb.hpp ****     void *operator new[](size_t n);
  16:src/../h/tcb.hpp **** 
  17:src/../h/tcb.hpp ****     void operator delete(void *p) noexcept;
  18:src/../h/tcb.hpp **** 
  19:src/../h/tcb.hpp ****     void operator delete[](void *p) noexcept;
  20:src/../h/tcb.hpp **** 
  21:src/../h/tcb.hpp **** public:
  22:src/../h/tcb.hpp ****     ~TCB(){ delete stack;}
  23:src/../h/tcb.hpp ****     bool isFinished() const {return finished;}
 100              		.loc 2 23 30 is_stmt 1
 101              		.loc 2 23 37 is_stmt 0
 102 008c 83C70703 		lbu	a5,48(a5)
 103              	.LVL6:
 104              	.LBE5:
 105              	.LBE4:
 106              		.loc 1 22 11
 107 0090 63900702 		bnez	a5,.L4
  23:src/main.cpp  **** 
  24:src/main.cpp  **** 
  25:src/main.cpp  ****         thread_dispatch();
 108              		.loc 1 25 9 is_stmt 1
 109              		.loc 1 25 24 is_stmt 0
 110 0094 97000000 		call	_Z15thread_dispatchv@plt
 110      E7800000 
 111              	.LVL7:
  26:src/main.cpp  ****         printString("print\n");
 112              		.loc 1 26 9 is_stmt 1
 113              		.loc 1 26 20 is_stmt 0
 114 009c 17050000 		lla	a0,.LC0
 114      13050500 
 115 00a4 97000000 		call	_Z11printStringPKc@plt
GAS LISTING /tmp/ccZqmWbh.s 			page 4


 115      E7800000 
 116              	.LVL8:
 117 00ac 6FF0DFFD 		j	.L5
 118              	.L4:
  27:src/main.cpp  ****     }
  28:src/main.cpp  **** 
  29:src/main.cpp  ****     return 0;
 119              		.loc 1 29 5 is_stmt 1
  30:src/main.cpp  **** }
 120              		.loc 1 30 1 is_stmt 0
 121 00b0 13050000 		li	a0,0
 122 00b4 83308101 		ld	ra,24(sp)
 123              		.cfi_restore 1
 124 00b8 03340101 		ld	s0,16(sp)
 125              		.cfi_restore 8
 126              		.cfi_def_cfa 2, 32
 127 00bc 13010102 		addi	sp,sp,32
 128              		.cfi_def_cfa_offset 0
 129 00c0 67800000 		jr	ra
 130              		.cfi_endproc
 131              	.LFE39:
 133              	.Letext0:
 134              		.file 3 "src/../h/../lib/hw.h"
 135              		.file 4 "src/../h/MemoryAllocator.hpp"
 136              		.file 5 "src/../test/../h/syscall_c.hpp"
 137              		.file 6 "src/../test/printing.hpp"
GAS LISTING /tmp/ccZqmWbh.s 			page 5


DEFINED SYMBOLS
                            *ABS*:0000000000000000 main.cpp
     /tmp/ccZqmWbh.s:9      .text:0000000000000000 _Z14functionHelperPv
     /tmp/ccZqmWbh.s:13     .text:0000000000000000 .L0 
     /tmp/ccZqmWbh.s:15     .text:0000000000000000 .L0 
     /tmp/ccZqmWbh.s:16     .text:0000000000000004 .L0 
     /tmp/ccZqmWbh.s:19     .text:000000000000000c .L0 
     /tmp/ccZqmWbh.s:20     .text:000000000000000c .L0 
     /tmp/ccZqmWbh.s:22     .text:0000000000000010 .L0 
     /tmp/ccZqmWbh.s:24     .text:0000000000000010 .L0 
     /tmp/ccZqmWbh.s:25     .text:0000000000000010 .L0 
     /tmp/ccZqmWbh.s:28     .text:0000000000000018 .L0 
     /tmp/ccZqmWbh.s:29     .text:000000000000001c .L0 
     /tmp/ccZqmWbh.s:31     .text:0000000000000020 .L0 
     /tmp/ccZqmWbh.s:32     .text:0000000000000020 .L0 
     /tmp/ccZqmWbh.s:34     .text:0000000000000024 .L0 
     /tmp/ccZqmWbh.s:36     .text:0000000000000028 .L0 
     /tmp/ccZqmWbh.s:47     .text:0000000000000028 main
     /tmp/ccZqmWbh.s:50     .text:0000000000000028 .L0 
     /tmp/ccZqmWbh.s:51     .text:0000000000000028 .L0 
     /tmp/ccZqmWbh.s:52     .text:000000000000002c .L0 
     /tmp/ccZqmWbh.s:55     .text:0000000000000034 .L0 
     /tmp/ccZqmWbh.s:56     .text:0000000000000034 .L0 
     /tmp/ccZqmWbh.s:58     .text:0000000000000038 .L0 
     /tmp/ccZqmWbh.s:60     .text:0000000000000038 .L0 
     /tmp/ccZqmWbh.s:61     .text:0000000000000038 .L0 
     /tmp/ccZqmWbh.s:67     .text:0000000000000044 .L0 
     /tmp/ccZqmWbh.s:69     .text:0000000000000044 .L0 
     /tmp/ccZqmWbh.s:72     .text:000000000000004c .L0 
     /tmp/ccZqmWbh.s:73     .text:000000000000004c .L0 
     /tmp/ccZqmWbh.s:74     .text:000000000000004c .L0 
     /tmp/ccZqmWbh.s:80     .text:0000000000000060 .L0 
     /tmp/ccZqmWbh.s:81     .text:0000000000000060 .L0 
     /tmp/ccZqmWbh.s:85     .text:0000000000000070 .L0 
     /tmp/ccZqmWbh.s:86     .text:0000000000000070 .L0 
     /tmp/ccZqmWbh.s:93     .text:0000000000000088 .L0 
     /tmp/ccZqmWbh.s:94     .text:0000000000000088 .L0 
     /tmp/ccZqmWbh.s:95     .text:0000000000000088 .L0 
     /tmp/ccZqmWbh.s:101    .text:000000000000008c .L0 
     /tmp/ccZqmWbh.s:102    .text:000000000000008c .L0 
     /tmp/ccZqmWbh.s:107    .text:0000000000000090 .L0 
     /tmp/ccZqmWbh.s:109    .text:0000000000000094 .L0 
     /tmp/ccZqmWbh.s:110    .text:0000000000000094 .L0 
     /tmp/ccZqmWbh.s:113    .text:000000000000009c .L0 
     /tmp/ccZqmWbh.s:114    .text:000000000000009c .L0 
     /tmp/ccZqmWbh.s:120    .text:00000000000000b0 .L0 
     /tmp/ccZqmWbh.s:121    .text:00000000000000b0 .L0 
     /tmp/ccZqmWbh.s:123    .text:00000000000000b8 .L0 
     /tmp/ccZqmWbh.s:125    .text:00000000000000bc .L0 
     /tmp/ccZqmWbh.s:126    .text:00000000000000bc .L0 
     /tmp/ccZqmWbh.s:128    .text:00000000000000c0 .L0 
     /tmp/ccZqmWbh.s:130    .text:00000000000000c4 .L0 
     /tmp/ccZqmWbh.s:138    .text:00000000000000c4 .L0 
     /tmp/ccZqmWbh.s:61     .text:0000000000000038 .L0 
     /tmp/ccZqmWbh.s:82     .text:0000000000000064 .L0 
     /tmp/ccZqmWbh.s:87     .text:0000000000000074 .L0 
     /tmp/ccZqmWbh.s:41     .rodata.str1.8:0000000000000000 .LC0
GAS LISTING /tmp/ccZqmWbh.s 			page 6


     /tmp/ccZqmWbh.s:114    .text:000000000000009c .L0 
     /tmp/ccZqmWbh.s:118    .text:00000000000000b0 .L4
     /tmp/ccZqmWbh.s:91     .text:0000000000000088 .L5
     /tmp/ccZqmWbh.s:853    .debug_abbrev:0000000000000000 .Ldebug_abbrev0
     /tmp/ccZqmWbh.s:1694   .debug_str:000000000000006c .LASF86
     /tmp/ccZqmWbh.s:1760   .debug_str:000000000000030c .LASF87
     /tmp/ccZqmWbh.s:1770   .debug_str:0000000000000352 .LASF88
     /tmp/ccZqmWbh.s:5      .text:0000000000000000 .Ltext0
     /tmp/ccZqmWbh.s:133    .text:00000000000000c4 .Letext0
     /tmp/ccZqmWbh.s:1676   .debug_line:0000000000000000 .Ldebug_line0
     /tmp/ccZqmWbh.s:1778   .debug_str:000000000000039f .LASF0
     /tmp/ccZqmWbh.s:1788   .debug_str:00000000000003ce .LASF1
     /tmp/ccZqmWbh.s:1766   .debug_str:0000000000000334 .LASF2
     /tmp/ccZqmWbh.s:1716   .debug_str:00000000000001d8 .LASF3
     /tmp/ccZqmWbh.s:1748   .debug_str:00000000000002ca .LASF4
     /tmp/ccZqmWbh.s:1824   .debug_str:00000000000004cb .LASF5
     /tmp/ccZqmWbh.s:1696   .debug_str:0000000000000130 .LASF6
     /tmp/ccZqmWbh.s:1792   .debug_str:0000000000000402 .LASF7
     /tmp/ccZqmWbh.s:1776   .debug_str:000000000000038c .LASF8
     /tmp/ccZqmWbh.s:1852   .debug_str:00000000000005e0 .LASF9
     /tmp/ccZqmWbh.s:1736   .debug_str:0000000000000253 .LASF10
     /tmp/ccZqmWbh.s:1802   .debug_str:0000000000000446 .LASF11
     /tmp/ccZqmWbh.s:1844   .debug_str:000000000000058e .LASF12
     /tmp/ccZqmWbh.s:1698   .debug_str:0000000000000137 .LASF13
     /tmp/ccZqmWbh.s:1682   .debug_str:0000000000000017 .LASF14
     /tmp/ccZqmWbh.s:1702   .debug_str:000000000000014c .LASF15
     /tmp/ccZqmWbh.s:1820   .debug_str:00000000000004af .LASF16
     /tmp/ccZqmWbh.s:1708   .debug_str:0000000000000175 .LASF17
     /tmp/ccZqmWbh.s:1768   .debug_str:0000000000000342 .LASF27
     /tmp/ccZqmWbh.s:1726   .debug_str:0000000000000207 .LASF28
     /tmp/ccZqmWbh.s:1846   .debug_str:000000000000059d .LASF18
     /tmp/ccZqmWbh.s:1836   .debug_str:0000000000000547 .LASF19
     /tmp/ccZqmWbh.s:1798   .debug_str:0000000000000425 .LASF20
     /tmp/ccZqmWbh.s:1828   .debug_str:00000000000004ee .LASF30
     /tmp/ccZqmWbh.s:1848   .debug_str:00000000000005a2 .LASF32
     /tmp/ccZqmWbh.s:1752   .debug_str:00000000000002e4 .LASF21
     /tmp/ccZqmWbh.s:1680   .debug_str:0000000000000008 .LASF52
     /tmp/ccZqmWbh.s:1712   .debug_str:0000000000000199 .LASF54
     /tmp/ccZqmWbh.s:1854   .debug_str:00000000000005f0 .LASF22
     /tmp/ccZqmWbh.s:1834   .debug_str:0000000000000526 .LASF24
     /tmp/ccZqmWbh.s:1806   .debug_str:0000000000000460 .LASF23
     /tmp/ccZqmWbh.s:1866   .debug_str:0000000000000640 .LASF25
     /tmp/ccZqmWbh.s:1796   .debug_str:0000000000000420 .LASF56
     /tmp/ccZqmWbh.s:1840   .debug_str:0000000000000565 .LASF58
     /tmp/ccZqmWbh.s:1724   .debug_str:0000000000000202 .LASF26
     /tmp/ccZqmWbh.s:1688   .debug_str:000000000000004d .LASF29
     /tmp/ccZqmWbh.s:1860   .debug_str:0000000000000617 .LASF31
     /tmp/ccZqmWbh.s:1692   .debug_str:0000000000000060 .LASF33
     /tmp/ccZqmWbh.s:1732   .debug_str:000000000000022c .LASF34
     /tmp/ccZqmWbh.s:1738   .debug_str:0000000000000261 .LASF35
     /tmp/ccZqmWbh.s:1830   .debug_str:00000000000004f3 .LASF36
     /tmp/ccZqmWbh.s:1818   .debug_str:00000000000004a2 .LASF38
     /tmp/ccZqmWbh.s:1750   .debug_str:00000000000002d1 .LASF37
     /tmp/ccZqmWbh.s:1842   .debug_str:0000000000000581 .LASF39
     /tmp/ccZqmWbh.s:1742   .debug_str:0000000000000286 .LASF40
     /tmp/ccZqmWbh.s:1812   .debug_str:000000000000047b .LASF41
     /tmp/ccZqmWbh.s:1794   .debug_str:0000000000000415 .LASF44
GAS LISTING /tmp/ccZqmWbh.s 			page 7


     /tmp/ccZqmWbh.s:1734   .debug_str:000000000000023c .LASF46
     /tmp/ccZqmWbh.s:1772   .debug_str:0000000000000370 .LASF42
     /tmp/ccZqmWbh.s:1744   .debug_str:000000000000028b .LASF43
     /tmp/ccZqmWbh.s:1764   .debug_str:0000000000000327 .LASF45
     /tmp/ccZqmWbh.s:1838   .debug_str:000000000000054c .LASF47
     /tmp/ccZqmWbh.s:1720   .debug_str:00000000000001e7 .LASF89
     /tmp/ccZqmWbh.s:1758   .debug_str:00000000000002ff .LASF48
     /tmp/ccZqmWbh.s:1832   .debug_str:0000000000000503 .LASF49
     /tmp/ccZqmWbh.s:1814   .debug_str:0000000000000487 .LASF90
     /tmp/ccZqmWbh.s:1704   .debug_str:0000000000000158 .LASF50
     /tmp/ccZqmWbh.s:1684   .debug_str:0000000000000027 .LASF51
     /tmp/ccZqmWbh.s:1804   .debug_str:0000000000000455 .LASF53
     /tmp/ccZqmWbh.s:1816   .debug_str:000000000000048c .LASF55
     /tmp/ccZqmWbh.s:1822   .debug_str:00000000000004c5 .LASF57
     /tmp/ccZqmWbh.s:1774   .debug_str:000000000000037c .LASF59
     /tmp/ccZqmWbh.s:1690   .debug_str:0000000000000055 .LASF60
     /tmp/ccZqmWbh.s:1850   .debug_str:00000000000005ca .LASF61
     /tmp/ccZqmWbh.s:1714   .debug_str:00000000000001c0 .LASF91
     /tmp/ccZqmWbh.s:1754   .debug_str:00000000000002f2 .LASF62
     /tmp/ccZqmWbh.s:1784   .debug_str:00000000000003bb .LASF63
     /tmp/ccZqmWbh.s:1782   .debug_str:00000000000003b5 .LASF64
     /tmp/ccZqmWbh.s:1756   .debug_str:00000000000002f7 .LASF65
     /tmp/ccZqmWbh.s:1786   .debug_str:00000000000003c4 .LASF66
     /tmp/ccZqmWbh.s:1862   .debug_str:0000000000000624 .LASF67
     /tmp/ccZqmWbh.s:1678   .debug_str:0000000000000000 .LASF68
     /tmp/ccZqmWbh.s:1826   .debug_str:00000000000004dd .LASF69
     /tmp/ccZqmWbh.s:1762   .debug_str:0000000000000319 .LASF70
     /tmp/ccZqmWbh.s:1740   .debug_str:000000000000026d .LASF72
     /tmp/ccZqmWbh.s:1780   .debug_str:00000000000003ac .LASF71
     /tmp/ccZqmWbh.s:1722   .debug_str:00000000000001ef .LASF73
     /tmp/ccZqmWbh.s:1858   .debug_str:0000000000000609 .LASF92
     /tmp/ccZqmWbh.s:1746   .debug_str:00000000000002a2 .LASF93
     /tmp/ccZqmWbh.s:1700   .debug_str:0000000000000147 .LASF74
     /tmp/ccZqmWbh.s:48     .text:0000000000000028 .LFB39
     /tmp/ccZqmWbh.s:131    .text:00000000000000c4 .LFE39
     /tmp/ccZqmWbh.s:1730   .debug_str:0000000000000224 .LASF75
     /tmp/ccZqmWbh.s:97     .text:000000000000008c .LBB4
     /tmp/ccZqmWbh.s:105    .text:0000000000000090 .LBE4
     /tmp/ccZqmWbh.s:1642   .debug_loc:0000000000000000 .LLST1
     /tmp/ccZqmWbh.s:70     .text:000000000000004c .LVL2
     /tmp/ccZqmWbh.s:78     .text:0000000000000060 .LVL3
     /tmp/ccZqmWbh.s:90     .text:0000000000000088 .LVL4
     /tmp/ccZqmWbh.s:111    .text:000000000000009c .LVL7
     /tmp/ccZqmWbh.s:116    .text:00000000000000ac .LVL8
     /tmp/ccZqmWbh.s:1856   .debug_str:00000000000005fa .LASF76
     /tmp/ccZqmWbh.s:1800   .debug_str:0000000000000431 .LASF77
     /tmp/ccZqmWbh.s:10     .text:0000000000000000 .LFB38
     /tmp/ccZqmWbh.s:37     .text:0000000000000028 .LFE38
     /tmp/ccZqmWbh.s:1649   .debug_loc:0000000000000023 .LLST0
     /tmp/ccZqmWbh.s:26     .text:0000000000000018 .LVL1
     /tmp/ccZqmWbh.s:1810   .debug_str:0000000000000476 .LASF94
     /tmp/ccZqmWbh.s:1790   .debug_str:00000000000003e1 .LASF78
     /tmp/ccZqmWbh.s:1710   .debug_str:000000000000018b .LASF80
     /tmp/ccZqmWbh.s:1728   .debug_str:000000000000020f .LASF79
     /tmp/ccZqmWbh.s:1706   .debug_str:0000000000000165 .LASF81
     /tmp/ccZqmWbh.s:1864   .debug_str:000000000000062d .LASF82
     /tmp/ccZqmWbh.s:1686   .debug_str:0000000000000041 .LASF83
GAS LISTING /tmp/ccZqmWbh.s 			page 8


     /tmp/ccZqmWbh.s:1808   .debug_str:0000000000000469 .LASF84
     /tmp/ccZqmWbh.s:1718   .debug_str:00000000000001de .LASF85
     /tmp/ccZqmWbh.s:96     .text:000000000000008c .LVL5
     /tmp/ccZqmWbh.s:103    .text:0000000000000090 .LVL6
     /tmp/ccZqmWbh.s:14     .text:0000000000000000 .LVL0
     /tmp/ccZqmWbh.s:139    .debug_info:0000000000000000 .Ldebug_info0

UNDEFINED SYMBOLS
_Z8userMainv
_ZN5Riscv14supervisorTrapEv
_ZN15MemoryAllocator4initEv
_Z13thread_createPP3TCBPFvPvES2_
_ZN3TCB7runningE
_Z15thread_dispatchv
_Z11printStringPKc
