GAS LISTING /tmp/ccEnH1s4.s 			page 1


   1              		.file	"main.cpp"
   2              		.option pic
   3              		.option norelax
   4              		.text
   5              	.Ltext0:
   6              		.align	2
   7              		.globl	_Z14functionHelperPv
   9              	_Z14functionHelperPv:
  10              	.LFB38:
  11              		.file 1 "src/main.cpp"
   1:src/main.cpp  **** #include "../h/tcb.hpp"
   2:src/main.cpp  **** #include "../test/printing.hpp"
   3:src/main.cpp  **** 
   4:src/main.cpp  **** 
   5:src/main.cpp  **** extern void userMain();
   6:src/main.cpp  **** 
   7:src/main.cpp  **** void functionHelper(void* thr){ //omotac korisnicke funkcije
  12              		.loc 1 7 31
  13              		.cfi_startproc
  14              	.LVL0:
  15 0000 130101FF 		addi	sp,sp,-16
  16              		.cfi_def_cfa_offset 16
  17 0004 23341100 		sd	ra,8(sp)
  18 0008 23308100 		sd	s0,0(sp)
  19              		.cfi_offset 1, -8
  20              		.cfi_offset 8, -16
  21 000c 13040101 		addi	s0,sp,16
  22              		.cfi_def_cfa 8, 0
   8:src/main.cpp  ****     //__asm__ volatile ("csrc sstatus, %[mask]" : : [mask] "r"(Riscv::BitMaskSstatus::SSTATUS_SPP))
   9:src/main.cpp  ****     userMain();
  23              		.loc 1 9 5
  24              		.loc 1 9 13 is_stmt 0
  25 0010 97000000 		call	_Z8userMainv@plt
  25      E7800000 
  26              	.LVL1:
  10:src/main.cpp  **** }
  27              		.loc 1 10 1
  28 0018 83308100 		ld	ra,8(sp)
  29              		.cfi_restore 1
  30 001c 03340100 		ld	s0,0(sp)
  31              		.cfi_restore 8
  32              		.cfi_def_cfa 2, 16
  33 0020 13010101 		addi	sp,sp,16
  34              		.cfi_def_cfa_offset 0
  35 0024 67800000 		jr	ra
  36              		.cfi_endproc
  37              	.LFE38:
  39              		.align	2
  40              		.globl	main
  42              	main:
  43              	.LFB39:
  11:src/main.cpp  **** 
  12:src/main.cpp  **** int main(){
  44              		.loc 1 12 11 is_stmt 1
  45              		.cfi_startproc
  46 0028 130101FE 		addi	sp,sp,-32
  47              		.cfi_def_cfa_offset 32
GAS LISTING /tmp/ccEnH1s4.s 			page 2


  48 002c 233C1100 		sd	ra,24(sp)
  49 0030 23388100 		sd	s0,16(sp)
  50              		.cfi_offset 1, -8
  51              		.cfi_offset 8, -16
  52 0034 13040102 		addi	s0,sp,32
  53              		.cfi_def_cfa 8, 0
  13:src/main.cpp  ****     __asm__ volatile("csrw stvec, %[trap]" : : [trap] "r" (&Riscv::supervisorTrap)); //pripremanje 
  54              		.loc 1 13 5
  55              		.loc 1 13 84 is_stmt 0
  56 0038 97070000 		la	a5,_ZN5Riscv14supervisorTrapEv
  56      83B70700 
  57              	#APP
  58              	# 13 "src/main.cpp" 1
  14              	    MemoryAllocator::init();
  59              		csrw stvec, a5
  60              	# 0 "" 2
  61              		.loc 1 14 5 is_stmt 1
  62              		.loc 1 14 26 is_stmt 0
  63              	#NO_APP
  64 0044 97000000 		call	_ZN15MemoryAllocator4initEv@plt
  64      E7800000 
  65              	.LVL2:
  15:src/main.cpp  **** 
  16:src/main.cpp  ****     TCB* threads[2];
  66              		.loc 1 16 5 is_stmt 1
  17:src/main.cpp  **** 
  18:src/main.cpp  ****     thread_create(&threads[0], nullptr, nullptr);
  67              		.loc 1 18 5
  68              		.loc 1 18 18 is_stmt 0
  69 004c 13060000 		li	a2,0
  70 0050 93050000 		li	a1,0
  71 0054 130504FE 		addi	a0,s0,-32
  72 0058 97000000 		call	_Z13thread_createPP3TCBPFvPvES2_@plt
  72      E7800000 
  73              	.LVL3:
  19:src/main.cpp  ****     TCB::running = threads[0];
  74              		.loc 1 19 5 is_stmt 1
  75              		.loc 1 19 18 is_stmt 0
  76 0060 033704FE 		ld	a4,-32(s0)
  77 0064 97070000 		la	a5,_ZN3TCB7runningE
  77      83B70700 
  78 006c 23B0E700 		sd	a4,0(a5)
  20:src/main.cpp  **** 
  21:src/main.cpp  ****     thread_create(&threads[1],functionHelper, nullptr);
  79              		.loc 1 21 5 is_stmt 1
  80              		.loc 1 21 18 is_stmt 0
  81 0070 13060000 		li	a2,0
  82 0074 97050000 		lla	a1,_Z14functionHelperPv
  82      93850500 
  83 007c 130584FE 		addi	a0,s0,-24
  84 0080 97000000 		call	_Z13thread_createPP3TCBPFvPvES2_@plt
  84      E7800000 
  85              	.LVL4:
  86              	.L5:
  22:src/main.cpp  ****     while(!(threads[1]->isFinished())){
  87              		.loc 1 22 5 is_stmt 1
  88              		.loc 1 22 11
GAS LISTING /tmp/ccEnH1s4.s 			page 3


  89              		.loc 1 22 22 is_stmt 0
  90 0088 833784FE 		ld	a5,-24(s0)
  91              	.LVL5:
  92              	.LBB4:
  93              	.LBB5:
  94              		.file 2 "src/../h/tcb.hpp"
   1:src/../h/tcb.hpp **** //
   2:src/../h/tcb.hpp **** // Created by os on 5/19/24.
   3:src/../h/tcb.hpp **** //
   4:src/../h/tcb.hpp **** 
   5:src/../h/tcb.hpp **** #ifndef PROJEKAT_TCB_HPP
   6:src/../h/tcb.hpp **** #define PROJEKAT_TCB_HPP
   7:src/../h/tcb.hpp **** #include "../lib/hw.h"
   8:src/../h/tcb.hpp **** #include "scheduler.hpp"
   9:src/../h/tcb.hpp **** #include "riscv.hpp"
  10:src/../h/tcb.hpp **** 
  11:src/../h/tcb.hpp **** class TCB {
  12:src/../h/tcb.hpp **** 
  13:src/../h/tcb.hpp ****     void *operator new(size_t n);
  14:src/../h/tcb.hpp **** 
  15:src/../h/tcb.hpp ****     void *operator new[](size_t n);
  16:src/../h/tcb.hpp **** 
  17:src/../h/tcb.hpp ****     void operator delete(void *p) noexcept;
  18:src/../h/tcb.hpp **** 
  19:src/../h/tcb.hpp ****     void operator delete[](void *p) noexcept;
  20:src/../h/tcb.hpp **** 
  21:src/../h/tcb.hpp **** public:
  22:src/../h/tcb.hpp ****     ~TCB(){ delete stack;}
  23:src/../h/tcb.hpp ****     bool isFinished() const {return finished;}
  95              		.loc 2 23 30 is_stmt 1
  96              		.loc 2 23 37 is_stmt 0
  97 008c 83C78703 		lbu	a5,56(a5)
  98              	.LVL6:
  99              	.LBE5:
 100              	.LBE4:
 101              		.loc 1 22 11
 102 0090 63980700 		bnez	a5,.L4
  23:src/main.cpp  ****         thread_dispatch();
 103              		.loc 1 23 9 is_stmt 1
 104              		.loc 1 23 24 is_stmt 0
 105 0094 97000000 		call	_Z15thread_dispatchv@plt
 105      E7800000 
 106              	.LVL7:
 107 009c 6FF0DFFE 		j	.L5
 108              	.L4:
  24:src/main.cpp  ****     }
  25:src/main.cpp  **** 
  26:src/main.cpp  ****     return 0;
 109              		.loc 1 26 5 is_stmt 1
  27:src/main.cpp  **** }
 110              		.loc 1 27 1 is_stmt 0
 111 00a0 13050000 		li	a0,0
 112 00a4 83308101 		ld	ra,24(sp)
 113              		.cfi_restore 1
 114 00a8 03340101 		ld	s0,16(sp)
 115              		.cfi_restore 8
 116              		.cfi_def_cfa 2, 32
GAS LISTING /tmp/ccEnH1s4.s 			page 4


 117 00ac 13010102 		addi	sp,sp,32
 118              		.cfi_def_cfa_offset 0
 119 00b0 67800000 		jr	ra
 120              		.cfi_endproc
 121              	.LFE39:
 123              	.Letext0:
 124              		.file 3 "src/../h/../lib/hw.h"
 125              		.file 4 "src/../h/MemoryAllocator.hpp"
 126              		.file 5 "src/../test/../h/syscall_c.hpp"
GAS LISTING /tmp/ccEnH1s4.s 			page 5

