GAS LISTING /tmp/ccKNtRAi.s 			page 1


   1              		.file	"MemoryAllocator.cpp"
   2              		.option pic
   3              		.option norelax
   4              		.text
   5              	.Ltext0:
   6              		.align	2
   7              		.globl	_ZN15MemoryAllocator9mem_allocEm
   9              	_ZN15MemoryAllocator9mem_allocEm:
  10              	.LFB1:
  11              		.file 1 "src/MemoryAllocator.cpp"
   1:src/MemoryAllocator.cpp **** //
   2:src/MemoryAllocator.cpp **** // Created by os on 5/12/24.
   3:src/MemoryAllocator.cpp **** //
   4:src/MemoryAllocator.cpp **** 
   5:src/MemoryAllocator.cpp **** #include "../h/MemoryAllocator.hpp"
   6:src/MemoryAllocator.cpp **** 
   7:src/MemoryAllocator.cpp **** MemoryAllocator::FreeMem *MemoryAllocator::freememhead = nullptr;
   8:src/MemoryAllocator.cpp **** void* MemoryAllocator::mem_alloc( size_t size) {
  12              		.loc 1 8 48
  13              		.cfi_startproc
  14              	.LVL0:
  15 0000 130101FF 		addi	sp,sp,-16
  16              		.cfi_def_cfa_offset 16
  17 0004 23348100 		sd	s0,8(sp)
  18              		.cfi_offset 8, -8
  19 0008 13040101 		addi	s0,sp,16
  20              		.cfi_def_cfa 8, 0
  21 000c 93070500 		mv	a5,a0
   9:src/MemoryAllocator.cpp ****    /*FreeMem *tek = freememhead;
  10:src/MemoryAllocator.cpp ****    FreeMem *predhodni = nullptr;
  11:src/MemoryAllocator.cpp ****    FreeMem *sledeci;
  12:src/MemoryAllocator.cpp ****    size_t sizei = 0;
  13:src/MemoryAllocator.cpp **** 
  14:src/MemoryAllocator.cpp ****     if(size%MEM_BLOCK_SIZE != 0) sizei = ((size + MEM_BLOCK_SIZE - 1) / MEM_BLOCK_SIZE) * MEM_BLOCK
  15:src/MemoryAllocator.cpp ****     else sizei = size;
  16:src/MemoryAllocator.cpp **** 
  17:src/MemoryAllocator.cpp ****     if(tek && sizei > tek->size){
  18:src/MemoryAllocator.cpp ****        predhodni = tek;
  19:src/MemoryAllocator.cpp ****        for(tek = tek->next; tek && sizei > tek->size;predhodni = tek, tek = tek->next) {};
  20:src/MemoryAllocator.cpp ****    }
  21:src/MemoryAllocator.cpp **** 
  22:src/MemoryAllocator.cpp ****    if(!tek) return nullptr;
  23:src/MemoryAllocator.cpp **** 
  24:src/MemoryAllocator.cpp ****    if (tek->size > sizei){
  25:src/MemoryAllocator.cpp ****        size_t pom = tek->size - sizei - HEADER_SIZE;
  26:src/MemoryAllocator.cpp ****        tek->size = sizei;
  27:src/MemoryAllocator.cpp ****        sledeci = (FreeMem *)(sizei + HEADER_SIZE+ (size_t)tek);
  28:src/MemoryAllocator.cpp ****        * sledeci={tek->next,pom};
  29:src/MemoryAllocator.cpp **** 
  30:src/MemoryAllocator.cpp ****    }else sledeci = tek->next;
  31:src/MemoryAllocator.cpp **** 
  32:src/MemoryAllocator.cpp ****    tek->next = (FreeMem *)((size_t)tek ^ tek->size);
  33:src/MemoryAllocator.cpp ****    if(predhodni) predhodni->next = sledeci;
  34:src/MemoryAllocator.cpp ****    else freememhead = sledeci;
  35:src/MemoryAllocator.cpp ****    return (void *)(tek+1);
  36:src/MemoryAllocator.cpp **** 
  37:src/MemoryAllocator.cpp **** 
GAS LISTING /tmp/ccKNtRAi.s 			page 2


  38:src/MemoryAllocator.cpp **** */
  39:src/MemoryAllocator.cpp ****     FreeMem* tek = freememhead;
  22              		.loc 1 39 5
  23              		.loc 1 39 14 is_stmt 0
  24 0010 17050000 		ld	a0,.LANCHOR0
  24      03350500 
  25              	.LVL1:
  40:src/MemoryAllocator.cpp ****     FreeMem* predhodni = nullptr;
  26              		.loc 1 40 5 is_stmt 1
  41:src/MemoryAllocator.cpp ****     FreeMem* sledeci = nullptr;
  27              		.loc 1 41 5
  42:src/MemoryAllocator.cpp **** 
  43:src/MemoryAllocator.cpp ****     size_t sizei = 0;
  28              		.loc 1 43 5
  44:src/MemoryAllocator.cpp **** 
  45:src/MemoryAllocator.cpp ****     if(size % MEM_BLOCK_SIZE == 0)  sizei = size;
  29              		.loc 1 45 5
  30              	.LBB2:
  31              		.loc 1 45 13 is_stmt 0
  32 0018 13F7F703 		andi	a4,a5,63
  33              		.loc 1 45 5
  34 001c 63060700 		beqz	a4,.L2
  35              	.LBB3:
  46:src/MemoryAllocator.cpp ****     else {
  47:src/MemoryAllocator.cpp ****         size_t rem = size % MEM_BLOCK_SIZE;
  36              		.loc 1 47 9 is_stmt 1
  37              	.LVL2:
  48:src/MemoryAllocator.cpp ****         sizei = size - rem + MEM_BLOCK_SIZE;
  38              		.loc 1 48 9
  39              		.loc 1 48 15 is_stmt 0
  40 0020 93F707FC 		andi	a5,a5,-64
  41              	.LVL3:
  42 0024 93870704 		addi	a5,a5,64
  43              	.LVL4:
  44              	.L2:
  45              	.LBE3:
  46              	.LBE2:
  49:src/MemoryAllocator.cpp ****     }
  50:src/MemoryAllocator.cpp **** 
  51:src/MemoryAllocator.cpp **** 
  52:src/MemoryAllocator.cpp ****     if(tek && tek->size < sizei){
  47              		.loc 1 52 5 is_stmt 1
  48 0028 63080502 		beqz	a0,.L10
  49              		.loc 1 52 20 is_stmt 0 discriminator 1
  50 002c 03378500 		ld	a4,8(a0)
  51              		.loc 1 52 12 discriminator 1
  52 0030 6378F702 		bgeu	a4,a5,.L11
  53:src/MemoryAllocator.cpp ****         predhodni = tek;
  53              		.loc 1 53 9 is_stmt 1
  54              	.LVL5:
  54:src/MemoryAllocator.cpp ****         tek = tek->sled;
  55              		.loc 1 54 9
  53:src/MemoryAllocator.cpp ****         predhodni = tek;
  56              		.loc 1 53 19 is_stmt 0
  57 0034 93060500 		mv	a3,a0
  58              		.loc 1 54 13
  59 0038 03350500 		ld	a0,0(a0)
GAS LISTING /tmp/ccKNtRAi.s 			page 3


  60              	.LVL6:
  61 003c 6F00C000 		j	.L4
  62              	.L13:
  55:src/MemoryAllocator.cpp ****         for(; tek!= nullptr && tek->size < sizei; tek =tek->sled){
  56:src/MemoryAllocator.cpp ****             predhodni = tek;
  63              		.loc 1 56 13 is_stmt 1 discriminator 2
  64              	.LVL7:
  55:src/MemoryAllocator.cpp ****         for(; tek!= nullptr && tek->size < sizei; tek =tek->sled){
  65              		.loc 1 55 9 discriminator 2
  66              		.loc 1 56 23 is_stmt 0 discriminator 2
  67 0040 93060500 		mv	a3,a0
  55:src/MemoryAllocator.cpp ****         for(; tek!= nullptr && tek->size < sizei; tek =tek->sled){
  68              		.loc 1 55 55 discriminator 2
  69 0044 03350500 		ld	a0,0(a0)
  70              	.LVL8:
  71              	.L4:
  55:src/MemoryAllocator.cpp ****         for(; tek!= nullptr && tek->size < sizei; tek =tek->sled){
  72              		.loc 1 55 9 is_stmt 1 discriminator 3
  55:src/MemoryAllocator.cpp ****         for(; tek!= nullptr && tek->size < sizei; tek =tek->sled){
  73              		.loc 1 55 29 discriminator 3
  74 0048 630E0500 		beqz	a0,.L3
  55:src/MemoryAllocator.cpp ****         for(; tek!= nullptr && tek->size < sizei; tek =tek->sled){
  75              		.loc 1 55 37 is_stmt 0 discriminator 1
  76 004c 03378500 		ld	a4,8(a0)
  55:src/MemoryAllocator.cpp ****         for(; tek!= nullptr && tek->size < sizei; tek =tek->sled){
  77              		.loc 1 55 29 discriminator 1
  78 0050 E368F7FE 		bltu	a4,a5,.L13
  79 0054 6F000001 		j	.L3
  80              	.LVL9:
  81              	.L10:
  40:src/MemoryAllocator.cpp ****     FreeMem* sledeci = nullptr;
  82              		.loc 1 40 14
  83 0058 93060500 		mv	a3,a0
  84 005c 6F008000 		j	.L3
  85              	.L11:
  86 0060 93060000 		li	a3,0
  87              	.LVL10:
  88              	.L3:
  57:src/MemoryAllocator.cpp ****         };
  58:src/MemoryAllocator.cpp ****     }
  59:src/MemoryAllocator.cpp **** 
  60:src/MemoryAllocator.cpp ****     if(tek == nullptr) return nullptr; // nema mesta
  89              		.loc 1 60 5 is_stmt 1
  90              	.LBB4:
  91 0064 630C0502 		beqz	a0,.L1
  92              	.LBE4:
  61:src/MemoryAllocator.cpp ****     else if(tek->size > sizei){ // nisu iste
  93              		.loc 1 61 10
  94              	.LBB8:
  95              	.LBB5:
  96              		.loc 1 61 18 is_stmt 0
  97 0068 03378500 		ld	a4,8(a0)
  98              		.loc 1 61 10
  99 006c 63FEE702 		bleu	a4,a5,.L6
 100              	.LBB6:
  62:src/MemoryAllocator.cpp ****         size_t pom = tek->size;
 101              		.loc 1 62 9 is_stmt 1
GAS LISTING /tmp/ccKNtRAi.s 			page 4


 102              	.LVL11:
  63:src/MemoryAllocator.cpp ****         tek->size = sizei;
 103              		.loc 1 63 9
 104              		.loc 1 63 19 is_stmt 0
 105 0070 2334F500 		sd	a5,8(a0)
  64:src/MemoryAllocator.cpp ****         sledeci =(FreeMem*) (sizei + sizeof(FreeMem) + (size_t)tek);
 106              		.loc 1 64 9 is_stmt 1
 107              		.loc 1 64 54 is_stmt 0
 108 0074 B305F500 		add	a1,a0,a5
 109 0078 13860501 		addi	a2,a1,16
 110              	.LVL12:
  65:src/MemoryAllocator.cpp ****         sledeci->size = pom -sizei -sizeof(FreeMem);
 111              		.loc 1 65 9 is_stmt 1
 112              		.loc 1 65 29 is_stmt 0
 113 007c B307F740 		sub	a5,a4,a5
 114              	.LVL13:
 115              		.loc 1 65 36
 116 0080 938707FF 		addi	a5,a5,-16
 117              		.loc 1 65 23
 118 0084 2334F600 		sd	a5,8(a2)
 119              	.LVL14:
  66:src/MemoryAllocator.cpp ****         sledeci->sled = tek->sled;
 120              		.loc 1 66 9 is_stmt 1
 121              		.loc 1 66 30 is_stmt 0
 122 0088 83370500 		ld	a5,0(a0)
 123              		.loc 1 66 23
 124 008c 23B8F500 		sd	a5,16(a1)
 125              	.LVL15:
 126              	.L7:
 127              	.LBE6:
 128              	.LBE5:
 129              	.LBE8:
  67:src/MemoryAllocator.cpp ****     }
  68:src/MemoryAllocator.cpp ****     else sledeci = tek->sled; //iste su vel
  69:src/MemoryAllocator.cpp **** 
  70:src/MemoryAllocator.cpp ****     if (predhodni != nullptr) predhodni->sled = sledeci;
 130              		.loc 1 70 5 is_stmt 1
 131 0090 63800602 		beqz	a3,.L8
 132              		.loc 1 70 31 discriminator 1
 133              		.loc 1 70 47 is_stmt 0 discriminator 1
 134 0094 23B0C600 		sd	a2,0(a3)
 135              	.L9:
  71:src/MemoryAllocator.cpp ****     else freememhead = sledeci;
  72:src/MemoryAllocator.cpp **** 
  73:src/MemoryAllocator.cpp ****     return (void* ) (tek+1);
 136              		.loc 1 73 5 is_stmt 1
 137              		.loc 1 73 27 is_stmt 0
 138 0098 13050501 		addi	a0,a0,16
 139              	.LVL16:
 140              	.L1:
  74:src/MemoryAllocator.cpp **** }
 141              		.loc 1 74 1
 142 009c 03348100 		ld	s0,8(sp)
 143              		.cfi_remember_state
 144              		.cfi_restore 8
 145              		.cfi_def_cfa 2, 16
 146 00a0 13010101 		addi	sp,sp,16
GAS LISTING /tmp/ccKNtRAi.s 			page 5


 147              		.cfi_def_cfa_offset 0
 148 00a4 67800000 		jr	ra
 149              	.LVL17:
 150              	.L6:
 151              		.cfi_restore_state
 152              	.LBB9:
 153              	.LBB7:
  68:src/MemoryAllocator.cpp **** 
 154              		.loc 1 68 10 is_stmt 1
  68:src/MemoryAllocator.cpp **** 
 155              		.loc 1 68 18 is_stmt 0
 156 00a8 03360500 		ld	a2,0(a0)
 157              	.LVL18:
 158 00ac 6FF05FFE 		j	.L7
 159              	.LVL19:
 160              	.L8:
 161              	.LBE7:
 162              	.LBE9:
  71:src/MemoryAllocator.cpp ****     else freememhead = sledeci;
 163              		.loc 1 71 10 is_stmt 1
  71:src/MemoryAllocator.cpp ****     else freememhead = sledeci;
 164              		.loc 1 71 22 is_stmt 0
 165 00b0 97070000 		sd	a2,.LANCHOR0,a5
 165      23B0C700 
 166 00b8 6FF01FFE 		j	.L9
 167              		.cfi_endproc
 168              	.LFE1:
 170              		.align	2
 171              		.globl	_ZN15MemoryAllocator4initEv
 173              	_ZN15MemoryAllocator4initEv:
 174              	.LFB3:
  75:src/MemoryAllocator.cpp **** 
  76:src/MemoryAllocator.cpp **** int MemoryAllocator::mem_free(const void * addr) {
  77:src/MemoryAllocator.cpp **** 
  78:src/MemoryAllocator.cpp ****     if(addr == nullptr || addr < HEAP_START_ADDR || addr >= HEAP_END_ADDR) return -1;
  79:src/MemoryAllocator.cpp **** 
  80:src/MemoryAllocator.cpp ****     FreeMem* tek = (FreeMem*)((char*)addr - sizeof(FreeMem));
  81:src/MemoryAllocator.cpp **** 
  82:src/MemoryAllocator.cpp ****     if (freememhead == nullptr) {
  83:src/MemoryAllocator.cpp ****         freememhead = tek;
  84:src/MemoryAllocator.cpp ****         tek->sled = nullptr;
  85:src/MemoryAllocator.cpp ****     }
  86:src/MemoryAllocator.cpp ****     else if((char*)tek < (char*)freememhead) {
  87:src/MemoryAllocator.cpp ****         tek->sled = freememhead;
  88:src/MemoryAllocator.cpp ****         freememhead = tek;
  89:src/MemoryAllocator.cpp ****         join(freememhead);
  90:src/MemoryAllocator.cpp ****     }
  91:src/MemoryAllocator.cpp ****     else {
  92:src/MemoryAllocator.cpp ****         //Find place in list
  93:src/MemoryAllocator.cpp ****         FreeMem* currFree = freememhead;
  94:src/MemoryAllocator.cpp ****         for(currFree = freememhead; currFree->sled && (size_t)(currFree->sled) < (size_t) tek; curr
  95:src/MemoryAllocator.cpp **** 
  96:src/MemoryAllocator.cpp ****         tek->sled = currFree->sled;
  97:src/MemoryAllocator.cpp ****         currFree->sled = tek;
  98:src/MemoryAllocator.cpp **** 
  99:src/MemoryAllocator.cpp ****         join(tek);
 100:src/MemoryAllocator.cpp ****         join(currFree);
GAS LISTING /tmp/ccKNtRAi.s 			page 6


 101:src/MemoryAllocator.cpp ****     }
 102:src/MemoryAllocator.cpp ****     return 0;
 103:src/MemoryAllocator.cpp **** }
 104:src/MemoryAllocator.cpp **** void MemoryAllocator::init() {
 175              		.loc 1 104 30 is_stmt 1
 176              		.cfi_startproc
 177 00bc 130101FF 		addi	sp,sp,-16
 178              		.cfi_def_cfa_offset 16
 179 00c0 23348100 		sd	s0,8(sp)
 180              		.cfi_offset 8, -8
 181 00c4 13040101 		addi	s0,sp,16
 182              		.cfi_def_cfa 8, 0
 105:src/MemoryAllocator.cpp ****     MemoryAllocator::freememhead = (MemoryAllocator::FreeMem*) HEAP_START_ADDR;
 183              		.loc 1 105 5
 184              		.loc 1 105 34 is_stmt 0
 185 00c8 97070000 		la	a5,HEAP_START_ADDR
 185      83B70700 
 186 00d0 03B70700 		ld	a4,0(a5)
 187 00d4 97070000 		sd	a4,.LANCHOR0,a5
 187      23B0E700 
 106:src/MemoryAllocator.cpp ****     * MemoryAllocator::freememhead = {nullptr, (uint64) HEAP_END_ADDR - (uint64) HEAP_START_ADDR - 
 188              		.loc 1 106 5 is_stmt 1
 189              		.loc 1 106 71 is_stmt 0
 190 00dc 97070000 		la	a5,HEAP_END_ADDR
 190      83B70700 
 191 00e4 83B70700 		ld	a5,0(a5)
 192 00e8 B387E740 		sub	a5,a5,a4
 193              		.loc 1 106 98
 194 00ec 938707FF 		addi	a5,a5,-16
 195              		.loc 1 106 36
 196 00f0 23300700 		sd	zero,0(a4)
 197 00f4 2334F700 		sd	a5,8(a4)
 107:src/MemoryAllocator.cpp **** };
 198              		.loc 1 107 1
 199 00f8 03348100 		ld	s0,8(sp)
 200              		.cfi_restore 8
 201              		.cfi_def_cfa 2, 16
 202 00fc 13010101 		addi	sp,sp,16
 203              		.cfi_def_cfa_offset 0
 204 0100 67800000 		jr	ra
 205              		.cfi_endproc
 206              	.LFE3:
 208              		.align	2
 209              		.globl	_ZN15MemoryAllocator4joinEPNS_7FreeMemE
 211              	_ZN15MemoryAllocator4joinEPNS_7FreeMemE:
 212              	.LFB4:
 108:src/MemoryAllocator.cpp **** 
 109:src/MemoryAllocator.cpp **** 
 110:src/MemoryAllocator.cpp **** int MemoryAllocator::join (FreeMem* tek) {
 213              		.loc 1 110 42 is_stmt 1
 214              		.cfi_startproc
 215              	.LVL20:
 216 0104 130101FF 		addi	sp,sp,-16
 217              		.cfi_def_cfa_offset 16
 218 0108 23348100 		sd	s0,8(sp)
 219              		.cfi_offset 8, -8
 220 010c 13040101 		addi	s0,sp,16
GAS LISTING /tmp/ccKNtRAi.s 			page 7


 221              		.cfi_def_cfa 8, 0
 111:src/MemoryAllocator.cpp **** 
 112:src/MemoryAllocator.cpp ****     if(tek->sled && (size_t)tek + sizeof(FreeMem) + tek->size == (size_t)tek->sled) {
 222              		.loc 1 112 5
 223              		.loc 1 112 13 is_stmt 0
 224 0110 83370500 		ld	a5,0(a0)
 225              		.loc 1 112 5
 226 0114 638A0700 		beqz	a5,.L17
 227              		.loc 1 112 58 discriminator 1
 228 0118 83368500 		ld	a3,8(a0)
 229              		.loc 1 112 51 discriminator 1
 230 011c 3307D500 		add	a4,a0,a3
 231 0120 13070701 		addi	a4,a4,16
 232              		.loc 1 112 18 discriminator 1
 233 0124 630AF700 		beq	a4,a5,.L19
 234              	.L17:
 113:src/MemoryAllocator.cpp **** 
 114:src/MemoryAllocator.cpp ****         tek->size += tek->sled->size + sizeof(FreeMem);
 115:src/MemoryAllocator.cpp ****         tek->sled = tek->sled->sled;
 116:src/MemoryAllocator.cpp ****     }
 117:src/MemoryAllocator.cpp ****     return 0;
 235              		.loc 1 117 5 is_stmt 1
 118:src/MemoryAllocator.cpp **** }
 236              		.loc 1 118 1 is_stmt 0
 237 0128 13050000 		li	a0,0
 238              	.LVL21:
 239 012c 03348100 		ld	s0,8(sp)
 240              		.cfi_remember_state
 241              		.cfi_restore 8
 242              		.cfi_def_cfa 2, 16
 243 0130 13010101 		addi	sp,sp,16
 244              		.cfi_def_cfa_offset 0
 245 0134 67800000 		jr	ra
 246              	.LVL22:
 247              	.L19:
 248              		.cfi_restore_state
 114:src/MemoryAllocator.cpp ****         tek->sled = tek->sled->sled;
 249              		.loc 1 114 9 is_stmt 1
 114:src/MemoryAllocator.cpp ****         tek->sled = tek->sled->sled;
 250              		.loc 1 114 33 is_stmt 0
 251 0138 03B78700 		ld	a4,8(a5)
 114:src/MemoryAllocator.cpp ****         tek->sled = tek->sled->sled;
 252              		.loc 1 114 19
 253 013c B386E600 		add	a3,a3,a4
 254 0140 93860601 		addi	a3,a3,16
 255 0144 2334D500 		sd	a3,8(a0)
 115:src/MemoryAllocator.cpp ****     }
 256              		.loc 1 115 9 is_stmt 1
 115:src/MemoryAllocator.cpp ****     }
 257              		.loc 1 115 32 is_stmt 0
 258 0148 83B70700 		ld	a5,0(a5)
 115:src/MemoryAllocator.cpp ****     }
 259              		.loc 1 115 19
 260 014c 2330F500 		sd	a5,0(a0)
 261 0150 6FF09FFD 		j	.L17
 262              		.cfi_endproc
 263              	.LFE4:
GAS LISTING /tmp/ccKNtRAi.s 			page 8


 265              		.align	2
 266              		.globl	_ZN15MemoryAllocator8mem_freeEPKv
 268              	_ZN15MemoryAllocator8mem_freeEPKv:
 269              	.LFB2:
  76:src/MemoryAllocator.cpp **** 
 270              		.loc 1 76 50 is_stmt 1
 271              		.cfi_startproc
 272              	.LVL23:
  78:src/MemoryAllocator.cpp **** 
 273              		.loc 1 78 5
 274 0154 6302050C 		beqz	a0,.L25
 275 0158 13070500 		mv	a4,a0
  78:src/MemoryAllocator.cpp **** 
 276              		.loc 1 78 32 is_stmt 0 discriminator 2
 277 015c 97070000 		la	a5,HEAP_START_ADDR
 277      83B70700 
 278 0164 83B70700 		ld	a5,0(a5)
  78:src/MemoryAllocator.cpp **** 
 279              		.loc 1 78 24 discriminator 2
 280 0168 636CF50A 		bgtu	a5,a0,.L26
  78:src/MemoryAllocator.cpp **** 
 281              		.loc 1 78 58 discriminator 4
 282 016c 97070000 		la	a5,HEAP_END_ADDR
 282      83B70700 
 283 0174 83B70700 		ld	a5,0(a5)
  78:src/MemoryAllocator.cpp **** 
 284              		.loc 1 78 50 discriminator 4
 285 0178 6378F50A 		bleu	a5,a0,.L27
  80:src/MemoryAllocator.cpp **** 
 286              		.loc 1 80 5 is_stmt 1
  80:src/MemoryAllocator.cpp **** 
 287              		.loc 1 80 14 is_stmt 0
 288 017c 130505FF 		addi	a0,a0,-16
 289              	.LVL24:
  82:src/MemoryAllocator.cpp ****         freememhead = tek;
 290              		.loc 1 82 5 is_stmt 1
 291              	.LBB10:
  82:src/MemoryAllocator.cpp ****         freememhead = tek;
 292              		.loc 1 82 21 is_stmt 0
 293 0180 97070000 		ld	a5,.LANCHOR0
 293      83B70700 
  82:src/MemoryAllocator.cpp ****         freememhead = tek;
 294              		.loc 1 82 5
 295 0188 63800706 		beqz	a5,.L31
 296              	.LBE10:
  76:src/MemoryAllocator.cpp **** 
 297              		.loc 1 76 50
 298 018c 130101FE 		addi	sp,sp,-32
 299              		.cfi_def_cfa_offset 32
 300 0190 233C1100 		sd	ra,24(sp)
 301 0194 23388100 		sd	s0,16(sp)
 302 0198 23349100 		sd	s1,8(sp)
 303              		.cfi_offset 1, -8
 304              		.cfi_offset 8, -16
 305              		.cfi_offset 9, -24
 306 019c 13040102 		addi	s0,sp,32
 307              		.cfi_def_cfa 8, 0
GAS LISTING /tmp/ccKNtRAi.s 			page 9


  86:src/MemoryAllocator.cpp ****         tek->sled = freememhead;
 308              		.loc 1 86 10 is_stmt 1
 309              	.LBB15:
 310              	.LBB11:
 311 01a0 636EF504 		bgtu	a5,a0,.L32
 312              	.L23:
 313              	.LVL25:
 314              	.LBB12:
  94:src/MemoryAllocator.cpp **** 
 315              		.loc 1 94 52 discriminator 4
 316 01a4 93840700 		mv	s1,a5
  94:src/MemoryAllocator.cpp **** 
 317              		.loc 1 94 47 is_stmt 0 discriminator 4
 318 01a8 83B70700 		ld	a5,0(a5)
 319              	.LVL26:
  94:src/MemoryAllocator.cpp **** 
 320              		.loc 1 94 52 discriminator 4
 321 01ac 63840700 		beqz	a5,.L24
  94:src/MemoryAllocator.cpp **** 
 322              		.loc 1 94 52 discriminator 2
 323 01b0 E3EAA7FE 		bltu	a5,a0,.L23
 324              	.L24:
  96:src/MemoryAllocator.cpp ****         currFree->sled = tek;
 325              		.loc 1 96 9 is_stmt 1
  96:src/MemoryAllocator.cpp ****         currFree->sled = tek;
 326              		.loc 1 96 19 is_stmt 0
 327 01b4 2338F7FE 		sd	a5,-16(a4)
  97:src/MemoryAllocator.cpp **** 
 328              		.loc 1 97 9 is_stmt 1
  97:src/MemoryAllocator.cpp **** 
 329              		.loc 1 97 24 is_stmt 0
 330 01b8 23B0A400 		sd	a0,0(s1)
  99:src/MemoryAllocator.cpp ****         join(currFree);
 331              		.loc 1 99 9 is_stmt 1
  99:src/MemoryAllocator.cpp ****         join(currFree);
 332              		.loc 1 99 13 is_stmt 0
 333 01bc 97000000 		call	_ZN15MemoryAllocator4joinEPNS_7FreeMemE
 333      E7800000 
 334              	.LVL27:
 100:src/MemoryAllocator.cpp ****     }
 335              		.loc 1 100 9 is_stmt 1
 100:src/MemoryAllocator.cpp ****     }
 336              		.loc 1 100 13 is_stmt 0
 337 01c4 13850400 		mv	a0,s1
 338 01c8 97000000 		call	_ZN15MemoryAllocator4joinEPNS_7FreeMemE
 338      E7800000 
 339              	.LVL28:
 340              	.LBE12:
 341              	.LBE11:
 342              	.LBE15:
 102:src/MemoryAllocator.cpp **** }
 343              		.loc 1 102 12
 344 01d0 13050000 		li	a0,0
 345              	.LVL29:
 346              	.L21:
 103:src/MemoryAllocator.cpp **** void MemoryAllocator::init() {
 347              		.loc 1 103 1
GAS LISTING /tmp/ccKNtRAi.s 			page 10


 348 01d4 83308101 		ld	ra,24(sp)
 349              		.cfi_restore 1
 350 01d8 03340101 		ld	s0,16(sp)
 351              		.cfi_restore 8
 352              		.cfi_def_cfa 2, 32
 353 01dc 83348100 		ld	s1,8(sp)
 354              		.cfi_restore 9
 355 01e0 13010102 		addi	sp,sp,32
 356              		.cfi_def_cfa_offset 0
 357 01e4 67800000 		jr	ra
 358              	.LVL30:
 359              	.L31:
 360              	.LBB16:
  83:src/MemoryAllocator.cpp ****         tek->sled = nullptr;
 361              		.loc 1 83 9 is_stmt 1
  83:src/MemoryAllocator.cpp ****         tek->sled = nullptr;
 362              		.loc 1 83 21 is_stmt 0
 363 01e8 97070000 		sd	a0,.LANCHOR0,a5
 363      23B0A700 
  84:src/MemoryAllocator.cpp ****     }
 364              		.loc 1 84 9 is_stmt 1
  84:src/MemoryAllocator.cpp ****     }
 365              		.loc 1 84 19 is_stmt 0
 366 01f0 233807FE 		sd	zero,-16(a4)
 367              	.LBE16:
 102:src/MemoryAllocator.cpp **** }
 368              		.loc 1 102 12
 369 01f4 13050000 		li	a0,0
 370              	.LVL31:
 371              	.LBB17:
 372 01f8 67800000 		ret
 373              	.LVL32:
 374              	.L32:
 375              		.cfi_def_cfa_register 8
 376              		.cfi_offset 1, -8
 377              		.cfi_offset 8, -16
 378              		.cfi_offset 9, -24
 379              	.LBB13:
  87:src/MemoryAllocator.cpp ****         freememhead = tek;
 380              		.loc 1 87 9 is_stmt 1
  87:src/MemoryAllocator.cpp ****         freememhead = tek;
 381              		.loc 1 87 19 is_stmt 0
 382 01fc 2338F7FE 		sd	a5,-16(a4)
  88:src/MemoryAllocator.cpp ****         join(freememhead);
 383              		.loc 1 88 9 is_stmt 1
  88:src/MemoryAllocator.cpp ****         join(freememhead);
 384              		.loc 1 88 21 is_stmt 0
 385 0200 97070000 		sd	a0,.LANCHOR0,a5
 385      23B0A700 
  89:src/MemoryAllocator.cpp ****     }
 386              		.loc 1 89 9 is_stmt 1
  89:src/MemoryAllocator.cpp ****     }
 387              		.loc 1 89 13 is_stmt 0
 388 0208 97000000 		call	_ZN15MemoryAllocator4joinEPNS_7FreeMemE
 388      E7800000 
 389              	.LVL33:
 390              	.LBE13:
GAS LISTING /tmp/ccKNtRAi.s 			page 11


 391              	.LBE17:
 102:src/MemoryAllocator.cpp **** }
 392              		.loc 1 102 12
 393 0210 13050000 		li	a0,0
 394              	.LBB18:
 395              	.LBB14:
 396 0214 6FF01FFC 		j	.L21
 397              	.LVL34:
 398              	.L25:
 399              		.cfi_def_cfa_register 2
 400              		.cfi_restore 1
 401              		.cfi_restore 8
 402              		.cfi_restore 9
 403              	.LBE14:
 404              	.LBE18:
  78:src/MemoryAllocator.cpp **** 
 405              		.loc 1 78 84
 406 0218 1305F0FF 		li	a0,-1
 407              	.LVL35:
 408 021c 67800000 		ret
 409              	.LVL36:
 410              	.L26:
 411 0220 1305F0FF 		li	a0,-1
 412              	.LVL37:
 413 0224 67800000 		ret
 414              	.LVL38:
 415              	.L27:
 416 0228 1305F0FF 		li	a0,-1
 417              	.LVL39:
 103:src/MemoryAllocator.cpp **** void MemoryAllocator::init() {
 418              		.loc 1 103 1
 419 022c 67800000 		ret
 420              		.cfi_endproc
 421              	.LFE2:
 423              		.globl	_ZN15MemoryAllocator11freememheadE
 424              		.bss
 425              		.align	3
 426              		.set	.LANCHOR0,. + 0
 429              	_ZN15MemoryAllocator11freememheadE:
 430 0000 00000000 		.zero	8
 430      00000000 
 431              		.text
 432              	.Letext0:
 433              		.file 2 "src/../h/../lib/hw.h"
 434              		.file 3 "src/../h/MemoryAllocator.hpp"
GAS LISTING /tmp/ccKNtRAi.s 			page 12


DEFINED SYMBOLS
                            *ABS*:0000000000000000 MemoryAllocator.cpp
     /tmp/ccKNtRAi.s:9      .text:0000000000000000 _ZN15MemoryAllocator9mem_allocEm
     /tmp/ccKNtRAi.s:13     .text:0000000000000000 .L0 
     /tmp/ccKNtRAi.s:15     .text:0000000000000000 .L0 
     /tmp/ccKNtRAi.s:16     .text:0000000000000004 .L0 
     /tmp/ccKNtRAi.s:18     .text:0000000000000008 .L0 
     /tmp/ccKNtRAi.s:20     .text:000000000000000c .L0 
     /tmp/ccKNtRAi.s:23     .text:0000000000000010 .L0 
     /tmp/ccKNtRAi.s:24     .text:0000000000000010 .L0 
     /tmp/ccKNtRAi.s:27     .text:0000000000000018 .L0 
     /tmp/ccKNtRAi.s:28     .text:0000000000000018 .L0 
     /tmp/ccKNtRAi.s:29     .text:0000000000000018 .L0 
     /tmp/ccKNtRAi.s:31     .text:0000000000000018 .L0 
     /tmp/ccKNtRAi.s:32     .text:0000000000000018 .L0 
     /tmp/ccKNtRAi.s:34     .text:000000000000001c .L0 
     /tmp/ccKNtRAi.s:38     .text:0000000000000020 .L0 
     /tmp/ccKNtRAi.s:39     .text:0000000000000020 .L0 
     /tmp/ccKNtRAi.s:40     .text:0000000000000020 .L0 
     /tmp/ccKNtRAi.s:48     .text:0000000000000028 .L0 
     /tmp/ccKNtRAi.s:50     .text:000000000000002c .L0 
     /tmp/ccKNtRAi.s:52     .text:0000000000000030 .L0 
     /tmp/ccKNtRAi.s:55     .text:0000000000000034 .L0 
     /tmp/ccKNtRAi.s:56     .text:0000000000000034 .L0 
     /tmp/ccKNtRAi.s:57     .text:0000000000000034 .L0 
     /tmp/ccKNtRAi.s:59     .text:0000000000000038 .L0 
     /tmp/ccKNtRAi.s:65     .text:0000000000000040 .L0 
     /tmp/ccKNtRAi.s:66     .text:0000000000000040 .L0 
     /tmp/ccKNtRAi.s:67     .text:0000000000000040 .L0 
     /tmp/ccKNtRAi.s:69     .text:0000000000000044 .L0 
     /tmp/ccKNtRAi.s:73     .text:0000000000000048 .L0 
     /tmp/ccKNtRAi.s:74     .text:0000000000000048 .L0 
     /tmp/ccKNtRAi.s:76     .text:000000000000004c .L0 
     /tmp/ccKNtRAi.s:78     .text:0000000000000050 .L0 
     /tmp/ccKNtRAi.s:83     .text:0000000000000058 .L0 
     /tmp/ccKNtRAi.s:91     .text:0000000000000064 .L0 
     /tmp/ccKNtRAi.s:96     .text:0000000000000068 .L0 
     /tmp/ccKNtRAi.s:97     .text:0000000000000068 .L0 
     /tmp/ccKNtRAi.s:99     .text:000000000000006c .L0 
     /tmp/ccKNtRAi.s:103    .text:0000000000000070 .L0 
     /tmp/ccKNtRAi.s:104    .text:0000000000000070 .L0 
     /tmp/ccKNtRAi.s:105    .text:0000000000000070 .L0 
     /tmp/ccKNtRAi.s:107    .text:0000000000000074 .L0 
     /tmp/ccKNtRAi.s:108    .text:0000000000000074 .L0 
     /tmp/ccKNtRAi.s:112    .text:000000000000007c .L0 
     /tmp/ccKNtRAi.s:113    .text:000000000000007c .L0 
     /tmp/ccKNtRAi.s:116    .text:0000000000000080 .L0 
     /tmp/ccKNtRAi.s:118    .text:0000000000000084 .L0 
     /tmp/ccKNtRAi.s:121    .text:0000000000000088 .L0 
     /tmp/ccKNtRAi.s:122    .text:0000000000000088 .L0 
     /tmp/ccKNtRAi.s:124    .text:000000000000008c .L0 
     /tmp/ccKNtRAi.s:131    .text:0000000000000090 .L0 
     /tmp/ccKNtRAi.s:133    .text:0000000000000094 .L0 
     /tmp/ccKNtRAi.s:134    .text:0000000000000094 .L0 
     /tmp/ccKNtRAi.s:137    .text:0000000000000098 .L0 
     /tmp/ccKNtRAi.s:138    .text:0000000000000098 .L0 
     /tmp/ccKNtRAi.s:142    .text:000000000000009c .L0 
GAS LISTING /tmp/ccKNtRAi.s 			page 13


     /tmp/ccKNtRAi.s:143    .text:00000000000000a0 .L0 
     /tmp/ccKNtRAi.s:144    .text:00000000000000a0 .L0 
     /tmp/ccKNtRAi.s:145    .text:00000000000000a0 .L0 
     /tmp/ccKNtRAi.s:147    .text:00000000000000a4 .L0 
     /tmp/ccKNtRAi.s:151    .text:00000000000000a8 .L0 
     /tmp/ccKNtRAi.s:155    .text:00000000000000a8 .L0 
     /tmp/ccKNtRAi.s:156    .text:00000000000000a8 .L0 
     /tmp/ccKNtRAi.s:164    .text:00000000000000b0 .L0 
     /tmp/ccKNtRAi.s:165    .text:00000000000000b0 .L0 
     /tmp/ccKNtRAi.s:167    .text:00000000000000bc .L0 
     /tmp/ccKNtRAi.s:173    .text:00000000000000bc _ZN15MemoryAllocator4initEv
     /tmp/ccKNtRAi.s:176    .text:00000000000000bc .L0 
     /tmp/ccKNtRAi.s:177    .text:00000000000000bc .L0 
     /tmp/ccKNtRAi.s:178    .text:00000000000000c0 .L0 
     /tmp/ccKNtRAi.s:180    .text:00000000000000c4 .L0 
     /tmp/ccKNtRAi.s:182    .text:00000000000000c8 .L0 
     /tmp/ccKNtRAi.s:184    .text:00000000000000c8 .L0 
     /tmp/ccKNtRAi.s:185    .text:00000000000000c8 .L0 
     /tmp/ccKNtRAi.s:189    .text:00000000000000dc .L0 
     /tmp/ccKNtRAi.s:190    .text:00000000000000dc .L0 
     /tmp/ccKNtRAi.s:194    .text:00000000000000ec .L0 
     /tmp/ccKNtRAi.s:196    .text:00000000000000f0 .L0 
     /tmp/ccKNtRAi.s:199    .text:00000000000000f8 .L0 
     /tmp/ccKNtRAi.s:200    .text:00000000000000fc .L0 
     /tmp/ccKNtRAi.s:201    .text:00000000000000fc .L0 
     /tmp/ccKNtRAi.s:203    .text:0000000000000100 .L0 
     /tmp/ccKNtRAi.s:205    .text:0000000000000104 .L0 
     /tmp/ccKNtRAi.s:211    .text:0000000000000104 _ZN15MemoryAllocator4joinEPNS_7FreeMemE
     /tmp/ccKNtRAi.s:214    .text:0000000000000104 .L0 
     /tmp/ccKNtRAi.s:216    .text:0000000000000104 .L0 
     /tmp/ccKNtRAi.s:217    .text:0000000000000108 .L0 
     /tmp/ccKNtRAi.s:219    .text:000000000000010c .L0 
     /tmp/ccKNtRAi.s:221    .text:0000000000000110 .L0 
     /tmp/ccKNtRAi.s:223    .text:0000000000000110 .L0 
     /tmp/ccKNtRAi.s:224    .text:0000000000000110 .L0 
     /tmp/ccKNtRAi.s:226    .text:0000000000000114 .L0 
     /tmp/ccKNtRAi.s:228    .text:0000000000000118 .L0 
     /tmp/ccKNtRAi.s:230    .text:000000000000011c .L0 
     /tmp/ccKNtRAi.s:233    .text:0000000000000124 .L0 
     /tmp/ccKNtRAi.s:236    .text:0000000000000128 .L0 
     /tmp/ccKNtRAi.s:237    .text:0000000000000128 .L0 
     /tmp/ccKNtRAi.s:240    .text:0000000000000130 .L0 
     /tmp/ccKNtRAi.s:241    .text:0000000000000130 .L0 
     /tmp/ccKNtRAi.s:242    .text:0000000000000130 .L0 
     /tmp/ccKNtRAi.s:244    .text:0000000000000134 .L0 
     /tmp/ccKNtRAi.s:248    .text:0000000000000138 .L0 
     /tmp/ccKNtRAi.s:250    .text:0000000000000138 .L0 
     /tmp/ccKNtRAi.s:251    .text:0000000000000138 .L0 
     /tmp/ccKNtRAi.s:253    .text:000000000000013c .L0 
     /tmp/ccKNtRAi.s:257    .text:0000000000000148 .L0 
     /tmp/ccKNtRAi.s:258    .text:0000000000000148 .L0 
     /tmp/ccKNtRAi.s:260    .text:000000000000014c .L0 
     /tmp/ccKNtRAi.s:262    .text:0000000000000154 .L0 
     /tmp/ccKNtRAi.s:268    .text:0000000000000154 _ZN15MemoryAllocator8mem_freeEPKv
     /tmp/ccKNtRAi.s:271    .text:0000000000000154 .L0 
     /tmp/ccKNtRAi.s:273    .text:0000000000000154 .L0 
     /tmp/ccKNtRAi.s:274    .text:0000000000000154 .L0 
GAS LISTING /tmp/ccKNtRAi.s 			page 14


     /tmp/ccKNtRAi.s:277    .text:000000000000015c .L0 
     /tmp/ccKNtRAi.s:280    .text:0000000000000168 .L0 
     /tmp/ccKNtRAi.s:282    .text:000000000000016c .L0 
     /tmp/ccKNtRAi.s:285    .text:0000000000000178 .L0 
     /tmp/ccKNtRAi.s:287    .text:000000000000017c .L0 
     /tmp/ccKNtRAi.s:288    .text:000000000000017c .L0 
     /tmp/ccKNtRAi.s:292    .text:0000000000000180 .L0 
     /tmp/ccKNtRAi.s:293    .text:0000000000000180 .L0 
     /tmp/ccKNtRAi.s:295    .text:0000000000000188 .L0 
     /tmp/ccKNtRAi.s:298    .text:000000000000018c .L0 
     /tmp/ccKNtRAi.s:299    .text:0000000000000190 .L0 
     /tmp/ccKNtRAi.s:303    .text:000000000000019c .L0 
     /tmp/ccKNtRAi.s:304    .text:000000000000019c .L0 
     /tmp/ccKNtRAi.s:305    .text:000000000000019c .L0 
     /tmp/ccKNtRAi.s:307    .text:00000000000001a0 .L0 
     /tmp/ccKNtRAi.s:311    .text:00000000000001a0 .L0 
     /tmp/ccKNtRAi.s:316    .text:00000000000001a4 .L0 
     /tmp/ccKNtRAi.s:318    .text:00000000000001a8 .L0 
     /tmp/ccKNtRAi.s:321    .text:00000000000001ac .L0 
     /tmp/ccKNtRAi.s:323    .text:00000000000001b0 .L0 
     /tmp/ccKNtRAi.s:326    .text:00000000000001b4 .L0 
     /tmp/ccKNtRAi.s:327    .text:00000000000001b4 .L0 
     /tmp/ccKNtRAi.s:329    .text:00000000000001b8 .L0 
     /tmp/ccKNtRAi.s:330    .text:00000000000001b8 .L0 
     /tmp/ccKNtRAi.s:332    .text:00000000000001bc .L0 
     /tmp/ccKNtRAi.s:333    .text:00000000000001bc .L0 
     /tmp/ccKNtRAi.s:336    .text:00000000000001c4 .L0 
     /tmp/ccKNtRAi.s:337    .text:00000000000001c4 .L0 
     /tmp/ccKNtRAi.s:344    .text:00000000000001d0 .L0 
     /tmp/ccKNtRAi.s:348    .text:00000000000001d4 .L0 
     /tmp/ccKNtRAi.s:349    .text:00000000000001d8 .L0 
     /tmp/ccKNtRAi.s:351    .text:00000000000001dc .L0 
     /tmp/ccKNtRAi.s:352    .text:00000000000001dc .L0 
     /tmp/ccKNtRAi.s:354    .text:00000000000001e0 .L0 
     /tmp/ccKNtRAi.s:356    .text:00000000000001e4 .L0 
     /tmp/ccKNtRAi.s:362    .text:00000000000001e8 .L0 
     /tmp/ccKNtRAi.s:363    .text:00000000000001e8 .L0 
     /tmp/ccKNtRAi.s:365    .text:00000000000001f0 .L0 
     /tmp/ccKNtRAi.s:366    .text:00000000000001f0 .L0 
     /tmp/ccKNtRAi.s:369    .text:00000000000001f4 .L0 
     /tmp/ccKNtRAi.s:375    .text:00000000000001fc .L0 
     /tmp/ccKNtRAi.s:376    .text:00000000000001fc .L0 
     /tmp/ccKNtRAi.s:377    .text:00000000000001fc .L0 
     /tmp/ccKNtRAi.s:378    .text:00000000000001fc .L0 
     /tmp/ccKNtRAi.s:381    .text:00000000000001fc .L0 
     /tmp/ccKNtRAi.s:382    .text:00000000000001fc .L0 
     /tmp/ccKNtRAi.s:384    .text:0000000000000200 .L0 
     /tmp/ccKNtRAi.s:385    .text:0000000000000200 .L0 
     /tmp/ccKNtRAi.s:387    .text:0000000000000208 .L0 
     /tmp/ccKNtRAi.s:388    .text:0000000000000208 .L0 
     /tmp/ccKNtRAi.s:393    .text:0000000000000210 .L0 
     /tmp/ccKNtRAi.s:399    .text:0000000000000218 .L0 
     /tmp/ccKNtRAi.s:400    .text:0000000000000218 .L0 
     /tmp/ccKNtRAi.s:401    .text:0000000000000218 .L0 
     /tmp/ccKNtRAi.s:402    .text:0000000000000218 .L0 
     /tmp/ccKNtRAi.s:406    .text:0000000000000218 .L0 
     /tmp/ccKNtRAi.s:419    .text:000000000000022c .L0 
GAS LISTING /tmp/ccKNtRAi.s 			page 15


     /tmp/ccKNtRAi.s:420    .text:0000000000000230 .L0 
     /tmp/ccKNtRAi.s:429    .bss:0000000000000000 _ZN15MemoryAllocator11freememheadE
     /tmp/ccKNtRAi.s:426    .bss:0000000000000000 .LANCHOR0
     /tmp/ccKNtRAi.s:435    .text:0000000000000230 .L0 
     /tmp/ccKNtRAi.s:24     .text:0000000000000010 .L0 
     /tmp/ccKNtRAi.s:165    .text:00000000000000b0 .L0 
     /tmp/ccKNtRAi.s:185    .text:00000000000000c8 .L0 
     /tmp/ccKNtRAi.s:187    .text:00000000000000d4 .L0 
     /tmp/ccKNtRAi.s:190    .text:00000000000000dc .L0 
     /tmp/ccKNtRAi.s:277    .text:000000000000015c .L0 
     /tmp/ccKNtRAi.s:282    .text:000000000000016c .L0 
     /tmp/ccKNtRAi.s:293    .text:0000000000000180 .L0 
     /tmp/ccKNtRAi.s:363    .text:00000000000001e8 .L0 
     /tmp/ccKNtRAi.s:385    .text:0000000000000200 .L0 
     /tmp/ccKNtRAi.s:44     .text:0000000000000028 .L2
     /tmp/ccKNtRAi.s:81     .text:0000000000000058 .L10
     /tmp/ccKNtRAi.s:85     .text:0000000000000060 .L11
     /tmp/ccKNtRAi.s:71     .text:0000000000000048 .L4
     /tmp/ccKNtRAi.s:88     .text:0000000000000064 .L3
     /tmp/ccKNtRAi.s:62     .text:0000000000000040 .L13
     /tmp/ccKNtRAi.s:140    .text:000000000000009c .L1
     /tmp/ccKNtRAi.s:150    .text:00000000000000a8 .L6
     /tmp/ccKNtRAi.s:160    .text:00000000000000b0 .L8
     /tmp/ccKNtRAi.s:126    .text:0000000000000090 .L7
     /tmp/ccKNtRAi.s:135    .text:0000000000000098 .L9
     /tmp/ccKNtRAi.s:234    .text:0000000000000128 .L17
     /tmp/ccKNtRAi.s:247    .text:0000000000000138 .L19
     /tmp/ccKNtRAi.s:398    .text:0000000000000218 .L25
     /tmp/ccKNtRAi.s:410    .text:0000000000000220 .L26
     /tmp/ccKNtRAi.s:415    .text:0000000000000228 .L27
     /tmp/ccKNtRAi.s:359    .text:00000000000001e8 .L31
     /tmp/ccKNtRAi.s:374    .text:00000000000001fc .L32
     /tmp/ccKNtRAi.s:324    .text:00000000000001b4 .L24
     /tmp/ccKNtRAi.s:312    .text:00000000000001a4 .L23
     /tmp/ccKNtRAi.s:346    .text:00000000000001d4 .L21
     /tmp/ccKNtRAi.s:843    .debug_abbrev:0000000000000000 .Ldebug_abbrev0
     /tmp/ccKNtRAi.s:1639   .debug_str:0000000000000074 .LASF31
     /tmp/ccKNtRAi.s:1693   .debug_str:00000000000002b0 .LASF32
     /tmp/ccKNtRAi.s:1655   .debug_str:0000000000000188 .LASF33
     /tmp/ccKNtRAi.s:5      .text:0000000000000000 .Ltext0
     /tmp/ccKNtRAi.s:432    .text:0000000000000230 .Letext0
     /tmp/ccKNtRAi.s:1627   .debug_line:0000000000000000 .Ldebug_line0
     /tmp/ccKNtRAi.s:1683   .debug_str:0000000000000259 .LASF0
     /tmp/ccKNtRAi.s:1669   .debug_str:00000000000001f5 .LASF1
     /tmp/ccKNtRAi.s:1663   .debug_str:00000000000001cd .LASF2
     /tmp/ccKNtRAi.s:1643   .debug_str:0000000000000146 .LASF4
     /tmp/ccKNtRAi.s:1667   .debug_str:00000000000001e3 .LASF3
     /tmp/ccKNtRAi.s:1637   .debug_str:000000000000006d .LASF5
     /tmp/ccKNtRAi.s:1631   .debug_str:0000000000000028 .LASF6
     /tmp/ccKNtRAi.s:1659   .debug_str:00000000000001ab .LASF7
     /tmp/ccKNtRAi.s:1687   .debug_str:000000000000026e .LASF8
     /tmp/ccKNtRAi.s:1641   .debug_str:0000000000000138 .LASF9
     /tmp/ccKNtRAi.s:1713   .debug_str:0000000000000357 .LASF10
     /tmp/ccKNtRAi.s:1661   .debug_str:00000000000001be .LASF11
     /tmp/ccKNtRAi.s:1705   .debug_str:0000000000000315 .LASF12
     /tmp/ccKNtRAi.s:1695   .debug_str:00000000000002c8 .LASF13
     /tmp/ccKNtRAi.s:1673   .debug_str:000000000000020d .LASF14
GAS LISTING /tmp/ccKNtRAi.s 			page 16


     /tmp/ccKNtRAi.s:1651   .debug_str:000000000000016d .LASF15
     /tmp/ccKNtRAi.s:1689   .debug_str:000000000000027e .LASF16
     /tmp/ccKNtRAi.s:1635   .debug_str:000000000000005d .LASF34
     /tmp/ccKNtRAi.s:1665   .debug_str:00000000000001db .LASF35
     /tmp/ccKNtRAi.s:1671   .debug_str:0000000000000208 .LASF17
     /tmp/ccKNtRAi.s:1711   .debug_str:0000000000000352 .LASF18
     /tmp/ccKNtRAi.s:1647   .debug_str:000000000000015c .LASF19
     /tmp/ccKNtRAi.s:1653   .debug_str:0000000000000183 .LASF36
     /tmp/ccKNtRAi.s:1629   .debug_str:0000000000000000 .LASF37
     /tmp/ccKNtRAi.s:1699   .debug_str:00000000000002e1 .LASF20
     /tmp/ccKNtRAi.s:1645   .debug_str:000000000000014d .LASF38
     /tmp/ccKNtRAi.s:1677   .debug_str:0000000000000222 .LASF39
     /tmp/ccKNtRAi.s:1709   .debug_str:0000000000000348 .LASF21
     /tmp/ccKNtRAi.s:1701   .debug_str:00000000000002ef .LASF23
     /tmp/ccKNtRAi.s:1697   .debug_str:00000000000002d8 .LASF22
     /tmp/ccKNtRAi.s:1633   .debug_str:000000000000003b .LASF24
     /tmp/ccKNtRAi.s:1649   .debug_str:0000000000000168 .LASF40
     /tmp/ccKNtRAi.s:1691   .debug_str:0000000000000294 .LASF41
     /tmp/ccKNtRAi.s:1703   .debug_str:0000000000000310 .LASF25
     /tmp/ccKNtRAi.s:1707   .debug_str:0000000000000325 .LASF42
     /tmp/ccKNtRAi.s:212    .text:0000000000000104 .LFB4
     /tmp/ccKNtRAi.s:263    .text:0000000000000154 .LFE4
     /tmp/ccKNtRAi.s:1354   .debug_loc:0000000000000000 .LLST7
     /tmp/ccKNtRAi.s:174    .text:00000000000000bc .LFB3
     /tmp/ccKNtRAi.s:206    .text:0000000000000104 .LFE3
     /tmp/ccKNtRAi.s:269    .text:0000000000000154 .LFB2
     /tmp/ccKNtRAi.s:421    .text:0000000000000230 .LFE2
     /tmp/ccKNtRAi.s:1657   .debug_str:00000000000001a6 .LASF26
     /tmp/ccKNtRAi.s:1372   .debug_loc:000000000000004c .LLST8
     /tmp/ccKNtRAi.s:1428   .debug_loc:0000000000000136 .LLST9
     /tmp/ccKNtRAi.s:314    .text:00000000000001a4 .LBB12
     /tmp/ccKNtRAi.s:340    .text:00000000000001d0 .LBE12
     /tmp/ccKNtRAi.s:1675   .debug_str:0000000000000219 .LASF27
     /tmp/ccKNtRAi.s:1467   .debug_loc:00000000000001c4 .LLST10
     /tmp/ccKNtRAi.s:334    .text:00000000000001c4 .LVL27
     /tmp/ccKNtRAi.s:339    .text:00000000000001d0 .LVL28
     /tmp/ccKNtRAi.s:389    .text:0000000000000210 .LVL33
     /tmp/ccKNtRAi.s:10     .text:0000000000000000 .LFB1
     /tmp/ccKNtRAi.s:168    .text:00000000000000bc .LFE1
     /tmp/ccKNtRAi.s:1478   .debug_loc:00000000000001fa .LLST0
     /tmp/ccKNtRAi.s:1496   .debug_loc:0000000000000246 .LLST1
     /tmp/ccKNtRAi.s:1681   .debug_str:000000000000024f .LASF28
     /tmp/ccKNtRAi.s:1525   .debug_loc:00000000000002ca .LLST2
     /tmp/ccKNtRAi.s:1685   .debug_str:0000000000000266 .LASF29
     /tmp/ccKNtRAi.s:1558   .debug_loc:0000000000000361 .LLST3
     /tmp/ccKNtRAi.s:1679   .debug_str:0000000000000249 .LASF30
     /tmp/ccKNtRAi.s:1579   .debug_loc:00000000000003bf .LLST4
     /tmp/ccKNtRAi.s:35     .text:0000000000000020 .LBB3
     /tmp/ccKNtRAi.s:45     .text:0000000000000028 .LBE3
     /tmp/ccKNtRAi.s:1600   .debug_loc:000000000000041d .LLST5
     /tmp/ccKNtRAi.s:100    .text:0000000000000070 .LBB6
     /tmp/ccKNtRAi.s:127    .text:0000000000000090 .LBE6
     /tmp/ccKNtRAi.s:1607   .debug_loc:0000000000000440 .LLST6
     /tmp/ccKNtRAi.s:215    .text:0000000000000104 .LVL20
     /tmp/ccKNtRAi.s:238    .text:000000000000012c .LVL21
     /tmp/ccKNtRAi.s:246    .text:0000000000000138 .LVL22
     /tmp/ccKNtRAi.s:272    .text:0000000000000154 .LVL23
GAS LISTING /tmp/ccKNtRAi.s 			page 17


     /tmp/ccKNtRAi.s:289    .text:0000000000000180 .LVL24
     /tmp/ccKNtRAi.s:358    .text:00000000000001e8 .LVL30
     /tmp/ccKNtRAi.s:397    .text:0000000000000218 .LVL34
     /tmp/ccKNtRAi.s:407    .text:000000000000021c .LVL35
     /tmp/ccKNtRAi.s:409    .text:0000000000000220 .LVL36
     /tmp/ccKNtRAi.s:412    .text:0000000000000224 .LVL37
     /tmp/ccKNtRAi.s:414    .text:0000000000000228 .LVL38
     /tmp/ccKNtRAi.s:417    .text:000000000000022c .LVL39
     /tmp/ccKNtRAi.s:370    .text:00000000000001f8 .LVL31
     /tmp/ccKNtRAi.s:373    .text:00000000000001fc .LVL32
     /tmp/ccKNtRAi.s:313    .text:00000000000001a4 .LVL25
     /tmp/ccKNtRAi.s:319    .text:00000000000001ac .LVL26
     /tmp/ccKNtRAi.s:345    .text:00000000000001d4 .LVL29
     /tmp/ccKNtRAi.s:14     .text:0000000000000000 .LVL0
     /tmp/ccKNtRAi.s:25     .text:0000000000000018 .LVL1
     /tmp/ccKNtRAi.s:41     .text:0000000000000024 .LVL3
     /tmp/ccKNtRAi.s:54     .text:0000000000000034 .LVL5
     /tmp/ccKNtRAi.s:60     .text:000000000000003c .LVL6
     /tmp/ccKNtRAi.s:64     .text:0000000000000040 .LVL7
     /tmp/ccKNtRAi.s:70     .text:0000000000000048 .LVL8
     /tmp/ccKNtRAi.s:139    .text:000000000000009c .LVL16
     /tmp/ccKNtRAi.s:149    .text:00000000000000a8 .LVL17
     /tmp/ccKNtRAi.s:80     .text:0000000000000058 .LVL9
     /tmp/ccKNtRAi.s:87     .text:0000000000000064 .LVL10
     /tmp/ccKNtRAi.s:110    .text:000000000000007c .LVL12
     /tmp/ccKNtRAi.s:157    .text:00000000000000ac .LVL18
     /tmp/ccKNtRAi.s:43     .text:0000000000000028 .LVL4
     /tmp/ccKNtRAi.s:114    .text:0000000000000080 .LVL13
     /tmp/ccKNtRAi.s:119    .text:0000000000000088 .LVL14
     /tmp/ccKNtRAi.s:159    .text:00000000000000b0 .LVL19
     /tmp/ccKNtRAi.s:37     .text:0000000000000020 .LVL2
     /tmp/ccKNtRAi.s:102    .text:0000000000000070 .LVL11
     /tmp/ccKNtRAi.s:125    .text:0000000000000090 .LVL15
     /tmp/ccKNtRAi.s:436    .debug_info:0000000000000000 .Ldebug_info0

UNDEFINED SYMBOLS
HEAP_START_ADDR
HEAP_END_ADDR
