GAS LISTING /tmp/ccAkIcIo.s 			page 1


   1              		.file	"scheduler.cpp"
   2              		.option pic
   3              		.option norelax
   4              		.text
   5              	.Ltext0:
   6              		.align	2
   8              	_Z41__static_initialization_and_destruction_0ii:
   9              	.LFB22:
  10              		.file 1 "src/scheduler.cpp"
   1:src/scheduler.cpp **** //
   2:src/scheduler.cpp **** // Created by os on 5/19/24.
   3:src/scheduler.cpp **** //
   4:src/scheduler.cpp **** 
   5:src/scheduler.cpp **** #include "../h/scheduler.hpp"
   6:src/scheduler.cpp **** 
   7:src/scheduler.cpp **** List<TCB> Scheduler::readyThreadQueue;
   8:src/scheduler.cpp **** 
   9:src/scheduler.cpp **** TCB * Scheduler::get() {
  10:src/scheduler.cpp ****     return readyThreadQueue.removeFirst();
  11:src/scheduler.cpp **** }
  12:src/scheduler.cpp **** 
  13:src/scheduler.cpp **** void    Scheduler::put(TCB *ccb) {
  14:src/scheduler.cpp ****     readyThreadQueue.addLast(ccb);
  15:src/scheduler.cpp **** }...
  11              		.loc 1 15 1
  12              		.cfi_startproc
  13              	.LVL0:
  14 0000 130101FF 		addi	sp,sp,-16
  15              		.cfi_def_cfa_offset 16
  16 0004 23348100 		sd	s0,8(sp)
  17              		.cfi_offset 8, -8
  18 0008 13040101 		addi	s0,sp,16
  19              		.cfi_def_cfa 8, 0
  20              		.loc 1 15 1 is_stmt 0
  21 000c 93071000 		li	a5,1
  22 0010 6308F500 		beq	a0,a5,.L4
  23              	.L1:
  24 0014 03348100 		ld	s0,8(sp)
  25              		.cfi_remember_state
  26              		.cfi_restore 8
  27              		.cfi_def_cfa 2, 16
  28 0018 13010101 		addi	sp,sp,16
  29              		.cfi_def_cfa_offset 0
  30 001c 67800000 		jr	ra
  31              	.L4:
  32              		.cfi_restore_state
  33              		.loc 1 15 1 discriminator 1
  34 0020 B7070100 		li	a5,65536
  35 0024 9387F7FF 		addi	a5,a5,-1
  36 0028 E396F5FE 		bne	a1,a5,.L1
  37              	.LVL1:
  38              	.LBB17:
  39              	.LBB18:
  40              	.LBB19:
  41              		.file 2 "src/../h/list.hpp"
   1:src/../h/list.hpp **** //
   2:src/../h/list.hpp **** // Created by os on 5/17/24.
GAS LISTING /tmp/ccAkIcIo.s 			page 2


   3:src/../h/list.hpp **** //
   4:src/../h/list.hpp **** 
   5:src/../h/list.hpp **** #ifndef PROJEKAT_LIST_HPP
   6:src/../h/list.hpp **** #define PROJEKAT_LIST_HPP
   7:src/../h/list.hpp **** 
   8:src/../h/list.hpp **** #include "MemoryAllocator.hpp"
   9:src/../h/list.hpp **** 
  10:src/../h/list.hpp **** template<typename T>
  11:src/../h/list.hpp **** class List
  12:src/../h/list.hpp ****         {
  13:src/../h/list.hpp ****         private:
  14:src/../h/list.hpp **** 
  15:src/../h/list.hpp ****     void *operator new(size_t n)
  16:src/../h/list.hpp ****     {
  17:src/../h/list.hpp ****         return MemoryAllocator::mem_alloc(n);
  18:src/../h/list.hpp ****     }
  19:src/../h/list.hpp **** 
  20:src/../h/list.hpp ****     void *operator new[](size_t n)
  21:src/../h/list.hpp ****     {
  22:src/../h/list.hpp ****         return MemoryAllocator::mem_alloc(n);
  23:src/../h/list.hpp ****     }
  24:src/../h/list.hpp **** 
  25:src/../h/list.hpp ****     void operator delete(void *p) noexcept
  26:src/../h/list.hpp ****     {
  27:src/../h/list.hpp ****         MemoryAllocator::mem_free(p);
  28:src/../h/list.hpp ****     }
  29:src/../h/list.hpp **** 
  30:src/../h/list.hpp ****     void operator delete[](void *p) noexcept
  31:src/../h/list.hpp ****     {
  32:src/../h/list.hpp ****         MemoryAllocator::mem_free(p);
  33:src/../h/list.hpp ****     }
  34:src/../h/list.hpp **** 
  35:src/../h/list.hpp **** 
  36:src/../h/list.hpp **** 
  37:src/../h/list.hpp **** 
  38:src/../h/list.hpp ****             struct Elem{
  39:src/../h/list.hpp ****                 T* data;
  40:src/../h/list.hpp ****                 Elem* next;
  41:src/../h/list.hpp ****                 Elem(T*data,Elem * next) : data(data), next(next){};
  42:src/../h/list.hpp ****             };
  43:src/../h/list.hpp ****             Elem*head,*tail;
  44:src/../h/list.hpp **** 
  45:src/../h/list.hpp ****         public:
  46:src/../h/list.hpp ****             List():head(0), tail(0){}
  42              		.loc 2 46 35
  43 002c 97070000 		lla	a5,.LANCHOR0
  43      93870700 
  44 0034 23B00700 		sd	zero,0(a5)
  45 0038 23B40700 		sd	zero,8(a5)
  46              	.LVL2:
  47              	.LBE19:
  48              	.LBE18:
  49              	.LBE17:
  50              		.loc 1 15 1
  51 003c 6FF09FFD 		j	.L1
  52              		.cfi_endproc
  53              	.LFE22:
GAS LISTING /tmp/ccAkIcIo.s 			page 3


  55              		.align	2
  56              		.globl	_ZN9Scheduler3getEv
  58              	_ZN9Scheduler3getEv:
  59              	.LFB13:
   9:src/scheduler.cpp **** TCB * Scheduler::get() {
  60              		.loc 1 9 24 is_stmt 1
  61              		.cfi_startproc
  62              		.cfi_personality 0x9b,DW.ref.__gxx_personality_v0
  63              		.cfi_lsda 0x1b,.LLSDA13
  64 0040 130101FE 		addi	sp,sp,-32
  65              		.cfi_def_cfa_offset 32
  66 0044 233C1100 		sd	ra,24(sp)
  67 0048 23388100 		sd	s0,16(sp)
  68 004c 23349100 		sd	s1,8(sp)
  69              		.cfi_offset 1, -8
  70              		.cfi_offset 8, -16
  71              		.cfi_offset 9, -24
  72 0050 13040102 		addi	s0,sp,32
  73              		.cfi_def_cfa 8, 0
  10:src/scheduler.cpp ****     return readyThreadQueue.removeFirst();
  74              		.loc 1 10 5
  75              	.LVL3:
  76              	.LBB20:
  77              	.LBB21:
  47:src/../h/list.hpp ****             List(const List<T> &) = delete;
  48:src/../h/list.hpp ****             List<T> &operator=(const List<T> &) = delete;
  49:src/../h/list.hpp **** 
  50:src/../h/list.hpp ****             void addFirst(T*data){
  51:src/../h/list.hpp ****                 Elem* elem = (Elem*)operator new(sizeof(Elem));
  52:src/../h/list.hpp ****                 elem->data=data;
  53:src/../h/list.hpp ****                 elem->next=0;
  54:src/../h/list.hpp ****                 head= elem;
  55:src/../h/list.hpp ****                 if(!tail) tail = head;
  56:src/../h/list.hpp ****             }
  57:src/../h/list.hpp ****             void addLast (T* data){
  58:src/../h/list.hpp ****                 Elem* elem = (Elem*)operator new(sizeof(Elem));
  59:src/../h/list.hpp ****                 elem->data=data;
  60:src/../h/list.hpp ****                 elem->next=0;
  61:src/../h/list.hpp ****                 if(tail){
  62:src/../h/list.hpp ****                     tail->next = elem;
  63:src/../h/list.hpp ****                     tail = elem;
  64:src/../h/list.hpp ****                 }else{
  65:src/../h/list.hpp ****                     head= tail = elem;
  66:src/../h/list.hpp ****                 }
  67:src/../h/list.hpp ****             }
  68:src/../h/list.hpp **** 
  69:src/../h/list.hpp ****             T* removeFirst(){
  70:src/../h/list.hpp ****                 if(!head)return 0;
  78              		.loc 2 70 21 is_stmt 0
  79 0054 17050000 		ld	a0,.LANCHOR0
  79      03350500 
  80              		.loc 2 70 17
  81 005c 63020504 		beqz	a0,.L8
  82              	.LVL4:
  71:src/../h/list.hpp ****                 Elem *elem = head;
  72:src/../h/list.hpp ****                 head = head->next;
  83              		.loc 2 72 30
GAS LISTING /tmp/ccAkIcIo.s 			page 4


  84 0060 83378500 		ld	a5,8(a0)
  85              		.loc 2 72 17
  86 0064 17070000 		sd	a5,.LANCHOR0,a4
  86      2330F700 
  73:src/../h/list.hpp ****                 if(!head) tail = 0;
  87              		.loc 2 73 17
  88 006c 63840702 		beqz	a5,.L10
  89              	.L7:
  74:src/../h/list.hpp ****                 T *ret = elem->data;
  90              		.loc 2 74 20
  91 0070 83340500 		ld	s1,0(a0)
  92              	.LVL5:
  93              	.LBB22:
  94              	.LBB23:
  27:src/../h/list.hpp ****     }
  95              		.loc 2 27 34
  96 0074 97000000 		call	_ZN15MemoryAllocator8mem_freeEPKv@plt
  96      E7800000 
  97              	.LVL6:
  98              	.L5:
  99              	.LBE23:
 100              	.LBE22:
 101              	.LBE21:
 102              	.LBE20:
  11:src/scheduler.cpp **** }
 103              		.loc 1 11 1
 104 007c 13850400 		mv	a0,s1
 105 0080 83308101 		ld	ra,24(sp)
 106              		.cfi_remember_state
 107              		.cfi_restore 1
 108 0084 03340101 		ld	s0,16(sp)
 109              		.cfi_restore 8
 110              		.cfi_def_cfa 2, 32
 111 0088 83348100 		ld	s1,8(sp)
 112              		.cfi_restore 9
 113 008c 13010102 		addi	sp,sp,32
 114              		.cfi_def_cfa_offset 0
 115 0090 67800000 		jr	ra
 116              	.LVL7:
 117              	.L10:
 118              		.cfi_restore_state
 119              	.LBB25:
 120              	.LBB24:
  73:src/../h/list.hpp ****                 T *ret = elem->data;
 121              		.loc 2 73 27
 122 0094 97070000 		sd	zero,.LANCHOR0+8,a5
 122      23B00700 
 123 009c 6FF05FFD 		j	.L7
 124              	.LVL8:
 125              	.L8:
  70:src/../h/list.hpp ****                 Elem *elem = head;
 126              		.loc 2 70 33
 127 00a0 93040500 		mv	s1,a0
 128              	.LVL9:
 129              	.LBE24:
 130              	.LBE25:
  10:src/scheduler.cpp ****     return readyThreadQueue.removeFirst();
GAS LISTING /tmp/ccAkIcIo.s 			page 5


 131              		.loc 1 10 41
 132 00a4 6FF09FFD 		j	.L5
 133              		.cfi_endproc
 134              	.LFE13:
 135              		.globl	__gxx_personality_v0
 136              		.section	.gcc_except_table,"a",@progbits
 137              	.LLSDA13:
 138 0000 FF       		.byte	0xff
 139 0001 FF       		.byte	0xff
 140 0002 03       		.byte	0x3
 141 0003 00       		.byte	0
 142              		.text
 144              		.align	2
 145              		.globl	_ZN9Scheduler3putEP3TCB
 147              	_ZN9Scheduler3putEP3TCB:
 148              	.LFB14:
  13:src/scheduler.cpp **** void    Scheduler::put(TCB *ccb) {
 149              		.loc 1 13 34 is_stmt 1
 150              		.cfi_startproc
 151              	.LVL10:
 152 00a8 130101FE 		addi	sp,sp,-32
 153              		.cfi_def_cfa_offset 32
 154 00ac 233C1100 		sd	ra,24(sp)
 155 00b0 23388100 		sd	s0,16(sp)
 156 00b4 23349100 		sd	s1,8(sp)
 157              		.cfi_offset 1, -8
 158              		.cfi_offset 8, -16
 159              		.cfi_offset 9, -24
 160 00b8 13040102 		addi	s0,sp,32
 161              		.cfi_def_cfa 8, 0
 162 00bc 93040500 		mv	s1,a0
  14:src/scheduler.cpp ****     readyThreadQueue.addLast(ccb);
 163              		.loc 1 14 5
 164              	.LVL11:
 165              	.LBB26:
 166              	.LBB27:
 167              	.LBB28:
 168              	.LBB29:
  17:src/../h/list.hpp ****     }
 169              		.loc 2 17 42 is_stmt 0
 170 00c0 13050001 		li	a0,16
 171              	.LVL12:
 172 00c4 97000000 		call	_ZN15MemoryAllocator9mem_allocEm@plt
 172      E7800000 
 173              	.LVL13:
 174              	.LBE29:
 175              	.LBE28:
  59:src/../h/list.hpp ****                 elem->next=0;
 176              		.loc 2 59 17
 177 00cc 23309500 		sd	s1,0(a0)
  60:src/../h/list.hpp ****                 if(tail){
 178              		.loc 2 60 17
 179 00d0 23340500 		sd	zero,8(a0)
  61:src/../h/list.hpp ****                     tail->next = elem;
 180              		.loc 2 61 20
 181 00d4 97070000 		ld	a5,.LANCHOR0+8
 181      83B70700 
GAS LISTING /tmp/ccAkIcIo.s 			page 6


  61:src/../h/list.hpp ****                     tail->next = elem;
 182              		.loc 2 61 17
 183 00dc 63820702 		beqz	a5,.L12
  62:src/../h/list.hpp ****                     tail = elem;
 184              		.loc 2 62 21
 185 00e0 23B4A700 		sd	a0,8(a5)
  63:src/../h/list.hpp ****                 }else{
 186              		.loc 2 63 21
 187 00e4 97070000 		sd	a0,.LANCHOR0+8,a5
 187      23B0A700 
 188              	.LVL14:
 189              	.L11:
 190              	.LBE27:
 191              	.LBE26:
 192              		.loc 1 15 1
 193 00ec 83308101 		ld	ra,24(sp)
 194              		.cfi_remember_state
 195              		.cfi_restore 1
 196 00f0 03340101 		ld	s0,16(sp)
 197              		.cfi_restore 8
 198              		.cfi_def_cfa 2, 32
 199 00f4 83348100 		ld	s1,8(sp)
 200              		.cfi_restore 9
 201              	.LVL15:
 202 00f8 13010102 		addi	sp,sp,32
 203              		.cfi_def_cfa_offset 0
 204 00fc 67800000 		jr	ra
 205              	.LVL16:
 206              	.L12:
 207              		.cfi_restore_state
 208              	.LBB31:
 209              	.LBB30:
  65:src/../h/list.hpp ****                 }
 210              		.loc 2 65 21
 211 0100 97070000 		lla	a5,.LANCHOR0
 211      93870700 
 212 0108 23B4A700 		sd	a0,8(a5)
 213 010c 23B0A700 		sd	a0,0(a5)
 214              	.LVL17:
 215              	.LBE30:
 216              	.LBE31:
 217              		.loc 1 15 1
 218 0110 6FF0DFFD 		j	.L11
 219              		.cfi_endproc
 220              	.LFE14:
 222              		.align	2
 224              	_GLOBAL__sub_I__ZN9Scheduler16readyThreadQueueE:
 225              	.LFB23:
 226              		.loc 1 15 1 is_stmt 1
 227              		.cfi_startproc
 228 0114 130101FF 		addi	sp,sp,-16
 229              		.cfi_def_cfa_offset 16
 230 0118 23341100 		sd	ra,8(sp)
 231 011c 23308100 		sd	s0,0(sp)
 232              		.cfi_offset 1, -8
 233              		.cfi_offset 8, -16
 234 0120 13040101 		addi	s0,sp,16
GAS LISTING /tmp/ccAkIcIo.s 			page 7


 235              		.cfi_def_cfa 8, 0
 236              		.loc 1 15 1 is_stmt 0
 237 0124 B7050100 		li	a1,65536
 238 0128 9385F5FF 		addi	a1,a1,-1
 239 012c 13051000 		li	a0,1
 240 0130 97000000 		call	_Z41__static_initialization_and_destruction_0ii
 240      E7800000 
 241              	.LVL18:
 242 0138 83308100 		ld	ra,8(sp)
 243              		.cfi_restore 1
 244 013c 03340100 		ld	s0,0(sp)
 245              		.cfi_restore 8
 246              		.cfi_def_cfa 2, 16
 247 0140 13010101 		addi	sp,sp,16
 248              		.cfi_def_cfa_offset 0
 249 0144 67800000 		jr	ra
 250              		.cfi_endproc
 251              	.LFE23:
 253              		.section	.init_array,"aw"
 254              		.align	3
 255 0000 00000000 		.dword	_GLOBAL__sub_I__ZN9Scheduler16readyThreadQueueE
 255      00000000 
 256              		.globl	_ZN9Scheduler16readyThreadQueueE
 257              		.bss
 258              		.align	3
 259              		.set	.LANCHOR0,. + 0
 262              	_ZN9Scheduler16readyThreadQueueE:
 263 0000 00000000 		.zero	16
 263      00000000 
 263      00000000 
 263      00000000 
 264              		.text
 265              	.Letext0:
 266              		.file 3 "src/../h/../lib/hw.h"
 267              		.file 4 "src/../h/MemoryAllocator.hpp"
 268              		.file 5 "src/../h/scheduler.hpp"
 2207              		.align	3
 2210              	DW.ref.__gxx_personality_v0:
 2211 0000 00000000 		.dword	__gxx_personality_v0
 2211      00000000 
 2212              		.ident	"GCC: (Ubuntu 9.3.0-17ubuntu1~20.04) 9.3.0"
 2213              		.section	.note.GNU-stack,"",@progbits
GAS LISTING /tmp/ccAkIcIo.s 			page 8


DEFINED SYMBOLS
                            *ABS*:0000000000000000 scheduler.cpp
     /tmp/ccAkIcIo.s:8      .text:0000000000000000 _Z41__static_initialization_and_destruction_0ii
     /tmp/ccAkIcIo.s:12     .text:0000000000000000 .L0 
     /tmp/ccAkIcIo.s:14     .text:0000000000000000 .L0 
     /tmp/ccAkIcIo.s:15     .text:0000000000000004 .L0 
     /tmp/ccAkIcIo.s:17     .text:0000000000000008 .L0 
     /tmp/ccAkIcIo.s:19     .text:000000000000000c .L0 
     /tmp/ccAkIcIo.s:21     .text:000000000000000c .L0 
     /tmp/ccAkIcIo.s:25     .text:0000000000000018 .L0 
     /tmp/ccAkIcIo.s:26     .text:0000000000000018 .L0 
     /tmp/ccAkIcIo.s:27     .text:0000000000000018 .L0 
     /tmp/ccAkIcIo.s:29     .text:000000000000001c .L0 
     /tmp/ccAkIcIo.s:32     .text:0000000000000020 .L0 
     /tmp/ccAkIcIo.s:34     .text:0000000000000020 .L0 
     /tmp/ccAkIcIo.s:43     .text:000000000000002c .L0 
     /tmp/ccAkIcIo.s:51     .text:000000000000003c .L0 
     /tmp/ccAkIcIo.s:52     .text:0000000000000040 .L0 
     /tmp/ccAkIcIo.s:58     .text:0000000000000040 _ZN9Scheduler3getEv
     /tmp/ccAkIcIo.s:61     .text:0000000000000040 .L0 
     /tmp/ccAkIcIo.s:2210   .data.rel.local.DW.ref.__gxx_personality_v0:0000000000000000 DW.ref.__gxx_personality_v0
     /tmp/ccAkIcIo.s:64     .text:0000000000000040 .L0 
     /tmp/ccAkIcIo.s:65     .text:0000000000000044 .L0 
     /tmp/ccAkIcIo.s:69     .text:0000000000000050 .L0 
     /tmp/ccAkIcIo.s:70     .text:0000000000000050 .L0 
     /tmp/ccAkIcIo.s:71     .text:0000000000000050 .L0 
     /tmp/ccAkIcIo.s:73     .text:0000000000000054 .L0 
     /tmp/ccAkIcIo.s:78     .text:0000000000000054 .L0 
     /tmp/ccAkIcIo.s:79     .text:0000000000000054 .L0 
     /tmp/ccAkIcIo.s:81     .text:000000000000005c .L0 
     /tmp/ccAkIcIo.s:84     .text:0000000000000060 .L0 
     /tmp/ccAkIcIo.s:86     .text:0000000000000064 .L0 
     /tmp/ccAkIcIo.s:88     .text:000000000000006c .L0 
     /tmp/ccAkIcIo.s:91     .text:0000000000000070 .L0 
     /tmp/ccAkIcIo.s:96     .text:0000000000000074 .L0 
     /tmp/ccAkIcIo.s:104    .text:000000000000007c .L0 
     /tmp/ccAkIcIo.s:106    .text:0000000000000084 .L0 
     /tmp/ccAkIcIo.s:107    .text:0000000000000084 .L0 
     /tmp/ccAkIcIo.s:109    .text:0000000000000088 .L0 
     /tmp/ccAkIcIo.s:110    .text:0000000000000088 .L0 
     /tmp/ccAkIcIo.s:112    .text:000000000000008c .L0 
     /tmp/ccAkIcIo.s:114    .text:0000000000000090 .L0 
     /tmp/ccAkIcIo.s:118    .text:0000000000000094 .L0 
     /tmp/ccAkIcIo.s:122    .text:0000000000000094 .L0 
     /tmp/ccAkIcIo.s:127    .text:00000000000000a0 .L0 
     /tmp/ccAkIcIo.s:132    .text:00000000000000a4 .L0 
     /tmp/ccAkIcIo.s:133    .text:00000000000000a8 .L0 
     /tmp/ccAkIcIo.s:147    .text:00000000000000a8 _ZN9Scheduler3putEP3TCB
     /tmp/ccAkIcIo.s:150    .text:00000000000000a8 .L0 
     /tmp/ccAkIcIo.s:152    .text:00000000000000a8 .L0 
     /tmp/ccAkIcIo.s:153    .text:00000000000000ac .L0 
     /tmp/ccAkIcIo.s:157    .text:00000000000000b8 .L0 
     /tmp/ccAkIcIo.s:158    .text:00000000000000b8 .L0 
     /tmp/ccAkIcIo.s:159    .text:00000000000000b8 .L0 
     /tmp/ccAkIcIo.s:161    .text:00000000000000bc .L0 
     /tmp/ccAkIcIo.s:169    .text:00000000000000c0 .L0 
     /tmp/ccAkIcIo.s:170    .text:00000000000000c0 .L0 
GAS LISTING /tmp/ccAkIcIo.s 			page 9


     /tmp/ccAkIcIo.s:177    .text:00000000000000cc .L0 
     /tmp/ccAkIcIo.s:179    .text:00000000000000d0 .L0 
     /tmp/ccAkIcIo.s:181    .text:00000000000000d4 .L0 
     /tmp/ccAkIcIo.s:183    .text:00000000000000dc .L0 
     /tmp/ccAkIcIo.s:185    .text:00000000000000e0 .L0 
     /tmp/ccAkIcIo.s:187    .text:00000000000000e4 .L0 
     /tmp/ccAkIcIo.s:193    .text:00000000000000ec .L0 
     /tmp/ccAkIcIo.s:194    .text:00000000000000f0 .L0 
     /tmp/ccAkIcIo.s:195    .text:00000000000000f0 .L0 
     /tmp/ccAkIcIo.s:197    .text:00000000000000f4 .L0 
     /tmp/ccAkIcIo.s:198    .text:00000000000000f4 .L0 
     /tmp/ccAkIcIo.s:200    .text:00000000000000f8 .L0 
     /tmp/ccAkIcIo.s:203    .text:00000000000000fc .L0 
     /tmp/ccAkIcIo.s:207    .text:0000000000000100 .L0 
     /tmp/ccAkIcIo.s:211    .text:0000000000000100 .L0 
     /tmp/ccAkIcIo.s:218    .text:0000000000000110 .L0 
     /tmp/ccAkIcIo.s:219    .text:0000000000000114 .L0 
     /tmp/ccAkIcIo.s:224    .text:0000000000000114 _GLOBAL__sub_I__ZN9Scheduler16readyThreadQueueE
     /tmp/ccAkIcIo.s:227    .text:0000000000000114 .L0 
     /tmp/ccAkIcIo.s:228    .text:0000000000000114 .L0 
     /tmp/ccAkIcIo.s:229    .text:0000000000000118 .L0 
     /tmp/ccAkIcIo.s:232    .text:0000000000000120 .L0 
     /tmp/ccAkIcIo.s:233    .text:0000000000000120 .L0 
     /tmp/ccAkIcIo.s:235    .text:0000000000000124 .L0 
     /tmp/ccAkIcIo.s:237    .text:0000000000000124 .L0 
     /tmp/ccAkIcIo.s:243    .text:000000000000013c .L0 
     /tmp/ccAkIcIo.s:245    .text:0000000000000140 .L0 
     /tmp/ccAkIcIo.s:246    .text:0000000000000140 .L0 
     /tmp/ccAkIcIo.s:248    .text:0000000000000144 .L0 
     /tmp/ccAkIcIo.s:250    .text:0000000000000148 .L0 
     /tmp/ccAkIcIo.s:262    .bss:0000000000000000 _ZN9Scheduler16readyThreadQueueE
     /tmp/ccAkIcIo.s:259    .bss:0000000000000000 .LANCHOR0
     /tmp/ccAkIcIo.s:269    .text:0000000000000148 .L0 
     /tmp/ccAkIcIo.s:43     .text:000000000000002c .L0 
     /tmp/ccAkIcIo.s:79     .text:0000000000000054 .L0 
     /tmp/ccAkIcIo.s:86     .text:0000000000000064 .L0 
     /tmp/ccAkIcIo.s:122    .text:0000000000000094 .L0 
     /tmp/ccAkIcIo.s:181    .text:00000000000000d4 .L0 
     /tmp/ccAkIcIo.s:187    .text:00000000000000e4 .L0 
     /tmp/ccAkIcIo.s:211    .text:0000000000000100 .L0 
     /tmp/ccAkIcIo.s:31     .text:0000000000000020 .L4
     /tmp/ccAkIcIo.s:23     .text:0000000000000014 .L1
     /tmp/ccAkIcIo.s:125    .text:00000000000000a0 .L8
     /tmp/ccAkIcIo.s:117    .text:0000000000000094 .L10
     /tmp/ccAkIcIo.s:89     .text:0000000000000070 .L7
     /tmp/ccAkIcIo.s:98     .text:000000000000007c .L5
     /tmp/ccAkIcIo.s:206    .text:0000000000000100 .L12
     /tmp/ccAkIcIo.s:189    .text:00000000000000ec .L11
     /tmp/ccAkIcIo.s:1027   .debug_abbrev:0000000000000000 .Ldebug_abbrev0
     /tmp/ccAkIcIo.s:2052   .debug_str:0000000000000063 .LASF69
     /tmp/ccAkIcIo.s:2196   .debug_str:00000000000005c7 .LASF70
     /tmp/ccAkIcIo.s:2120   .debug_str:000000000000034b .LASF71
     /tmp/ccAkIcIo.s:5      .text:0000000000000000 .Ltext0
     /tmp/ccAkIcIo.s:265    .text:0000000000000148 .Letext0
     /tmp/ccAkIcIo.s:2040   .debug_line:0000000000000000 .Ldebug_line0
     /tmp/ccAkIcIo.s:2130   .debug_str:00000000000003aa .LASF0
     /tmp/ccAkIcIo.s:2136   .debug_str:00000000000003d5 .LASF1
GAS LISTING /tmp/ccAkIcIo.s 			page 10


     /tmp/ccAkIcIo.s:2116   .debug_str:000000000000032d .LASF2
     /tmp/ccAkIcIo.s:2100   .debug_str:00000000000002ae .LASF4
     /tmp/ccAkIcIo.s:2164   .debug_str:00000000000004a7 .LASF3
     /tmp/ccAkIcIo.s:2054   .debug_str:0000000000000127 .LASF5
     /tmp/ccAkIcIo.s:2138   .debug_str:00000000000003e8 .LASF6
     /tmp/ccAkIcIo.s:2128   .debug_str:0000000000000397 .LASF7
     /tmp/ccAkIcIo.s:2190   .debug_str:00000000000005a0 .LASF8
     /tmp/ccAkIcIo.s:2092   .debug_str:0000000000000270 .LASF9
     /tmp/ccAkIcIo.s:2146   .debug_str:0000000000000416 .LASF10
     /tmp/ccAkIcIo.s:2182   .debug_str:000000000000055f .LASF11
     /tmp/ccAkIcIo.s:2058   .debug_str:0000000000000139 .LASF12
     /tmp/ccAkIcIo.s:2046   .debug_str:000000000000002d .LASF13
     /tmp/ccAkIcIo.s:2068   .debug_str:00000000000001a0 .LASF14
     /tmp/ccAkIcIo.s:2160   .debug_str:000000000000048c .LASF15
     /tmp/ccAkIcIo.s:2072   .debug_str:00000000000001bf .LASF16
     /tmp/ccAkIcIo.s:2118   .debug_str:000000000000033b .LASF26
     /tmp/ccAkIcIo.s:2084   .debug_str:000000000000023f .LASF41
     /tmp/ccAkIcIo.s:2186   .debug_str:0000000000000573 .LASF17
     /tmp/ccAkIcIo.s:2174   .debug_str:0000000000000502 .LASF18
     /tmp/ccAkIcIo.s:2142   .debug_str:0000000000000400 .LASF19
     /tmp/ccAkIcIo.s:2166   .debug_str:00000000000004b9 .LASF31
     /tmp/ccAkIcIo.s:2188   .debug_str:0000000000000578 .LASF33
     /tmp/ccAkIcIo.s:2104   .debug_str:00000000000002c8 .LASF20
     /tmp/ccAkIcIo.s:2042   .debug_str:0000000000000000 .LASF29
     /tmp/ccAkIcIo.s:2076   .debug_str:00000000000001da .LASF72
     /tmp/ccAkIcIo.s:2192   .debug_str:00000000000005b0 .LASF21
     /tmp/ccAkIcIo.s:2172   .debug_str:00000000000004e1 .LASF23
     /tmp/ccAkIcIo.s:2148   .debug_str:0000000000000425 .LASF22
     /tmp/ccAkIcIo.s:2198   .debug_str:00000000000005d9 .LASF24
     /tmp/ccAkIcIo.s:2140   .debug_str:00000000000003fb .LASF73
     /tmp/ccAkIcIo.s:2176   .debug_str:0000000000000507 .LASF74
     /tmp/ccAkIcIo.s:2082   .debug_str:000000000000023a .LASF25
     /tmp/ccAkIcIo.s:2144   .debug_str:000000000000040c .LASF27
     /tmp/ccAkIcIo.s:2086   .debug_str:0000000000000247 .LASF28
     /tmp/ccAkIcIo.s:2096   .debug_str:0000000000000295 .LASF75
     /tmp/ccAkIcIo.s:2066   .debug_str:0000000000000188 .LASF76
     /tmp/ccAkIcIo.s:2114   .debug_str:0000000000000323 .LASF30
     /tmp/ccAkIcIo.s:2194   .debug_str:00000000000005ba .LASF32
     /tmp/ccAkIcIo.s:2168   .debug_str:00000000000004be .LASF34
     /tmp/ccAkIcIo.s:2088   .debug_str:0000000000000258 .LASF35
     /tmp/ccAkIcIo.s:2152   .debug_str:0000000000000433 .LASF36
     /tmp/ccAkIcIo.s:2170   .debug_str:00000000000004d1 .LASF37
     /tmp/ccAkIcIo.s:2062   .debug_str:000000000000016a .LASF39
     /tmp/ccAkIcIo.s:2102   .debug_str:00000000000002b5 .LASF38
     /tmp/ccAkIcIo.s:2202   .debug_str:0000000000000600 .LASF40
     /tmp/ccAkIcIo.s:2184   .debug_str:000000000000056e .LASF42
     /tmp/ccAkIcIo.s:2154   .debug_str:0000000000000446 .LASF43
     /tmp/ccAkIcIo.s:2200   .debug_str:00000000000005fb .LASF44
     /tmp/ccAkIcIo.s:2124   .debug_str:000000000000036e .LASF45
     /tmp/ccAkIcIo.s:2074   .debug_str:00000000000001d5 .LASF46
     /tmp/ccAkIcIo.s:2122   .debug_str:0000000000000369 .LASF47
     /tmp/ccAkIcIo.s:2098   .debug_str:00000000000002a9 .LASF48
     /tmp/ccAkIcIo.s:2132   .debug_str:00000000000003b7 .LASF49
     /tmp/ccAkIcIo.s:2158   .debug_str:0000000000000475 .LASF55
     /tmp/ccAkIcIo.s:2126   .debug_str:000000000000038d .LASF77
     /tmp/ccAkIcIo.s:2094   .debug_str:000000000000027e .LASF78
     /tmp/ccAkIcIo.s:2050   .debug_str:000000000000005a .LASF50
GAS LISTING /tmp/ccAkIcIo.s 			page 11


     /tmp/ccAkIcIo.s:2080   .debug_str:000000000000021d .LASF51
     /tmp/ccAkIcIo.s:2090   .debug_str:0000000000000268 .LASF52
     /tmp/ccAkIcIo.s:2078   .debug_str:0000000000000201 .LASF53
     /tmp/ccAkIcIo.s:2180   .debug_str:0000000000000553 .LASF54
     /tmp/ccAkIcIo.s:2044   .debug_str:000000000000000f .LASF56
     /tmp/ccAkIcIo.s:2064   .debug_str:000000000000017e .LASF57
     /tmp/ccAkIcIo.s:2108   .debug_str:00000000000002f0 .LASF58
     /tmp/ccAkIcIo.s:2134   .debug_str:00000000000003ca .LASF59
     /tmp/ccAkIcIo.s:2048   .debug_str:000000000000003d .LASF60
     /tmp/ccAkIcIo.s:2110   .debug_str:000000000000030b .LASF61
     /tmp/ccAkIcIo.s:2106   .debug_str:00000000000002d6 .LASF62
     /tmp/ccAkIcIo.s:2060   .debug_str:0000000000000149 .LASF79
     /tmp/ccAkIcIo.s:2178   .debug_str:0000000000000523 .LASF63
     /tmp/ccAkIcIo.s:225    .text:0000000000000114 .LFB23
     /tmp/ccAkIcIo.s:251    .text:0000000000000148 .LFE23
     /tmp/ccAkIcIo.s:241    .text:0000000000000138 .LVL18
     /tmp/ccAkIcIo.s:2156   .debug_str:000000000000044b .LASF64
     /tmp/ccAkIcIo.s:9      .text:0000000000000000 .LFB22
     /tmp/ccAkIcIo.s:53     .text:0000000000000040 .LFE22
     /tmp/ccAkIcIo.s:2112   .debug_str:0000000000000314 .LASF65
     /tmp/ccAkIcIo.s:2056   .debug_str:000000000000012e .LASF66
     /tmp/ccAkIcIo.s:38     .text:000000000000002c .LBB17
     /tmp/ccAkIcIo.s:49     .text:000000000000003c .LBE17
     /tmp/ccAkIcIo.s:1904   .debug_loc:0000000000000000 .LLST0
     /tmp/ccAkIcIo.s:2150   .debug_str:000000000000042e .LASF67
     /tmp/ccAkIcIo.s:2162   .debug_str:00000000000004a2 .LASF68
     /tmp/ccAkIcIo.s:2070   .debug_str:00000000000001ac .LASF80
     /tmp/ccAkIcIo.s:148    .text:00000000000000a8 .LFB14
     /tmp/ccAkIcIo.s:220    .text:0000000000000114 .LFE14
     /tmp/ccAkIcIo.s:1913   .debug_loc:000000000000002c .LLST5
     /tmp/ccAkIcIo.s:165    .text:00000000000000c0 .LBB26
     /tmp/ccAkIcIo.s:2026   .debug_ranges:0000000000000000 .Ldebug_ranges0
     /tmp/ccAkIcIo.s:1935   .debug_loc:000000000000008b .LLST6
     /tmp/ccAkIcIo.s:1950   .debug_loc:00000000000000d4 .LLST7
     /tmp/ccAkIcIo.s:167    .text:00000000000000c0 .LBB28
     /tmp/ccAkIcIo.s:175    .text:00000000000000cc .LBE28
     /tmp/ccAkIcIo.s:1965   .debug_loc:000000000000011c .LLST8
     /tmp/ccAkIcIo.s:173    .text:00000000000000cc .LVL13
     /tmp/ccAkIcIo.s:59     .text:0000000000000040 .LFB13
     /tmp/ccAkIcIo.s:134    .text:00000000000000a8 .LFE13
     /tmp/ccAkIcIo.s:76     .text:0000000000000054 .LBB20
     /tmp/ccAkIcIo.s:1973   .debug_loc:0000000000000140 .LLST1
     /tmp/ccAkIcIo.s:1988   .debug_loc:0000000000000188 .LLST2
     /tmp/ccAkIcIo.s:1999   .debug_loc:00000000000001be .LLST3
     /tmp/ccAkIcIo.s:93     .text:0000000000000074 .LBB22
     /tmp/ccAkIcIo.s:100    .text:000000000000007c .LBE22
     /tmp/ccAkIcIo.s:2006   .debug_loc:00000000000001e1 .LLST4
     /tmp/ccAkIcIo.s:97     .text:000000000000007c .LVL6
     /tmp/ccAkIcIo.s:37     .text:000000000000002c .LVL1
     /tmp/ccAkIcIo.s:46     .text:000000000000003c .LVL2
     /tmp/ccAkIcIo.s:151    .text:00000000000000a8 .LVL10
     /tmp/ccAkIcIo.s:171    .text:00000000000000c4 .LVL12
     /tmp/ccAkIcIo.s:201    .text:00000000000000f8 .LVL15
     /tmp/ccAkIcIo.s:205    .text:0000000000000100 .LVL16
     /tmp/ccAkIcIo.s:164    .text:00000000000000c0 .LVL11
     /tmp/ccAkIcIo.s:188    .text:00000000000000ec .LVL14
     /tmp/ccAkIcIo.s:214    .text:0000000000000110 .LVL17
GAS LISTING /tmp/ccAkIcIo.s 			page 12


     /tmp/ccAkIcIo.s:75     .text:0000000000000054 .LVL3
     /tmp/ccAkIcIo.s:116    .text:0000000000000094 .LVL7
     /tmp/ccAkIcIo.s:128    .text:00000000000000a4 .LVL9
     /tmp/ccAkIcIo.s:82     .text:0000000000000060 .LVL4
     /tmp/ccAkIcIo.s:124    .text:00000000000000a0 .LVL8
     /tmp/ccAkIcIo.s:92     .text:0000000000000074 .LVL5
     /tmp/ccAkIcIo.s:270    .debug_info:0000000000000000 .Ldebug_info0
     /tmp/ccAkIcIo.s:102    .text:000000000000007c .LBE20
     /tmp/ccAkIcIo.s:119    .text:0000000000000094 .LBB25
     /tmp/ccAkIcIo.s:130    .text:00000000000000a4 .LBE25
     /tmp/ccAkIcIo.s:191    .text:00000000000000ec .LBE26
     /tmp/ccAkIcIo.s:208    .text:0000000000000100 .LBB31
     /tmp/ccAkIcIo.s:216    .text:0000000000000110 .LBE31
     /tmp/ccAkIcIo.s:137    .gcc_except_table:0000000000000000 .LLSDA13

UNDEFINED SYMBOLS
_ZN15MemoryAllocator8mem_freeEPKv
__gxx_personality_v0
_ZN15MemoryAllocator9mem_allocEm
