GAS LISTING /tmp/cc9KMe13.s 			page 1


   1              		.file	"scheduler.cpp"
   2              		.option pic
   3              		.option norelax
   4              		.text
   5              	.Ltext0:
   6              		.align	2
   8              	_Z41__static_initialization_and_destruction_0ii:
   9              	.LFB19:
  10              		.file 1 "src/scheduler.cpp"
   1:src/scheduler.cpp **** //
   2:src/scheduler.cpp **** // Created by os on 5/19/24.
   3:src/scheduler.cpp **** //
   4:src/scheduler.cpp **** 
   5:src/scheduler.cpp **** #include "../h/scheduler.hpp"
   6:src/scheduler.cpp **** 
   7:src/scheduler.cpp **** List<TCB> Scheduler::readyThreadQueue;
   8:src/scheduler.cpp **** 
   9:src/scheduler.cpp **** TCB * Scheduler::get() {
  10:src/scheduler.cpp ****     return readyThreadQueue.removeFirst();
  11:src/scheduler.cpp **** }
  12:src/scheduler.cpp **** 
  13:src/scheduler.cpp **** void    Scheduler::put(TCB *ccb) {
  14:src/scheduler.cpp ****     readyThreadQueue.addLast(ccb);
  15:src/scheduler.cpp **** }...
  11              		.loc 1 15 1
  12              		.cfi_startproc
  13              	.LVL0:
  14 0000 130101FF 		addi	sp,sp,-16
  15              		.cfi_def_cfa_offset 16
  16 0004 23348100 		sd	s0,8(sp)
  17              		.cfi_offset 8, -8
  18 0008 13040101 		addi	s0,sp,16
  19              		.cfi_def_cfa 8, 0
  20              		.loc 1 15 1 is_stmt 0
  21 000c 93071000 		li	a5,1
  22 0010 6308F500 		beq	a0,a5,.L4
  23              	.L1:
  24 0014 03348100 		ld	s0,8(sp)
  25              		.cfi_remember_state
  26              		.cfi_restore 8
  27              		.cfi_def_cfa 2, 16
  28 0018 13010101 		addi	sp,sp,16
  29              		.cfi_def_cfa_offset 0
  30 001c 67800000 		jr	ra
  31              	.L4:
  32              		.cfi_restore_state
  33              		.loc 1 15 1 discriminator 1
  34 0020 B7070100 		li	a5,65536
  35 0024 9387F7FF 		addi	a5,a5,-1
  36 0028 E396F5FE 		bne	a1,a5,.L1
  37              	.LVL1:
  38              	.LBB13:
  39              	.LBB14:
  40              	.LBB15:
  41              		.file 2 "src/../h/list.hpp"
   1:src/../h/list.hpp **** //
   2:src/../h/list.hpp **** // Created by os on 5/17/24.
GAS LISTING /tmp/cc9KMe13.s 			page 2


   3:src/../h/list.hpp **** //
   4:src/../h/list.hpp **** 
   5:src/../h/list.hpp **** #ifndef PROJEKAT_LIST_HPP
   6:src/../h/list.hpp **** #define PROJEKAT_LIST_HPP
   7:src/../h/list.hpp **** 
   8:src/../h/list.hpp **** #include "MemoryAllocator.hpp"
   9:src/../h/list.hpp **** 
  10:src/../h/list.hpp **** template<typename T>
  11:src/../h/list.hpp **** class List
  12:src/../h/list.hpp ****         {
  13:src/../h/list.hpp ****         private:
  14:src/../h/list.hpp **** 
  15:src/../h/list.hpp ****     void operator delete(void *p) noexcept
  16:src/../h/list.hpp ****     {
  17:src/../h/list.hpp ****         MemoryAllocator::mem_free(p);
  18:src/../h/list.hpp ****     }
  19:src/../h/list.hpp **** 
  20:src/../h/list.hpp ****     void operator delete[](void *p) noexcept
  21:src/../h/list.hpp ****     {
  22:src/../h/list.hpp ****         MemoryAllocator::mem_free(p);
  23:src/../h/list.hpp ****     }
  24:src/../h/list.hpp **** 
  25:src/../h/list.hpp **** 
  26:src/../h/list.hpp **** 
  27:src/../h/list.hpp **** 
  28:src/../h/list.hpp ****             struct Elem{
  29:src/../h/list.hpp ****                 T* data;
  30:src/../h/list.hpp ****                 Elem* next;
  31:src/../h/list.hpp ****                 Elem(T*data,Elem * next) : data(data), next(next){};
  32:src/../h/list.hpp ****             };
  33:src/../h/list.hpp ****             Elem*head,*tail;
  34:src/../h/list.hpp **** 
  35:src/../h/list.hpp ****         public:
  36:src/../h/list.hpp ****             List():head(0), tail(0){}
  42              		.loc 2 36 35
  43 002c 97070000 		lla	a5,.LANCHOR0
  43      93870700 
  44 0034 23B00700 		sd	zero,0(a5)
  45 0038 23B40700 		sd	zero,8(a5)
  46              	.LVL2:
  47              	.LBE15:
  48              	.LBE14:
  49              	.LBE13:
  50              		.loc 1 15 1
  51 003c 6FF09FFD 		j	.L1
  52              		.cfi_endproc
  53              	.LFE19:
  55              		.align	2
  56              		.globl	_ZN9Scheduler3getEv
  58              	_ZN9Scheduler3getEv:
  59              	.LFB11:
   9:src/scheduler.cpp **** TCB * Scheduler::get() {
  60              		.loc 1 9 24 is_stmt 1
  61              		.cfi_startproc
  62              		.cfi_personality 0x9b,DW.ref.__gxx_personality_v0
  63              		.cfi_lsda 0x1b,.LLSDA11
  64 0040 130101FE 		addi	sp,sp,-32
GAS LISTING /tmp/cc9KMe13.s 			page 3


  65              		.cfi_def_cfa_offset 32
  66 0044 233C1100 		sd	ra,24(sp)
  67 0048 23388100 		sd	s0,16(sp)
  68 004c 23349100 		sd	s1,8(sp)
  69              		.cfi_offset 1, -8
  70              		.cfi_offset 8, -16
  71              		.cfi_offset 9, -24
  72 0050 13040102 		addi	s0,sp,32
  73              		.cfi_def_cfa 8, 0
  10:src/scheduler.cpp ****     return readyThreadQueue.removeFirst();
  74              		.loc 1 10 5
  75              	.LVL3:
  76              	.LBB16:
  77              	.LBB17:
  37:src/../h/list.hpp ****             List(const List<T> &) = delete;
  38:src/../h/list.hpp ****             List<T> &operator=(const List<T> &) = delete;
  39:src/../h/list.hpp **** 
  40:src/../h/list.hpp ****             void addFirst(T*data){
  41:src/../h/list.hpp ****                 Elem* elem = (Elem*)MemoryAllocator::mem_alloc(sizeof(Elem));
  42:src/../h/list.hpp ****                 elem->data=data;
  43:src/../h/list.hpp ****                 elem->next=0;
  44:src/../h/list.hpp ****                 head= elem;
  45:src/../h/list.hpp ****                 if(!tail) tail = head;
  46:src/../h/list.hpp ****             }
  47:src/../h/list.hpp ****             void addLast (T* data){
  48:src/../h/list.hpp ****                 Elem* elem = (Elem*)MemoryAllocator::mem_alloc(sizeof(Elem));
  49:src/../h/list.hpp ****                 elem->data=data;
  50:src/../h/list.hpp ****                 elem->next=0;
  51:src/../h/list.hpp ****                 if(tail){
  52:src/../h/list.hpp ****                     tail->next = elem;
  53:src/../h/list.hpp ****                     tail = elem;
  54:src/../h/list.hpp ****                 }else{
  55:src/../h/list.hpp ****                     head= tail = elem;
  56:src/../h/list.hpp ****                 }
  57:src/../h/list.hpp ****             }
  58:src/../h/list.hpp **** 
  59:src/../h/list.hpp ****             T* removeFirst(){
  60:src/../h/list.hpp ****                 if(!head)return 0;
  78              		.loc 2 60 21 is_stmt 0
  79 0054 17050000 		ld	a0,.LANCHOR0
  79      03350500 
  80              		.loc 2 60 17
  81 005c 63020504 		beqz	a0,.L8
  82              	.LVL4:
  61:src/../h/list.hpp ****                 Elem *elem = head;
  62:src/../h/list.hpp ****                 head = head->next;
  83              		.loc 2 62 30
  84 0060 83378500 		ld	a5,8(a0)
  85              		.loc 2 62 17
  86 0064 17070000 		sd	a5,.LANCHOR0,a4
  86      2330F700 
  63:src/../h/list.hpp ****                 if(!head) tail = 0;
  87              		.loc 2 63 17
  88 006c 63840702 		beqz	a5,.L10
  89              	.L7:
  64:src/../h/list.hpp ****                 T *ret = elem->data;
  90              		.loc 2 64 20
GAS LISTING /tmp/cc9KMe13.s 			page 4


  91 0070 83340500 		ld	s1,0(a0)
  92              	.LVL5:
  93              	.LBB18:
  94              	.LBB19:
  17:src/../h/list.hpp ****     }
  95              		.loc 2 17 34
  96 0074 97000000 		call	_ZN15MemoryAllocator8mem_freeEPKv@plt
  96      E7800000 
  97              	.LVL6:
  98              	.L5:
  99              	.LBE19:
 100              	.LBE18:
 101              	.LBE17:
 102              	.LBE16:
  11:src/scheduler.cpp **** }
 103              		.loc 1 11 1
 104 007c 13850400 		mv	a0,s1
 105 0080 83308101 		ld	ra,24(sp)
 106              		.cfi_remember_state
 107              		.cfi_restore 1
 108 0084 03340101 		ld	s0,16(sp)
 109              		.cfi_restore 8
 110              		.cfi_def_cfa 2, 32
 111 0088 83348100 		ld	s1,8(sp)
 112              		.cfi_restore 9
 113 008c 13010102 		addi	sp,sp,32
 114              		.cfi_def_cfa_offset 0
 115 0090 67800000 		jr	ra
 116              	.LVL7:
 117              	.L10:
 118              		.cfi_restore_state
 119              	.LBB21:
 120              	.LBB20:
  63:src/../h/list.hpp ****                 T *ret = elem->data;
 121              		.loc 2 63 27
 122 0094 97070000 		sd	zero,.LANCHOR0+8,a5
 122      23B00700 
 123 009c 6FF05FFD 		j	.L7
 124              	.LVL8:
 125              	.L8:
  60:src/../h/list.hpp ****                 Elem *elem = head;
 126              		.loc 2 60 33
 127 00a0 93040500 		mv	s1,a0
 128              	.LVL9:
 129              	.LBE20:
 130              	.LBE21:
  10:src/scheduler.cpp ****     return readyThreadQueue.removeFirst();
 131              		.loc 1 10 41
 132 00a4 6FF09FFD 		j	.L5
 133              		.cfi_endproc
 134              	.LFE11:
 135              		.globl	__gxx_personality_v0
 136              		.section	.gcc_except_table,"a",@progbits
 137              	.LLSDA11:
 138 0000 FF       		.byte	0xff
 139 0001 FF       		.byte	0xff
 140 0002 03       		.byte	0x3
GAS LISTING /tmp/cc9KMe13.s 			page 5


 141 0003 00       		.byte	0
 142              		.text
 144              		.align	2
 145              		.globl	_ZN9Scheduler3putEP3TCB
 147              	_ZN9Scheduler3putEP3TCB:
 148              	.LFB12:
  13:src/scheduler.cpp **** void    Scheduler::put(TCB *ccb) {
 149              		.loc 1 13 34 is_stmt 1
 150              		.cfi_startproc
 151              	.LVL10:
 152 00a8 130101FE 		addi	sp,sp,-32
 153              		.cfi_def_cfa_offset 32
 154 00ac 233C1100 		sd	ra,24(sp)
 155 00b0 23388100 		sd	s0,16(sp)
 156 00b4 23349100 		sd	s1,8(sp)
 157              		.cfi_offset 1, -8
 158              		.cfi_offset 8, -16
 159              		.cfi_offset 9, -24
 160 00b8 13040102 		addi	s0,sp,32
 161              		.cfi_def_cfa 8, 0
 162 00bc 93040500 		mv	s1,a0
  14:src/scheduler.cpp ****     readyThreadQueue.addLast(ccb);
 163              		.loc 1 14 5
 164              	.LVL11:
 165              	.LBB22:
 166              	.LBB23:
  48:src/../h/list.hpp ****                 elem->data=data;
 167              		.loc 2 48 63 is_stmt 0
 168 00c0 13050001 		li	a0,16
 169              	.LVL12:
 170 00c4 97000000 		call	_ZN15MemoryAllocator9mem_allocEm@plt
 170      E7800000 
 171              	.LVL13:
  49:src/../h/list.hpp ****                 elem->next=0;
 172              		.loc 2 49 17
 173 00cc 23309500 		sd	s1,0(a0)
  50:src/../h/list.hpp ****                 if(tail){
 174              		.loc 2 50 17
 175 00d0 23340500 		sd	zero,8(a0)
  51:src/../h/list.hpp ****                     tail->next = elem;
 176              		.loc 2 51 20
 177 00d4 97070000 		ld	a5,.LANCHOR0+8
 177      83B70700 
  51:src/../h/list.hpp ****                     tail->next = elem;
 178              		.loc 2 51 17
 179 00dc 63820702 		beqz	a5,.L12
  52:src/../h/list.hpp ****                     tail = elem;
 180              		.loc 2 52 21
 181 00e0 23B4A700 		sd	a0,8(a5)
  53:src/../h/list.hpp ****                 }else{
 182              		.loc 2 53 21
 183 00e4 97070000 		sd	a0,.LANCHOR0+8,a5
 183      23B0A700 
 184              	.LVL14:
 185              	.L11:
 186              	.LBE23:
 187              	.LBE22:
GAS LISTING /tmp/cc9KMe13.s 			page 6


 188              		.loc 1 15 1
 189 00ec 83308101 		ld	ra,24(sp)
 190              		.cfi_remember_state
 191              		.cfi_restore 1
 192 00f0 03340101 		ld	s0,16(sp)
 193              		.cfi_restore 8
 194              		.cfi_def_cfa 2, 32
 195 00f4 83348100 		ld	s1,8(sp)
 196              		.cfi_restore 9
 197              	.LVL15:
 198 00f8 13010102 		addi	sp,sp,32
 199              		.cfi_def_cfa_offset 0
 200 00fc 67800000 		jr	ra
 201              	.LVL16:
 202              	.L12:
 203              		.cfi_restore_state
 204              	.LBB25:
 205              	.LBB24:
  55:src/../h/list.hpp ****                 }
 206              		.loc 2 55 21
 207 0100 97070000 		lla	a5,.LANCHOR0
 207      93870700 
 208 0108 23B4A700 		sd	a0,8(a5)
 209 010c 23B0A700 		sd	a0,0(a5)
 210              	.LVL17:
 211              	.LBE24:
 212              	.LBE25:
 213              		.loc 1 15 1
 214 0110 6FF0DFFD 		j	.L11
 215              		.cfi_endproc
 216              	.LFE12:
 218              		.align	2
 220              	_GLOBAL__sub_I__ZN9Scheduler16readyThreadQueueE:
 221              	.LFB20:
 222              		.loc 1 15 1 is_stmt 1
 223              		.cfi_startproc
 224 0114 130101FF 		addi	sp,sp,-16
 225              		.cfi_def_cfa_offset 16
 226 0118 23341100 		sd	ra,8(sp)
 227 011c 23308100 		sd	s0,0(sp)
 228              		.cfi_offset 1, -8
 229              		.cfi_offset 8, -16
 230 0120 13040101 		addi	s0,sp,16
 231              		.cfi_def_cfa 8, 0
 232              		.loc 1 15 1 is_stmt 0
 233 0124 B7050100 		li	a1,65536
 234 0128 9385F5FF 		addi	a1,a1,-1
 235 012c 13051000 		li	a0,1
 236 0130 97000000 		call	_Z41__static_initialization_and_destruction_0ii
 236      E7800000 
 237              	.LVL18:
 238 0138 83308100 		ld	ra,8(sp)
 239              		.cfi_restore 1
 240 013c 03340100 		ld	s0,0(sp)
 241              		.cfi_restore 8
 242              		.cfi_def_cfa 2, 16
 243 0140 13010101 		addi	sp,sp,16
GAS LISTING /tmp/cc9KMe13.s 			page 7


 244              		.cfi_def_cfa_offset 0
 245 0144 67800000 		jr	ra
 246              		.cfi_endproc
 247              	.LFE20:
 249              		.section	.init_array,"aw"
 250              		.align	3
 251 0000 00000000 		.dword	_GLOBAL__sub_I__ZN9Scheduler16readyThreadQueueE
 251      00000000 
 252              		.globl	_ZN9Scheduler16readyThreadQueueE
 253              		.bss
 254              		.align	3
 255              		.set	.LANCHOR0,. + 0
 258              	_ZN9Scheduler16readyThreadQueueE:
 259 0000 00000000 		.zero	16
 259      00000000 
 259      00000000 
 259      00000000 
 260              		.text
 261              	.Letext0:
 262              		.file 3 "src/../h/../lib/hw.h"
 263              		.file 4 "src/../h/MemoryAllocator.hpp"
 264              		.file 5 "src/../h/scheduler.hpp"
 2129              		.align	3
 2132              	DW.ref.__gxx_personality_v0:
 2133 0000 00000000 		.dword	__gxx_personality_v0
 2133      00000000 
 2134              		.ident	"GCC: (Ubuntu 9.3.0-17ubuntu1~20.04) 9.3.0"
 2135              		.section	.note.GNU-stack,"",@progbits
GAS LISTING /tmp/cc9KMe13.s 			page 8


DEFINED SYMBOLS
                            *ABS*:0000000000000000 scheduler.cpp
     /tmp/cc9KMe13.s:8      .text:0000000000000000 _Z41__static_initialization_and_destruction_0ii
     /tmp/cc9KMe13.s:12     .text:0000000000000000 .L0 
     /tmp/cc9KMe13.s:14     .text:0000000000000000 .L0 
     /tmp/cc9KMe13.s:15     .text:0000000000000004 .L0 
     /tmp/cc9KMe13.s:17     .text:0000000000000008 .L0 
     /tmp/cc9KMe13.s:19     .text:000000000000000c .L0 
     /tmp/cc9KMe13.s:21     .text:000000000000000c .L0 
     /tmp/cc9KMe13.s:25     .text:0000000000000018 .L0 
     /tmp/cc9KMe13.s:26     .text:0000000000000018 .L0 
     /tmp/cc9KMe13.s:27     .text:0000000000000018 .L0 
     /tmp/cc9KMe13.s:29     .text:000000000000001c .L0 
     /tmp/cc9KMe13.s:32     .text:0000000000000020 .L0 
     /tmp/cc9KMe13.s:34     .text:0000000000000020 .L0 
     /tmp/cc9KMe13.s:43     .text:000000000000002c .L0 
     /tmp/cc9KMe13.s:51     .text:000000000000003c .L0 
     /tmp/cc9KMe13.s:52     .text:0000000000000040 .L0 
     /tmp/cc9KMe13.s:58     .text:0000000000000040 _ZN9Scheduler3getEv
     /tmp/cc9KMe13.s:61     .text:0000000000000040 .L0 
     /tmp/cc9KMe13.s:2132   .data.rel.local.DW.ref.__gxx_personality_v0:0000000000000000 DW.ref.__gxx_personality_v0
     /tmp/cc9KMe13.s:64     .text:0000000000000040 .L0 
     /tmp/cc9KMe13.s:65     .text:0000000000000044 .L0 
     /tmp/cc9KMe13.s:69     .text:0000000000000050 .L0 
     /tmp/cc9KMe13.s:70     .text:0000000000000050 .L0 
     /tmp/cc9KMe13.s:71     .text:0000000000000050 .L0 
     /tmp/cc9KMe13.s:73     .text:0000000000000054 .L0 
     /tmp/cc9KMe13.s:78     .text:0000000000000054 .L0 
     /tmp/cc9KMe13.s:79     .text:0000000000000054 .L0 
     /tmp/cc9KMe13.s:81     .text:000000000000005c .L0 
     /tmp/cc9KMe13.s:84     .text:0000000000000060 .L0 
     /tmp/cc9KMe13.s:86     .text:0000000000000064 .L0 
     /tmp/cc9KMe13.s:88     .text:000000000000006c .L0 
     /tmp/cc9KMe13.s:91     .text:0000000000000070 .L0 
     /tmp/cc9KMe13.s:96     .text:0000000000000074 .L0 
     /tmp/cc9KMe13.s:104    .text:000000000000007c .L0 
     /tmp/cc9KMe13.s:106    .text:0000000000000084 .L0 
     /tmp/cc9KMe13.s:107    .text:0000000000000084 .L0 
     /tmp/cc9KMe13.s:109    .text:0000000000000088 .L0 
     /tmp/cc9KMe13.s:110    .text:0000000000000088 .L0 
     /tmp/cc9KMe13.s:112    .text:000000000000008c .L0 
     /tmp/cc9KMe13.s:114    .text:0000000000000090 .L0 
     /tmp/cc9KMe13.s:118    .text:0000000000000094 .L0 
     /tmp/cc9KMe13.s:122    .text:0000000000000094 .L0 
     /tmp/cc9KMe13.s:127    .text:00000000000000a0 .L0 
     /tmp/cc9KMe13.s:132    .text:00000000000000a4 .L0 
     /tmp/cc9KMe13.s:133    .text:00000000000000a8 .L0 
     /tmp/cc9KMe13.s:147    .text:00000000000000a8 _ZN9Scheduler3putEP3TCB
     /tmp/cc9KMe13.s:150    .text:00000000000000a8 .L0 
     /tmp/cc9KMe13.s:152    .text:00000000000000a8 .L0 
     /tmp/cc9KMe13.s:153    .text:00000000000000ac .L0 
     /tmp/cc9KMe13.s:157    .text:00000000000000b8 .L0 
     /tmp/cc9KMe13.s:158    .text:00000000000000b8 .L0 
     /tmp/cc9KMe13.s:159    .text:00000000000000b8 .L0 
     /tmp/cc9KMe13.s:161    .text:00000000000000bc .L0 
     /tmp/cc9KMe13.s:167    .text:00000000000000c0 .L0 
     /tmp/cc9KMe13.s:168    .text:00000000000000c0 .L0 
GAS LISTING /tmp/cc9KMe13.s 			page 9


     /tmp/cc9KMe13.s:173    .text:00000000000000cc .L0 
     /tmp/cc9KMe13.s:175    .text:00000000000000d0 .L0 
     /tmp/cc9KMe13.s:177    .text:00000000000000d4 .L0 
     /tmp/cc9KMe13.s:179    .text:00000000000000dc .L0 
     /tmp/cc9KMe13.s:181    .text:00000000000000e0 .L0 
     /tmp/cc9KMe13.s:183    .text:00000000000000e4 .L0 
     /tmp/cc9KMe13.s:189    .text:00000000000000ec .L0 
     /tmp/cc9KMe13.s:190    .text:00000000000000f0 .L0 
     /tmp/cc9KMe13.s:191    .text:00000000000000f0 .L0 
     /tmp/cc9KMe13.s:193    .text:00000000000000f4 .L0 
     /tmp/cc9KMe13.s:194    .text:00000000000000f4 .L0 
     /tmp/cc9KMe13.s:196    .text:00000000000000f8 .L0 
     /tmp/cc9KMe13.s:199    .text:00000000000000fc .L0 
     /tmp/cc9KMe13.s:203    .text:0000000000000100 .L0 
     /tmp/cc9KMe13.s:207    .text:0000000000000100 .L0 
     /tmp/cc9KMe13.s:214    .text:0000000000000110 .L0 
     /tmp/cc9KMe13.s:215    .text:0000000000000114 .L0 
     /tmp/cc9KMe13.s:220    .text:0000000000000114 _GLOBAL__sub_I__ZN9Scheduler16readyThreadQueueE
     /tmp/cc9KMe13.s:223    .text:0000000000000114 .L0 
     /tmp/cc9KMe13.s:224    .text:0000000000000114 .L0 
     /tmp/cc9KMe13.s:225    .text:0000000000000118 .L0 
     /tmp/cc9KMe13.s:228    .text:0000000000000120 .L0 
     /tmp/cc9KMe13.s:229    .text:0000000000000120 .L0 
     /tmp/cc9KMe13.s:231    .text:0000000000000124 .L0 
     /tmp/cc9KMe13.s:233    .text:0000000000000124 .L0 
     /tmp/cc9KMe13.s:239    .text:000000000000013c .L0 
     /tmp/cc9KMe13.s:241    .text:0000000000000140 .L0 
     /tmp/cc9KMe13.s:242    .text:0000000000000140 .L0 
     /tmp/cc9KMe13.s:244    .text:0000000000000144 .L0 
     /tmp/cc9KMe13.s:246    .text:0000000000000148 .L0 
     /tmp/cc9KMe13.s:258    .bss:0000000000000000 _ZN9Scheduler16readyThreadQueueE
     /tmp/cc9KMe13.s:255    .bss:0000000000000000 .LANCHOR0
     /tmp/cc9KMe13.s:265    .text:0000000000000148 .L0 
     /tmp/cc9KMe13.s:43     .text:000000000000002c .L0 
     /tmp/cc9KMe13.s:79     .text:0000000000000054 .L0 
     /tmp/cc9KMe13.s:86     .text:0000000000000064 .L0 
     /tmp/cc9KMe13.s:122    .text:0000000000000094 .L0 
     /tmp/cc9KMe13.s:177    .text:00000000000000d4 .L0 
     /tmp/cc9KMe13.s:183    .text:00000000000000e4 .L0 
     /tmp/cc9KMe13.s:207    .text:0000000000000100 .L0 
     /tmp/cc9KMe13.s:31     .text:0000000000000020 .L4
     /tmp/cc9KMe13.s:23     .text:0000000000000014 .L1
     /tmp/cc9KMe13.s:125    .text:00000000000000a0 .L8
     /tmp/cc9KMe13.s:117    .text:0000000000000094 .L10
     /tmp/cc9KMe13.s:89     .text:0000000000000070 .L7
     /tmp/cc9KMe13.s:98     .text:000000000000007c .L5
     /tmp/cc9KMe13.s:202    .text:0000000000000100 .L12
     /tmp/cc9KMe13.s:185    .text:00000000000000ec .L11
     /tmp/cc9KMe13.s:978    .debug_abbrev:0000000000000000 .Ldebug_abbrev0
     /tmp/cc9KMe13.s:1990   .debug_str:000000000000009a .LASF63
     /tmp/cc9KMe13.s:2036   .debug_str:00000000000002ec .LASF64
     /tmp/cc9KMe13.s:2014   .debug_str:000000000000022b .LASF65
     /tmp/cc9KMe13.s:5      .text:0000000000000000 .Ltext0
     /tmp/cc9KMe13.s:261    .text:0000000000000148 .Letext0
     /tmp/cc9KMe13.s:1970   .debug_line:0000000000000000 .Ldebug_line0
     /tmp/cc9KMe13.s:2068   .debug_str:00000000000003f4 .LASF0
     /tmp/cc9KMe13.s:2044   .debug_str:000000000000034e .LASF1
GAS LISTING /tmp/cc9KMe13.s 			page 10


     /tmp/cc9KMe13.s:2030   .debug_str:00000000000002b9 .LASF2
     /tmp/cc9KMe13.s:1998   .debug_str:00000000000001a1 .LASF4
     /tmp/cc9KMe13.s:2042   .debug_str:000000000000033c .LASF3
     /tmp/cc9KMe13.s:1982   .debug_str:0000000000000079 .LASF5
     /tmp/cc9KMe13.s:1976   .debug_str:0000000000000034 .LASF6
     /tmp/cc9KMe13.s:2020   .debug_str:000000000000026a .LASF7
     /tmp/cc9KMe13.s:2080   .debug_str:000000000000043f .LASF8
     /tmp/cc9KMe13.s:1994   .debug_str:0000000000000172 .LASF9
     /tmp/cc9KMe13.s:2124   .debug_str:00000000000005c2 .LASF10
     /tmp/cc9KMe13.s:2026   .debug_str:00000000000002a0 .LASF11
     /tmp/cc9KMe13.s:2112   .debug_str:0000000000000581 .LASF12
     /tmp/cc9KMe13.s:2088   .debug_str:0000000000000495 .LASF13
     /tmp/cc9KMe13.s:2048   .debug_str:0000000000000366 .LASF14
     /tmp/cc9KMe13.s:2010   .debug_str:0000000000000210 .LASF15
     /tmp/cc9KMe13.s:2082   .debug_str:000000000000044f .LASF16
     /tmp/cc9KMe13.s:1980   .debug_str:0000000000000069 .LASF26
     /tmp/cc9KMe13.s:2032   .debug_str:00000000000002c7 .LASF35
     /tmp/cc9KMe13.s:2046   .debug_str:0000000000000361 .LASF17
     /tmp/cc9KMe13.s:2118   .debug_str:00000000000005a5 .LASF18
     /tmp/cc9KMe13.s:2004   .debug_str:00000000000001e7 .LASF19
     /tmp/cc9KMe13.s:2012   .debug_str:0000000000000226 .LASF66
     /tmp/cc9KMe13.s:1974   .debug_str:000000000000000c .LASF67
     /tmp/cc9KMe13.s:2096   .debug_str:00000000000004df .LASF20
     /tmp/cc9KMe13.s:2002   .debug_str:00000000000001d8 .LASF29
     /tmp/cc9KMe13.s:2056   .debug_str:00000000000003a7 .LASF68
     /tmp/cc9KMe13.s:2116   .debug_str:000000000000059b .LASF21
     /tmp/cc9KMe13.s:2104   .debug_str:0000000000000520 .LASF23
     /tmp/cc9KMe13.s:2090   .debug_str:00000000000004a5 .LASF22
     /tmp/cc9KMe13.s:1978   .debug_str:0000000000000047 .LASF24
     /tmp/cc9KMe13.s:2008   .debug_str:000000000000020b .LASF69
     /tmp/cc9KMe13.s:2086   .debug_str:0000000000000479 .LASF70
     /tmp/cc9KMe13.s:2110   .debug_str:000000000000057c .LASF25
     /tmp/cc9KMe13.s:2018   .debug_str:0000000000000260 .LASF27
     /tmp/cc9KMe13.s:2076   .debug_str:0000000000000425 .LASF28
     /tmp/cc9KMe13.s:1992   .debug_str:000000000000015e .LASF71
     /tmp/cc9KMe13.s:2006   .debug_str:00000000000001f3 .LASF72
     /tmp/cc9KMe13.s:1986   .debug_str:0000000000000085 .LASF30
     /tmp/cc9KMe13.s:2072   .debug_str:0000000000000406 .LASF31
     /tmp/cc9KMe13.s:2084   .debug_str:0000000000000465 .LASF33
     /tmp/cc9KMe13.s:2098   .debug_str:00000000000004ed .LASF32
     /tmp/cc9KMe13.s:2038   .debug_str:00000000000002fe .LASF34
     /tmp/cc9KMe13.s:2052   .debug_str:000000000000038f .LASF36
     /tmp/cc9KMe13.s:2024   .debug_str:000000000000029b .LASF37
     /tmp/cc9KMe13.s:1984   .debug_str:0000000000000080 .LASF38
     /tmp/cc9KMe13.s:2106   .debug_str:0000000000000541 .LASF39
     /tmp/cc9KMe13.s:2060   .debug_str:00000000000003d6 .LASF40
     /tmp/cc9KMe13.s:2102   .debug_str:000000000000051b .LASF41
     /tmp/cc9KMe13.s:2064   .debug_str:00000000000003e6 .LASF42
     /tmp/cc9KMe13.s:2122   .debug_str:00000000000005af .LASF43
     /tmp/cc9KMe13.s:2016   .debug_str:0000000000000249 .LASF49
     /tmp/cc9KMe13.s:2114   .debug_str:0000000000000591 .LASF73
     /tmp/cc9KMe13.s:2092   .debug_str:00000000000004ae .LASF74
     /tmp/cc9KMe13.s:2066   .debug_str:00000000000003eb .LASF44
     /tmp/cc9KMe13.s:2050   .debug_str:0000000000000372 .LASF45
     /tmp/cc9KMe13.s:2058   .debug_str:00000000000003ce .LASF46
     /tmp/cc9KMe13.s:2108   .debug_str:0000000000000560 .LASF47
     /tmp/cc9KMe13.s:1972   .debug_str:0000000000000000 .LASF48
GAS LISTING /tmp/cc9KMe13.s 			page 11


     /tmp/cc9KMe13.s:2022   .debug_str:000000000000027d .LASF50
     /tmp/cc9KMe13.s:2028   .debug_str:00000000000002af .LASF51
     /tmp/cc9KMe13.s:2100   .debug_str:0000000000000500 .LASF52
     /tmp/cc9KMe13.s:1988   .debug_str:000000000000008f .LASF53
     /tmp/cc9KMe13.s:2034   .debug_str:00000000000002cf .LASF54
     /tmp/cc9KMe13.s:2078   .debug_str:0000000000000436 .LASF55
     /tmp/cc9KMe13.s:2094   .debug_str:00000000000004c5 .LASF56
     /tmp/cc9KMe13.s:1996   .debug_str:0000000000000180 .LASF75
     /tmp/cc9KMe13.s:2000   .debug_str:00000000000001a8 .LASF57
     /tmp/cc9KMe13.s:221    .text:0000000000000114 .LFB20
     /tmp/cc9KMe13.s:247    .text:0000000000000148 .LFE20
     /tmp/cc9KMe13.s:237    .text:0000000000000138 .LVL18
     /tmp/cc9KMe13.s:2040   .debug_str:0000000000000312 .LASF58
     /tmp/cc9KMe13.s:9      .text:0000000000000000 .LFB19
     /tmp/cc9KMe13.s:53     .text:0000000000000040 .LFE19
     /tmp/cc9KMe13.s:2074   .debug_str:0000000000000416 .LASF59
     /tmp/cc9KMe13.s:2062   .debug_str:00000000000003db .LASF60
     /tmp/cc9KMe13.s:38     .text:000000000000002c .LBB13
     /tmp/cc9KMe13.s:49     .text:000000000000003c .LBE13
     /tmp/cc9KMe13.s:1842   .debug_loc:0000000000000000 .LLST0
     /tmp/cc9KMe13.s:2120   .debug_str:00000000000005aa .LASF61
     /tmp/cc9KMe13.s:2070   .debug_str:0000000000000401 .LASF62
     /tmp/cc9KMe13.s:2054   .debug_str:0000000000000394 .LASF76
     /tmp/cc9KMe13.s:148    .text:00000000000000a8 .LFB12
     /tmp/cc9KMe13.s:216    .text:0000000000000114 .LFE12
     /tmp/cc9KMe13.s:1851   .debug_loc:000000000000002c .LLST5
     /tmp/cc9KMe13.s:165    .text:00000000000000c0 .LBB22
     /tmp/cc9KMe13.s:1956   .debug_ranges:0000000000000000 .Ldebug_ranges0
     /tmp/cc9KMe13.s:1873   .debug_loc:000000000000008b .LLST6
     /tmp/cc9KMe13.s:1888   .debug_loc:00000000000000d4 .LLST7
     /tmp/cc9KMe13.s:171    .text:00000000000000cc .LVL13
     /tmp/cc9KMe13.s:59     .text:0000000000000040 .LFB11
     /tmp/cc9KMe13.s:134    .text:00000000000000a8 .LFE11
     /tmp/cc9KMe13.s:76     .text:0000000000000054 .LBB16
     /tmp/cc9KMe13.s:1903   .debug_loc:000000000000011c .LLST1
     /tmp/cc9KMe13.s:1918   .debug_loc:0000000000000164 .LLST2
     /tmp/cc9KMe13.s:1929   .debug_loc:000000000000019a .LLST3
     /tmp/cc9KMe13.s:93     .text:0000000000000074 .LBB18
     /tmp/cc9KMe13.s:100    .text:000000000000007c .LBE18
     /tmp/cc9KMe13.s:1936   .debug_loc:00000000000001bd .LLST4
     /tmp/cc9KMe13.s:97     .text:000000000000007c .LVL6
     /tmp/cc9KMe13.s:37     .text:000000000000002c .LVL1
     /tmp/cc9KMe13.s:46     .text:000000000000003c .LVL2
     /tmp/cc9KMe13.s:151    .text:00000000000000a8 .LVL10
     /tmp/cc9KMe13.s:169    .text:00000000000000c4 .LVL12
     /tmp/cc9KMe13.s:197    .text:00000000000000f8 .LVL15
     /tmp/cc9KMe13.s:201    .text:0000000000000100 .LVL16
     /tmp/cc9KMe13.s:164    .text:00000000000000c0 .LVL11
     /tmp/cc9KMe13.s:184    .text:00000000000000ec .LVL14
     /tmp/cc9KMe13.s:210    .text:0000000000000110 .LVL17
     /tmp/cc9KMe13.s:75     .text:0000000000000054 .LVL3
     /tmp/cc9KMe13.s:116    .text:0000000000000094 .LVL7
     /tmp/cc9KMe13.s:128    .text:00000000000000a4 .LVL9
     /tmp/cc9KMe13.s:82     .text:0000000000000060 .LVL4
     /tmp/cc9KMe13.s:124    .text:00000000000000a0 .LVL8
     /tmp/cc9KMe13.s:92     .text:0000000000000074 .LVL5
     /tmp/cc9KMe13.s:266    .debug_info:0000000000000000 .Ldebug_info0
GAS LISTING /tmp/cc9KMe13.s 			page 12


     /tmp/cc9KMe13.s:102    .text:000000000000007c .LBE16
     /tmp/cc9KMe13.s:119    .text:0000000000000094 .LBB21
     /tmp/cc9KMe13.s:130    .text:00000000000000a4 .LBE21
     /tmp/cc9KMe13.s:187    .text:00000000000000ec .LBE22
     /tmp/cc9KMe13.s:204    .text:0000000000000100 .LBB25
     /tmp/cc9KMe13.s:212    .text:0000000000000110 .LBE25
     /tmp/cc9KMe13.s:137    .gcc_except_table:0000000000000000 .LLSDA11

UNDEFINED SYMBOLS
_ZN15MemoryAllocator8mem_freeEPKv
__gxx_personality_v0
_ZN15MemoryAllocator9mem_allocEm
