GAS LISTING /tmp/cccsAOuM.s 			page 1


   1              		.file	"semaphore.cpp"
   2              		.option pic
   3              		.option norelax
   4              		.text
   5              	.Ltext0:
   6              		.align	2
   7              		.globl	_ZN3semnwEm
   9              	_ZN3semnwEm:
  10              	.LFB43:
  11              		.file 1 "src/semaphore.cpp"
   1:src/semaphore.cpp **** //
   2:src/semaphore.cpp **** // Created by os on 6/2/24.
   3:src/semaphore.cpp **** //
   4:src/semaphore.cpp **** 
   5:src/semaphore.cpp **** #include "../h/semaphore.hpp"
   6:src/semaphore.cpp **** 
   7:src/semaphore.cpp **** void *sem::operator new(size_t n)
   8:src/semaphore.cpp **** {
  12              		.loc 1 8 1
  13              		.cfi_startproc
  14              	.LVL0:
  15 0000 130101FF 		addi	sp,sp,-16
  16              		.cfi_def_cfa_offset 16
  17 0004 23341100 		sd	ra,8(sp)
  18 0008 23308100 		sd	s0,0(sp)
  19              		.cfi_offset 1, -8
  20              		.cfi_offset 8, -16
  21 000c 13040101 		addi	s0,sp,16
  22              		.cfi_def_cfa 8, 0
   9:src/semaphore.cpp ****     return MemoryAllocator::mem_alloc(n);
  23              		.loc 1 9 5
  24              		.loc 1 9 38 is_stmt 0
  25 0010 97000000 		call	_ZN15MemoryAllocator9mem_allocEm@plt
  25      E7800000 
  26              	.LVL1:
  10:src/semaphore.cpp **** }
  27              		.loc 1 10 1
  28 0018 83308100 		ld	ra,8(sp)
  29              		.cfi_restore 1
  30 001c 03340100 		ld	s0,0(sp)
  31              		.cfi_restore 8
  32              		.cfi_def_cfa 2, 16
  33 0020 13010101 		addi	sp,sp,16
  34              		.cfi_def_cfa_offset 0
  35 0024 67800000 		jr	ra
  36              		.cfi_endproc
  37              	.LFE43:
  39              		.align	2
  40              		.globl	_ZN3semnaEm
  42              	_ZN3semnaEm:
  43              	.LFB44:
  11:src/semaphore.cpp **** 
  12:src/semaphore.cpp **** void *sem::operator new[](size_t n)
  13:src/semaphore.cpp **** {
  44              		.loc 1 13 1 is_stmt 1
  45              		.cfi_startproc
  46              	.LVL2:
GAS LISTING /tmp/cccsAOuM.s 			page 2


  47 0028 130101FF 		addi	sp,sp,-16
  48              		.cfi_def_cfa_offset 16
  49 002c 23341100 		sd	ra,8(sp)
  50 0030 23308100 		sd	s0,0(sp)
  51              		.cfi_offset 1, -8
  52              		.cfi_offset 8, -16
  53 0034 13040101 		addi	s0,sp,16
  54              		.cfi_def_cfa 8, 0
  14:src/semaphore.cpp ****     return MemoryAllocator::mem_alloc(n);
  55              		.loc 1 14 5
  56              		.loc 1 14 38 is_stmt 0
  57 0038 97000000 		call	_ZN15MemoryAllocator9mem_allocEm@plt
  57      E7800000 
  58              	.LVL3:
  15:src/semaphore.cpp **** }
  59              		.loc 1 15 1
  60 0040 83308100 		ld	ra,8(sp)
  61              		.cfi_restore 1
  62 0044 03340100 		ld	s0,0(sp)
  63              		.cfi_restore 8
  64              		.cfi_def_cfa 2, 16
  65 0048 13010101 		addi	sp,sp,16
  66              		.cfi_def_cfa_offset 0
  67 004c 67800000 		jr	ra
  68              		.cfi_endproc
  69              	.LFE44:
  71              		.align	2
  72              		.globl	_ZN3semdlEPv
  74              	_ZN3semdlEPv:
  75              	.LFB45:
  16:src/semaphore.cpp **** 
  17:src/semaphore.cpp **** void sem::operator delete(void *p) noexcept
  18:src/semaphore.cpp **** {
  76              		.loc 1 18 1 is_stmt 1
  77              		.cfi_startproc
  78              		.cfi_personality 0x9b,DW.ref.__gxx_personality_v0
  79              		.cfi_lsda 0x1b,.LLSDA45
  80              	.LVL4:
  81 0050 130101FF 		addi	sp,sp,-16
  82              		.cfi_def_cfa_offset 16
  83 0054 23341100 		sd	ra,8(sp)
  84 0058 23308100 		sd	s0,0(sp)
  85              		.cfi_offset 1, -8
  86              		.cfi_offset 8, -16
  87 005c 13040101 		addi	s0,sp,16
  88              		.cfi_def_cfa 8, 0
  19:src/semaphore.cpp ****     MemoryAllocator::mem_free(p);
  89              		.loc 1 19 5
  90              		.loc 1 19 30 is_stmt 0
  91 0060 97000000 		call	_ZN15MemoryAllocator8mem_freeEPKv@plt
  91      E7800000 
  92              	.LVL5:
  20:src/semaphore.cpp **** }
  93              		.loc 1 20 1
  94 0068 83308100 		ld	ra,8(sp)
  95              		.cfi_restore 1
  96 006c 03340100 		ld	s0,0(sp)
GAS LISTING /tmp/cccsAOuM.s 			page 3


  97              		.cfi_restore 8
  98              		.cfi_def_cfa 2, 16
  99 0070 13010101 		addi	sp,sp,16
 100              		.cfi_def_cfa_offset 0
 101 0074 67800000 		jr	ra
 102              		.cfi_endproc
 103              	.LFE45:
 104              		.globl	__gxx_personality_v0
 105              		.section	.gcc_except_table,"a",@progbits
 106              	.LLSDA45:
 107 0000 FF       		.byte	0xff
 108 0001 FF       		.byte	0xff
 109 0002 03       		.byte	0x3
 110 0003 00       		.byte	0
 111              		.text
 113              		.align	2
 114              		.globl	_ZN3semdaEPv
 116              	_ZN3semdaEPv:
 117              	.LFB46:
  21:src/semaphore.cpp **** 
  22:src/semaphore.cpp **** void sem::operator delete[](void *p) noexcept
  23:src/semaphore.cpp **** {
 118              		.loc 1 23 1 is_stmt 1
 119              		.cfi_startproc
 120              		.cfi_personality 0x9b,DW.ref.__gxx_personality_v0
 121              		.cfi_lsda 0x1b,.LLSDA46
 122              	.LVL6:
 123 0078 130101FF 		addi	sp,sp,-16
 124              		.cfi_def_cfa_offset 16
 125 007c 23341100 		sd	ra,8(sp)
 126 0080 23308100 		sd	s0,0(sp)
 127              		.cfi_offset 1, -8
 128              		.cfi_offset 8, -16
 129 0084 13040101 		addi	s0,sp,16
 130              		.cfi_def_cfa 8, 0
  24:src/semaphore.cpp ****     MemoryAllocator::mem_free(p);
 131              		.loc 1 24 5
 132              		.loc 1 24 30 is_stmt 0
 133 0088 97000000 		call	_ZN15MemoryAllocator8mem_freeEPKv@plt
 133      E7800000 
 134              	.LVL7:
  25:src/semaphore.cpp **** }
 135              		.loc 1 25 1
 136 0090 83308100 		ld	ra,8(sp)
 137              		.cfi_restore 1
 138 0094 03340100 		ld	s0,0(sp)
 139              		.cfi_restore 8
 140              		.cfi_def_cfa 2, 16
 141 0098 13010101 		addi	sp,sp,16
 142              		.cfi_def_cfa_offset 0
 143 009c 67800000 		jr	ra
 144              		.cfi_endproc
 145              	.LFE46:
 146              		.section	.gcc_except_table
 147              	.LLSDA46:
 148 0004 FF       		.byte	0xff
 149 0005 FF       		.byte	0xff
GAS LISTING /tmp/cccsAOuM.s 			page 4


 150 0006 03       		.byte	0x3
 151 0007 00       		.byte	0
 152              		.text
 154              		.align	2
 155              		.globl	_ZN3sem13openSemaphoreEi
 157              	_ZN3sem13openSemaphoreEi:
 158              	.LFB47:
  26:src/semaphore.cpp **** 
  27:src/semaphore.cpp **** sem *sem::openSemaphore(int val) {
 159              		.loc 1 27 34 is_stmt 1
 160              		.cfi_startproc
 161              	.LVL8:
 162 00a0 130101FE 		addi	sp,sp,-32
 163              		.cfi_def_cfa_offset 32
 164 00a4 233C1100 		sd	ra,24(sp)
 165 00a8 23388100 		sd	s0,16(sp)
 166 00ac 23349100 		sd	s1,8(sp)
 167              		.cfi_offset 1, -8
 168              		.cfi_offset 8, -16
 169              		.cfi_offset 9, -24
 170 00b0 13040102 		addi	s0,sp,32
 171              		.cfi_def_cfa 8, 0
 172 00b4 93040500 		mv	s1,a0
  28:src/semaphore.cpp ****     return new sem(val);
 173              		.loc 1 28 5
 174              		.loc 1 28 23 is_stmt 0
 175 00b8 13058001 		li	a0,24
 176              	.LVL9:
 177 00bc 97000000 		call	_ZN3semnwEm
 177      E7800000 
 178              	.LVL10:
 179              	.LBB26:
 180              	.LBB27:
 181              		.file 2 "src/../h/semaphore.hpp"
   1:src/../h/semaphore.hpp **** //
   2:src/../h/semaphore.hpp **** // Created by os on 6/2/24.
   3:src/../h/semaphore.hpp **** //
   4:src/../h/semaphore.hpp **** 
   5:src/../h/semaphore.hpp **** #ifndef PROJEKAT_1_1_SEMAPHORE_HPP
   6:src/../h/semaphore.hpp **** #define PROJEKAT_1_1_SEMAPHORE_HPP
   7:src/../h/semaphore.hpp **** 
   8:src/../h/semaphore.hpp **** 
   9:src/../h/semaphore.hpp **** #include "../lib/hw.h"
  10:src/../h/semaphore.hpp **** #include "tcb.hpp"
  11:src/../h/semaphore.hpp **** 
  12:src/../h/semaphore.hpp **** class sem {
  13:src/../h/semaphore.hpp **** 
  14:src/../h/semaphore.hpp ****     void *operator new(size_t n);
  15:src/../h/semaphore.hpp **** 
  16:src/../h/semaphore.hpp ****     void *operator new[](size_t n);
  17:src/../h/semaphore.hpp **** 
  18:src/../h/semaphore.hpp ****     void operator delete(void *p) noexcept;
  19:src/../h/semaphore.hpp **** 
  20:src/../h/semaphore.hpp ****     void operator delete[](void *p) noexcept;
  21:src/../h/semaphore.hpp **** public:
  22:src/../h/semaphore.hpp ****     static sem* openSemaphore(int val);
  23:src/../h/semaphore.hpp ****     int closeSemaphore();
GAS LISTING /tmp/cccsAOuM.s 			page 5


  24:src/../h/semaphore.hpp ****     int wait();
  25:src/../h/semaphore.hpp ****     int signal();
  26:src/../h/semaphore.hpp ****     int trywait();
  27:src/../h/semaphore.hpp ****     int timed_wait();
  28:src/../h/semaphore.hpp **** 
  29:src/../h/semaphore.hpp **** 
  30:src/../h/semaphore.hpp **** private:
  31:src/../h/semaphore.hpp ****     explicit sem(int val = 1): value(val), closed(false){};
 182              		.loc 2 31 56
 183 00c4 23209500 		sw	s1,0(a0)
 184 00c8 23020500 		sb	zero,4(a0)
 185              	.LVL11:
 186              	.LBB28:
 187              	.LBB29:
 188              		.file 3 "src/../h/list.hpp"
   1:src/../h/list.hpp **** //
   2:src/../h/list.hpp **** // Created by os on 5/17/24.
   3:src/../h/list.hpp **** //
   4:src/../h/list.hpp **** 
   5:src/../h/list.hpp **** #ifndef PROJEKAT_LIST_HPP
   6:src/../h/list.hpp **** #define PROJEKAT_LIST_HPP
   7:src/../h/list.hpp **** 
   8:src/../h/list.hpp **** #include "MemoryAllocator.hpp"
   9:src/../h/list.hpp **** 
  10:src/../h/list.hpp **** template<typename T>
  11:src/../h/list.hpp **** class List
  12:src/../h/list.hpp ****         {
  13:src/../h/list.hpp ****         private:
  14:src/../h/list.hpp **** 
  15:src/../h/list.hpp ****     void *operator new(size_t n)
  16:src/../h/list.hpp ****     {
  17:src/../h/list.hpp ****         return MemoryAllocator::mem_alloc(n);
  18:src/../h/list.hpp ****     }
  19:src/../h/list.hpp **** 
  20:src/../h/list.hpp ****     void *operator new[](size_t n)
  21:src/../h/list.hpp ****     {
  22:src/../h/list.hpp ****         return MemoryAllocator::mem_alloc(n);
  23:src/../h/list.hpp ****     }
  24:src/../h/list.hpp **** 
  25:src/../h/list.hpp ****     void operator delete(void *p) noexcept
  26:src/../h/list.hpp ****     {
  27:src/../h/list.hpp ****         MemoryAllocator::mem_free(p);
  28:src/../h/list.hpp ****     }
  29:src/../h/list.hpp **** 
  30:src/../h/list.hpp ****     void operator delete[](void *p) noexcept
  31:src/../h/list.hpp ****     {
  32:src/../h/list.hpp ****         MemoryAllocator::mem_free(p);
  33:src/../h/list.hpp ****     }
  34:src/../h/list.hpp **** 
  35:src/../h/list.hpp **** 
  36:src/../h/list.hpp **** 
  37:src/../h/list.hpp **** 
  38:src/../h/list.hpp ****             struct Elem{
  39:src/../h/list.hpp ****                 T* data;
  40:src/../h/list.hpp ****                 Elem* next;
  41:src/../h/list.hpp ****                 Elem(T*data,Elem * next) : data(data), next(next){};
  42:src/../h/list.hpp ****             };
GAS LISTING /tmp/cccsAOuM.s 			page 6


  43:src/../h/list.hpp ****             Elem*head,*tail;
  44:src/../h/list.hpp **** 
  45:src/../h/list.hpp ****         public:
  46:src/../h/list.hpp ****             List():head(0), tail(0){}
 189              		.loc 3 46 35
 190 00cc 23340500 		sd	zero,8(a0)
 191 00d0 23380500 		sd	zero,16(a0)
 192              	.LVL12:
 193              	.LBE29:
 194              	.LBE28:
 195              	.LBE27:
 196              	.LBE26:
  29:src/semaphore.cpp **** }
 197              		.loc 1 29 1
 198 00d4 83308101 		ld	ra,24(sp)
 199              		.cfi_restore 1
 200 00d8 03340101 		ld	s0,16(sp)
 201              		.cfi_restore 8
 202              		.cfi_def_cfa 2, 32
 203 00dc 83348100 		ld	s1,8(sp)
 204              		.cfi_restore 9
 205 00e0 13010102 		addi	sp,sp,32
 206              		.cfi_def_cfa_offset 0
 207 00e4 67800000 		jr	ra
 208              		.cfi_endproc
 209              	.LFE47:
 211              		.align	2
 212              		.globl	_ZN3sem7trywaitEv
 214              	_ZN3sem7trywaitEv:
 215              	.LFB51:
  30:src/semaphore.cpp **** 
  31:src/semaphore.cpp **** int sem::closeSemaphore() {
  32:src/semaphore.cpp ****     if(!this->closed) this->closed = true;
  33:src/semaphore.cpp ****     else return -2;
  34:src/semaphore.cpp **** 
  35:src/semaphore.cpp ****    while(this->blocked.peekFirst()){
  36:src/semaphore.cpp ****        unblock();
  37:src/semaphore.cpp ****    }
  38:src/semaphore.cpp **** 
  39:src/semaphore.cpp ****    //delete this;
  40:src/semaphore.cpp ****     return 0;
  41:src/semaphore.cpp **** }
  42:src/semaphore.cpp **** 
  43:src/semaphore.cpp **** int sem::wait() {
  44:src/semaphore.cpp ****     if(this->closed) return -2;
  45:src/semaphore.cpp ****     this->value--;
  46:src/semaphore.cpp ****     if(this->value <0){
  47:src/semaphore.cpp ****         block();
  48:src/semaphore.cpp ****     }
  49:src/semaphore.cpp **** 
  50:src/semaphore.cpp ****     return 0;
  51:src/semaphore.cpp **** }
  52:src/semaphore.cpp **** 
  53:src/semaphore.cpp **** int sem::signal() {
  54:src/semaphore.cpp ****     if(this->closed) return -2;
  55:src/semaphore.cpp ****     this->value++;
  56:src/semaphore.cpp ****     if(this->value <=0){
GAS LISTING /tmp/cccsAOuM.s 			page 7


  57:src/semaphore.cpp ****        unblock();
  58:src/semaphore.cpp ****     }
  59:src/semaphore.cpp ****     return 0;
  60:src/semaphore.cpp **** }
  61:src/semaphore.cpp **** 
  62:src/semaphore.cpp **** int sem::trywait() {
 216              		.loc 1 62 20 is_stmt 1
 217              		.cfi_startproc
 218              	.LVL13:
 219 00e8 130101FF 		addi	sp,sp,-16
 220              		.cfi_def_cfa_offset 16
 221 00ec 23348100 		sd	s0,8(sp)
 222              		.cfi_offset 8, -8
 223 00f0 13040101 		addi	s0,sp,16
 224              		.cfi_def_cfa 8, 0
  63:src/semaphore.cpp **** 
  64:src/semaphore.cpp ****     if(this->closed) return -2;
 225              		.loc 1 64 5
 226              		.loc 1 64 14 is_stmt 0
 227 00f4 83474500 		lbu	a5,4(a0)
 228              		.loc 1 64 5
 229 00f8 639E0700 		bnez	a5,.L13
  65:src/semaphore.cpp ****     if(this->value -1 <0){
 230              		.loc 1 65 5 is_stmt 1
 231              		.loc 1 65 14 is_stmt 0
 232 00fc 83270500 		lw	a5,0(a0)
 233              		.loc 1 65 5
 234 0100 635EF000 		blez	a5,.L14
  66:src/semaphore.cpp ****         return 0;
  67:src/semaphore.cpp ****     }
  68:src/semaphore.cpp ****     return 1;
 235              		.loc 1 68 12
 236 0104 13051000 		li	a0,1
 237              	.LVL14:
 238              	.L12:
  69:src/semaphore.cpp **** 
  70:src/semaphore.cpp **** }
 239              		.loc 1 70 1
 240 0108 03348100 		ld	s0,8(sp)
 241              		.cfi_remember_state
 242              		.cfi_restore 8
 243              		.cfi_def_cfa 2, 16
 244 010c 13010101 		addi	sp,sp,16
 245              		.cfi_def_cfa_offset 0
 246 0110 67800000 		jr	ra
 247              	.LVL15:
 248              	.L13:
 249              		.cfi_restore_state
  64:src/semaphore.cpp ****     if(this->value -1 <0){
 250              		.loc 1 64 30
 251 0114 1305E0FF 		li	a0,-2
 252              	.LVL16:
 253 0118 6FF01FFF 		j	.L12
 254              	.LVL17:
 255              	.L14:
  66:src/semaphore.cpp ****         return 0;
 256              		.loc 1 66 16
GAS LISTING /tmp/cccsAOuM.s 			page 8


 257 011c 13050000 		li	a0,0
 258              	.LVL18:
 259 0120 6FF09FFE 		j	.L12
 260              		.cfi_endproc
 261              	.LFE51:
 263              		.align	2
 264              		.globl	_ZN3sem10timed_waitEv
 266              	_ZN3sem10timed_waitEv:
 267              	.LFB52:
  71:src/semaphore.cpp **** 
  72:src/semaphore.cpp **** int sem::timed_wait() {
 268              		.loc 1 72 23 is_stmt 1
 269              		.cfi_startproc
 270              	.LVL19:
 271 0124 130101FF 		addi	sp,sp,-16
 272              		.cfi_def_cfa_offset 16
 273 0128 23348100 		sd	s0,8(sp)
 274              		.cfi_offset 8, -8
 275 012c 13040101 		addi	s0,sp,16
 276              		.cfi_def_cfa 8, 0
  73:src/semaphore.cpp ****     return 0;
 277              		.loc 1 73 5
  74:src/semaphore.cpp **** }
 278              		.loc 1 74 1 is_stmt 0
 279 0130 13050000 		li	a0,0
 280              	.LVL20:
 281 0134 03348100 		ld	s0,8(sp)
 282              		.cfi_restore 8
 283              		.cfi_def_cfa 2, 16
 284 0138 13010101 		addi	sp,sp,16
 285              		.cfi_def_cfa_offset 0
 286 013c 67800000 		jr	ra
 287              		.cfi_endproc
 288              	.LFE52:
 290              		.align	2
 291              		.globl	_ZN3sem5blockEv
 293              	_ZN3sem5blockEv:
 294              	.LFB53:
  75:src/semaphore.cpp **** 
  76:src/semaphore.cpp **** void sem::block() {
 295              		.loc 1 76 19 is_stmt 1
 296              		.cfi_startproc
 297              	.LVL21:
 298 0140 130101FE 		addi	sp,sp,-32
 299              		.cfi_def_cfa_offset 32
 300 0144 233C1100 		sd	ra,24(sp)
 301 0148 23388100 		sd	s0,16(sp)
 302 014c 23349100 		sd	s1,8(sp)
 303 0150 23302101 		sd	s2,0(sp)
 304              		.cfi_offset 1, -8
 305              		.cfi_offset 8, -16
 306              		.cfi_offset 9, -24
 307              		.cfi_offset 18, -32
 308 0154 13040102 		addi	s0,sp,32
 309              		.cfi_def_cfa 8, 0
 310 0158 93040500 		mv	s1,a0
  77:src/semaphore.cpp ****     this->blocked.addLast(TCB::running);
GAS LISTING /tmp/cccsAOuM.s 			page 9


 311              		.loc 1 77 5
 312              		.loc 1 77 26 is_stmt 0
 313 015c 97070000 		la	a5,_ZN3TCB7runningE
 313      83B70700 
 314 0164 03B90700 		ld	s2,0(a5)
 315              	.LVL22:
 316              	.LBB30:
 317              	.LBB31:
 318              	.LBB32:
 319              	.LBB33:
  17:src/../h/list.hpp ****     }
 320              		.loc 3 17 42
 321 0168 13050001 		li	a0,16
 322              	.LVL23:
 323 016c 97000000 		call	_ZN15MemoryAllocator9mem_allocEm@plt
 323      E7800000 
 324              	.LVL24:
 325              	.LBE33:
 326              	.LBE32:
  47:src/../h/list.hpp ****             List(const List<T> &) = delete;
  48:src/../h/list.hpp ****             List<T> &operator=(const List<T> &) = delete;
  49:src/../h/list.hpp **** 
  50:src/../h/list.hpp ****             void addFirst(T*data){
  51:src/../h/list.hpp ****                 Elem* elem = (Elem*)operator new(sizeof(Elem));
  52:src/../h/list.hpp ****                 elem->data=data;
  53:src/../h/list.hpp ****                 elem->next=0;
  54:src/../h/list.hpp ****                 head= elem;
  55:src/../h/list.hpp ****                 if(!tail) tail = head;
  56:src/../h/list.hpp ****             }
  57:src/../h/list.hpp ****             void addLast (T* data){
  58:src/../h/list.hpp ****                 Elem* elem = (Elem*)operator new(sizeof(Elem));
  59:src/../h/list.hpp ****                 elem->data=data;
 327              		.loc 3 59 17
 328 0174 23302501 		sd	s2,0(a0)
  60:src/../h/list.hpp ****                 elem->next=0;
 329              		.loc 3 60 17
 330 0178 23340500 		sd	zero,8(a0)
  61:src/../h/list.hpp ****                 if(tail){
 331              		.loc 3 61 20
 332 017c 83B70401 		ld	a5,16(s1)
 333              		.loc 3 61 17
 334 0180 63880704 		beqz	a5,.L19
  62:src/../h/list.hpp ****                     tail->next = elem;
 335              		.loc 3 62 21
 336 0184 23B4A700 		sd	a0,8(a5)
  63:src/../h/list.hpp ****                     tail = elem;
 337              		.loc 3 63 21
 338 0188 23B8A400 		sd	a0,16(s1)
 339              	.L20:
 340              	.LVL25:
 341              	.LBE31:
 342              	.LBE30:
  78:src/semaphore.cpp ****     TCB::running->setBlocked(true);
 343              		.loc 1 78 5 is_stmt 1
 344              		.loc 1 78 29 is_stmt 0
 345 018c 93051000 		li	a1,1
 346 0190 97070000 		la	a5,_ZN3TCB7runningE
GAS LISTING /tmp/cccsAOuM.s 			page 10


 346      83B70700 
 347 0198 03B50700 		ld	a0,0(a5)
 348              	.LVL26:
 349 019c 97000000 		call	_ZN3TCB10setBlockedEb@plt
 349      E7800000 
 350              	.LVL27:
  79:src/semaphore.cpp **** 
  80:src/semaphore.cpp ****     TCB::timeSliceCounter=0;
 351              		.loc 1 80 5 is_stmt 1
 352              		.loc 1 80 26 is_stmt 0
 353 01a4 97070000 		la	a5,_ZN3TCB16timeSliceCounterE
 353      83B70700 
 354 01ac 23B00700 		sd	zero,0(a5)
  81:src/semaphore.cpp ****     TCB::dispatch();
 355              		.loc 1 81 5 is_stmt 1
 356              		.loc 1 81 18 is_stmt 0
 357 01b0 97000000 		call	_ZN3TCB8dispatchEv@plt
 357      E7800000 
 358              	.LVL28:
  82:src/semaphore.cpp **** }
 359              		.loc 1 82 1
 360 01b8 83308101 		ld	ra,24(sp)
 361              		.cfi_remember_state
 362              		.cfi_restore 1
 363 01bc 03340101 		ld	s0,16(sp)
 364              		.cfi_restore 8
 365              		.cfi_def_cfa 2, 32
 366 01c0 83348100 		ld	s1,8(sp)
 367              		.cfi_restore 9
 368              	.LVL29:
 369 01c4 03390100 		ld	s2,0(sp)
 370              		.cfi_restore 18
 371 01c8 13010102 		addi	sp,sp,32
 372              		.cfi_def_cfa_offset 0
 373 01cc 67800000 		jr	ra
 374              	.LVL30:
 375              	.L19:
 376              		.cfi_restore_state
 377              	.LBB35:
 378              	.LBB34:
  64:src/../h/list.hpp ****                 }else{
  65:src/../h/list.hpp ****                     head= tail = elem;
 379              		.loc 3 65 21
 380 01d0 23B8A400 		sd	a0,16(s1)
 381 01d4 23B4A400 		sd	a0,8(s1)
 382 01d8 6FF05FFB 		j	.L20
 383              	.LBE34:
 384              	.LBE35:
 385              		.cfi_endproc
 386              	.LFE53:
 388              		.align	2
 389              		.globl	_ZN3sem4waitEv
 391              	_ZN3sem4waitEv:
 392              	.LFB49:
  43:src/semaphore.cpp ****     if(this->closed) return -2;
 393              		.loc 1 43 17 is_stmt 1
 394              		.cfi_startproc
GAS LISTING /tmp/cccsAOuM.s 			page 11


 395              	.LVL31:
  44:src/semaphore.cpp ****     this->value--;
 396              		.loc 1 44 5
  44:src/semaphore.cpp ****     this->value--;
 397              		.loc 1 44 14 is_stmt 0
 398 01dc 83474500 		lbu	a5,4(a0)
  44:src/semaphore.cpp ****     this->value--;
 399              		.loc 1 44 5
 400 01e0 63960704 		bnez	a5,.L24
  45:src/semaphore.cpp ****     if(this->value <0){
 401              		.loc 1 45 5 is_stmt 1
  45:src/semaphore.cpp ****     if(this->value <0){
 402              		.loc 1 45 11 is_stmt 0
 403 01e4 83270500 		lw	a5,0(a0)
  45:src/semaphore.cpp ****     if(this->value <0){
 404              		.loc 1 45 16
 405 01e8 9B87F7FF 		addiw	a5,a5,-1
 406 01ec 2320F500 		sw	a5,0(a0)
  46:src/semaphore.cpp ****         block();
 407              		.loc 1 46 5 is_stmt 1
 408 01f0 13970702 		slli	a4,a5,32
 409 01f4 63460700 		bltz	a4,.L30
  50:src/semaphore.cpp **** }
 410              		.loc 1 50 12 is_stmt 0
 411 01f8 13050000 		li	a0,0
 412              	.LVL32:
  51:src/semaphore.cpp **** 
 413              		.loc 1 51 1
 414 01fc 67800000 		ret
 415              	.LVL33:
 416              	.L30:
  43:src/semaphore.cpp ****     if(this->closed) return -2;
 417              		.loc 1 43 17
 418 0200 130101FF 		addi	sp,sp,-16
 419              		.cfi_def_cfa_offset 16
 420 0204 23341100 		sd	ra,8(sp)
 421 0208 23308100 		sd	s0,0(sp)
 422              		.cfi_offset 1, -8
 423              		.cfi_offset 8, -16
 424 020c 13040101 		addi	s0,sp,16
 425              		.cfi_def_cfa 8, 0
  47:src/semaphore.cpp ****     }
 426              		.loc 1 47 9 is_stmt 1
  47:src/semaphore.cpp ****     }
 427              		.loc 1 47 14 is_stmt 0
 428 0210 97000000 		call	_ZN3sem5blockEv
 428      E7800000 
 429              	.LVL34:
  50:src/semaphore.cpp **** }
 430              		.loc 1 50 12
 431 0218 13050000 		li	a0,0
  51:src/semaphore.cpp **** 
 432              		.loc 1 51 1
 433 021c 83308100 		ld	ra,8(sp)
 434              		.cfi_restore 1
 435 0220 03340100 		ld	s0,0(sp)
 436              		.cfi_restore 8
GAS LISTING /tmp/cccsAOuM.s 			page 12


 437              		.cfi_def_cfa 2, 16
 438 0224 13010101 		addi	sp,sp,16
 439              		.cfi_def_cfa_offset 0
 440 0228 67800000 		jr	ra
 441              	.LVL35:
 442              	.L24:
  44:src/semaphore.cpp ****     this->value--;
 443              		.loc 1 44 30
 444 022c 1305E0FF 		li	a0,-2
 445              	.LVL36:
 446 0230 67800000 		ret
 447              		.cfi_endproc
 448              	.LFE49:
 450              		.align	2
 451              		.globl	_ZN3sem7unblockEv
 453              	_ZN3sem7unblockEv:
 454              	.LFB54:
  83:src/semaphore.cpp **** 
  84:src/semaphore.cpp **** void sem::unblock() {
 455              		.loc 1 84 21 is_stmt 1
 456              		.cfi_startproc
 457              		.cfi_personality 0x9b,DW.ref.__gxx_personality_v0
 458              		.cfi_lsda 0x1b,.LLSDA54
 459              	.LVL37:
 460 0234 93070500 		mv	a5,a0
  85:src/semaphore.cpp **** 
  86:src/semaphore.cpp ****     TCB *thread = this->blocked.removeFirst();
 461              		.loc 1 86 5
 462              	.LVL38:
 463              	.LBB36:
 464              	.LBB37:
  66:src/../h/list.hpp ****                 }
  67:src/../h/list.hpp ****             }
  68:src/../h/list.hpp **** 
  69:src/../h/list.hpp ****             T* removeFirst(){
  70:src/../h/list.hpp ****                 if(!head)return 0;
 465              		.loc 3 70 21 is_stmt 0
 466 0238 03358500 		ld	a0,8(a0)
 467              	.LVL39:
 468              		.loc 3 70 17
 469 023c 63060506 		beqz	a0,.L35
 470              	.LBE37:
 471              	.LBE36:
  84:src/semaphore.cpp **** 
 472              		.loc 1 84 21
 473 0240 130101FE 		addi	sp,sp,-32
 474              		.cfi_def_cfa_offset 32
 475 0244 233C1100 		sd	ra,24(sp)
 476 0248 23388100 		sd	s0,16(sp)
 477 024c 23349100 		sd	s1,8(sp)
 478              		.cfi_offset 1, -8
 479              		.cfi_offset 8, -16
 480              		.cfi_offset 9, -24
 481 0250 13040102 		addi	s0,sp,32
 482              		.cfi_def_cfa 8, 0
 483              	.LVL40:
 484              	.LBB42:
GAS LISTING /tmp/cccsAOuM.s 			page 13


 485              	.LBB40:
  71:src/../h/list.hpp ****                 Elem *elem = head;
  72:src/../h/list.hpp ****                 head = head->next;
 486              		.loc 3 72 30
 487 0254 03378500 		ld	a4,8(a0)
 488              		.loc 3 72 17
 489 0258 23B4E700 		sd	a4,8(a5)
  73:src/../h/list.hpp ****                 if(!head) tail = 0;
 490              		.loc 3 73 17
 491 025c 63020704 		beqz	a4,.L38
 492              	.L33:
  74:src/../h/list.hpp ****                 T *ret = elem->data;
 493              		.loc 3 74 20
 494 0260 83340500 		ld	s1,0(a0)
 495              	.LVL41:
 496              	.LBB38:
 497              	.LBB39:
  27:src/../h/list.hpp ****     }
 498              		.loc 3 27 34
 499 0264 97000000 		call	_ZN15MemoryAllocator8mem_freeEPKv@plt
 499      E7800000 
 500              	.LVL42:
 501              	.LBE39:
 502              	.LBE38:
 503              	.LBE40:
 504              	.LBE42:
  87:src/semaphore.cpp ****     if (thread) {
 505              		.loc 1 87 5 is_stmt 1
 506 026c 63800402 		beqz	s1,.L31
  88:src/semaphore.cpp ****         thread->setBlocked(false);
 507              		.loc 1 88 9
 508              		.loc 1 88 27 is_stmt 0
 509 0270 93050000 		li	a1,0
 510 0274 13850400 		mv	a0,s1
 511              	.LEHB0:
 512 0278 97000000 		call	_ZN3TCB10setBlockedEb@plt
 512      E7800000 
 513              	.LVL43:
  89:src/semaphore.cpp ****         Scheduler::put(thread);
 514              		.loc 1 89 9 is_stmt 1
 515              		.loc 1 89 23 is_stmt 0
 516 0280 13850400 		mv	a0,s1
 517 0284 97000000 		call	_ZN9Scheduler3putEP3TCB@plt
 517      E7800000 
 518              	.LVL44:
 519              	.LEHE0:
 520              	.L31:
  90:src/semaphore.cpp ****     }
  91:src/semaphore.cpp **** }
 521              		.loc 1 91 1
 522 028c 83308101 		ld	ra,24(sp)
 523              		.cfi_remember_state
 524              		.cfi_restore 1
 525 0290 03340101 		ld	s0,16(sp)
 526              		.cfi_restore 8
 527              		.cfi_def_cfa 2, 32
 528 0294 83348100 		ld	s1,8(sp)
GAS LISTING /tmp/cccsAOuM.s 			page 14


 529              		.cfi_restore 9
 530 0298 13010102 		addi	sp,sp,32
 531              		.cfi_def_cfa_offset 0
 532 029c 67800000 		jr	ra
 533              	.LVL45:
 534              	.L38:
 535              		.cfi_restore_state
 536              	.LBB43:
 537              	.LBB41:
  73:src/../h/list.hpp ****                 T *ret = elem->data;
 538              		.loc 3 73 27
 539 02a0 23B80700 		sd	zero,16(a5)
 540 02a4 6FF0DFFB 		j	.L33
 541              	.LVL46:
 542              	.L35:
 543              		.cfi_def_cfa_register 2
 544              		.cfi_restore 1
 545              		.cfi_restore 8
 546              		.cfi_restore 9
 547 02a8 67800000 		ret
 548              	.LBE41:
 549              	.LBE43:
 550              		.cfi_endproc
 551              	.LFE54:
 552              		.section	.gcc_except_table
 553              	.LLSDA54:
 554 0008 FF       		.byte	0xff
 555 0009 FF       		.byte	0xff
 556 000a 03       		.byte	0x3
 557 000b 0D       		.byte	0xd
 558 000c 00000000 		.4byte	.LEHB0-.LFB54
 559 0010 00000000 		.4byte	.LEHE0-.LEHB0
 560 0014 00000000 		.4byte	0
 561 0018 00       		.byte	0
 562              		.text
 564              		.align	2
 565              		.globl	_ZN3sem14closeSemaphoreEv
 567              	_ZN3sem14closeSemaphoreEv:
 568              	.LFB48:
  31:src/semaphore.cpp ****     if(!this->closed) this->closed = true;
 569              		.loc 1 31 27 is_stmt 1
 570              		.cfi_startproc
 571              	.LVL47:
  32:src/semaphore.cpp ****     else return -2;
 572              		.loc 1 32 5
  32:src/semaphore.cpp ****     else return -2;
 573              		.loc 1 32 15 is_stmt 0
 574 02ac 83474500 		lbu	a5,4(a0)
  32:src/semaphore.cpp ****     else return -2;
 575              		.loc 1 32 5
 576 02b0 63920704 		bnez	a5,.L42
  31:src/semaphore.cpp ****     if(!this->closed) this->closed = true;
 577              		.loc 1 31 27 discriminator 1
 578 02b4 130101FE 		addi	sp,sp,-32
 579              		.cfi_def_cfa_offset 32
 580 02b8 233C1100 		sd	ra,24(sp)
 581 02bc 23388100 		sd	s0,16(sp)
GAS LISTING /tmp/cccsAOuM.s 			page 15


 582 02c0 23349100 		sd	s1,8(sp)
 583              		.cfi_offset 1, -8
 584              		.cfi_offset 8, -16
 585              		.cfi_offset 9, -24
 586 02c4 13040102 		addi	s0,sp,32
 587              		.cfi_def_cfa 8, 0
 588 02c8 93040500 		mv	s1,a0
  32:src/semaphore.cpp ****     else return -2;
 589              		.loc 1 32 23 is_stmt 1 discriminator 1
  32:src/semaphore.cpp ****     else return -2;
 590              		.loc 1 32 36 is_stmt 0 discriminator 1
 591 02cc 93071000 		li	a5,1
 592 02d0 2302F500 		sb	a5,4(a0)
 593              	.LVL48:
 594              	.L41:
  35:src/semaphore.cpp ****        unblock();
 595              		.loc 1 35 4 is_stmt 1
  35:src/semaphore.cpp ****        unblock();
 596              		.loc 1 35 34
 597              	.LBB44:
 598              	.LBB45:
  75:src/../h/list.hpp ****                 operator delete(elem);
  76:src/../h/list.hpp ****                 return ret;
  77:src/../h/list.hpp ****             }
  78:src/../h/list.hpp ****             T* peekFirst(){
  79:src/../h/list.hpp ****                 if(!head) return 0;
 599              		.loc 3 79 21 is_stmt 0
 600 02d4 83B78400 		ld	a5,8(s1)
 601              		.loc 3 79 17
 602 02d8 63820702 		beqz	a5,.L43
  80:src/../h/list.hpp ****                 return head->data;
 603              		.loc 3 80 30
 604 02dc 83B70700 		ld	a5,0(a5)
 605              	.LVL49:
 606              	.LBE45:
 607              	.LBE44:
  35:src/semaphore.cpp ****        unblock();
 608              		.loc 1 35 34
 609 02e0 638A0702 		beqz	a5,.L44
  36:src/semaphore.cpp ****    }
 610              		.loc 1 36 8 is_stmt 1
  36:src/semaphore.cpp ****    }
 611              		.loc 1 36 15 is_stmt 0
 612 02e4 13850400 		mv	a0,s1
 613 02e8 97000000 		call	_ZN3sem7unblockEv
 613      E7800000 
 614              	.LVL50:
  35:src/semaphore.cpp ****        unblock();
 615              		.loc 1 35 4
 616 02f0 6FF05FFE 		j	.L41
 617              	.LVL51:
 618              	.L42:
 619              		.cfi_def_cfa_register 2
 620              		.cfi_restore 1
 621              		.cfi_restore 8
 622              		.cfi_restore 9
  33:src/semaphore.cpp **** 
GAS LISTING /tmp/cccsAOuM.s 			page 16


 623              		.loc 1 33 18
 624 02f4 1305E0FF 		li	a0,-2
 625              	.LVL52:
  41:src/semaphore.cpp **** 
 626              		.loc 1 41 1
 627 02f8 67800000 		ret
 628              	.LVL53:
 629              	.L43:
 630              		.cfi_def_cfa_register 8
 631              		.cfi_offset 1, -8
 632              		.cfi_offset 8, -16
 633              		.cfi_offset 9, -24
  40:src/semaphore.cpp **** }
 634              		.loc 1 40 12
 635 02fc 13050000 		li	a0,0
 636              	.LVL54:
 637              	.L40:
  41:src/semaphore.cpp **** 
 638              		.loc 1 41 1
 639 0300 83308101 		ld	ra,24(sp)
 640              		.cfi_remember_state
 641              		.cfi_restore 1
 642 0304 03340101 		ld	s0,16(sp)
 643              		.cfi_restore 8
 644              		.cfi_def_cfa 2, 32
 645 0308 83348100 		ld	s1,8(sp)
 646              		.cfi_restore 9
 647              	.LVL55:
 648 030c 13010102 		addi	sp,sp,32
 649              		.cfi_def_cfa_offset 0
 650 0310 67800000 		jr	ra
 651              	.LVL56:
 652              	.L44:
 653              		.cfi_restore_state
  40:src/semaphore.cpp **** }
 654              		.loc 1 40 12
 655 0314 13050000 		li	a0,0
 656 0318 6FF09FFE 		j	.L40
 657              		.cfi_endproc
 658              	.LFE48:
 660              		.align	2
 661              		.globl	_ZN3sem6signalEv
 663              	_ZN3sem6signalEv:
 664              	.LFB50:
  53:src/semaphore.cpp ****     if(this->closed) return -2;
 665              		.loc 1 53 19 is_stmt 1
 666              		.cfi_startproc
 667              	.LVL57:
  54:src/semaphore.cpp ****     this->value++;
 668              		.loc 1 54 5
  54:src/semaphore.cpp ****     this->value++;
 669              		.loc 1 54 14 is_stmt 0
 670 031c 83474500 		lbu	a5,4(a0)
  54:src/semaphore.cpp ****     this->value++;
 671              		.loc 1 54 5
 672 0320 63960704 		bnez	a5,.L51
  55:src/semaphore.cpp ****     if(this->value <=0){
GAS LISTING /tmp/cccsAOuM.s 			page 17


 673              		.loc 1 55 5 is_stmt 1
  55:src/semaphore.cpp ****     if(this->value <=0){
 674              		.loc 1 55 11 is_stmt 0
 675 0324 83270500 		lw	a5,0(a0)
  55:src/semaphore.cpp ****     if(this->value <=0){
 676              		.loc 1 55 16
 677 0328 9B871700 		addiw	a5,a5,1
 678 032c 1B870700 		sext.w	a4,a5
 679 0330 2320F500 		sw	a5,0(a0)
  56:src/semaphore.cpp ****        unblock();
 680              		.loc 1 56 5 is_stmt 1
 681 0334 6356E000 		blez	a4,.L57
  59:src/semaphore.cpp **** }
 682              		.loc 1 59 12 is_stmt 0
 683 0338 13050000 		li	a0,0
 684              	.LVL58:
  60:src/semaphore.cpp **** 
 685              		.loc 1 60 1
 686 033c 67800000 		ret
 687              	.LVL59:
 688              	.L57:
  53:src/semaphore.cpp ****     if(this->closed) return -2;
 689              		.loc 1 53 19
 690 0340 130101FF 		addi	sp,sp,-16
 691              		.cfi_def_cfa_offset 16
 692 0344 23341100 		sd	ra,8(sp)
 693 0348 23308100 		sd	s0,0(sp)
 694              		.cfi_offset 1, -8
 695              		.cfi_offset 8, -16
 696 034c 13040101 		addi	s0,sp,16
 697              		.cfi_def_cfa 8, 0
  57:src/semaphore.cpp ****     }
 698              		.loc 1 57 8 is_stmt 1
  57:src/semaphore.cpp ****     }
 699              		.loc 1 57 15 is_stmt 0
 700 0350 97000000 		call	_ZN3sem7unblockEv
 700      E7800000 
 701              	.LVL60:
  59:src/semaphore.cpp **** }
 702              		.loc 1 59 12
 703 0358 13050000 		li	a0,0
  60:src/semaphore.cpp **** 
 704              		.loc 1 60 1
 705 035c 83308100 		ld	ra,8(sp)
 706              		.cfi_restore 1
 707 0360 03340100 		ld	s0,0(sp)
 708              		.cfi_restore 8
 709              		.cfi_def_cfa 2, 16
 710 0364 13010101 		addi	sp,sp,16
 711              		.cfi_def_cfa_offset 0
 712 0368 67800000 		jr	ra
 713              	.LVL61:
 714              	.L51:
  54:src/semaphore.cpp ****     this->value++;
 715              		.loc 1 54 30
 716 036c 1305E0FF 		li	a0,-2
 717              	.LVL62:
GAS LISTING /tmp/cccsAOuM.s 			page 18


 718 0370 67800000 		ret
 719              		.cfi_endproc
 720              	.LFE50:
 722              	.Letext0:
 723              		.file 4 "src/../h/../lib/hw.h"
 724              		.file 5 "src/../h/MemoryAllocator.hpp"
 725              		.file 6 "src/../h/scheduler.hpp"
 726              		.file 7 "src/../h/tcb.hpp"
 4114              		.align	3
 4117              	DW.ref.__gxx_personality_v0:
 4118 0000 00000000 		.dword	__gxx_personality_v0
 4118      00000000 
 4119              		.ident	"GCC: (Ubuntu 9.3.0-17ubuntu1~20.04) 9.3.0"
 4120              		.section	.note.GNU-stack,"",@progbits
GAS LISTING /tmp/cccsAOuM.s 			page 19


DEFINED SYMBOLS
                            *ABS*:0000000000000000 semaphore.cpp
     /tmp/cccsAOuM.s:9      .text:0000000000000000 _ZN3semnwEm
     /tmp/cccsAOuM.s:13     .text:0000000000000000 .L0 
     /tmp/cccsAOuM.s:15     .text:0000000000000000 .L0 
     /tmp/cccsAOuM.s:16     .text:0000000000000004 .L0 
     /tmp/cccsAOuM.s:19     .text:000000000000000c .L0 
     /tmp/cccsAOuM.s:20     .text:000000000000000c .L0 
     /tmp/cccsAOuM.s:22     .text:0000000000000010 .L0 
     /tmp/cccsAOuM.s:24     .text:0000000000000010 .L0 
     /tmp/cccsAOuM.s:25     .text:0000000000000010 .L0 
     /tmp/cccsAOuM.s:28     .text:0000000000000018 .L0 
     /tmp/cccsAOuM.s:29     .text:000000000000001c .L0 
     /tmp/cccsAOuM.s:31     .text:0000000000000020 .L0 
     /tmp/cccsAOuM.s:32     .text:0000000000000020 .L0 
     /tmp/cccsAOuM.s:34     .text:0000000000000024 .L0 
     /tmp/cccsAOuM.s:36     .text:0000000000000028 .L0 
     /tmp/cccsAOuM.s:42     .text:0000000000000028 _ZN3semnaEm
     /tmp/cccsAOuM.s:45     .text:0000000000000028 .L0 
     /tmp/cccsAOuM.s:47     .text:0000000000000028 .L0 
     /tmp/cccsAOuM.s:48     .text:000000000000002c .L0 
     /tmp/cccsAOuM.s:51     .text:0000000000000034 .L0 
     /tmp/cccsAOuM.s:52     .text:0000000000000034 .L0 
     /tmp/cccsAOuM.s:54     .text:0000000000000038 .L0 
     /tmp/cccsAOuM.s:56     .text:0000000000000038 .L0 
     /tmp/cccsAOuM.s:57     .text:0000000000000038 .L0 
     /tmp/cccsAOuM.s:60     .text:0000000000000040 .L0 
     /tmp/cccsAOuM.s:61     .text:0000000000000044 .L0 
     /tmp/cccsAOuM.s:63     .text:0000000000000048 .L0 
     /tmp/cccsAOuM.s:64     .text:0000000000000048 .L0 
     /tmp/cccsAOuM.s:66     .text:000000000000004c .L0 
     /tmp/cccsAOuM.s:68     .text:0000000000000050 .L0 
     /tmp/cccsAOuM.s:74     .text:0000000000000050 _ZN3semdlEPv
     /tmp/cccsAOuM.s:77     .text:0000000000000050 .L0 
     /tmp/cccsAOuM.s:4117   .data.rel.local.DW.ref.__gxx_personality_v0:0000000000000000 DW.ref.__gxx_personality_v0
     /tmp/cccsAOuM.s:81     .text:0000000000000050 .L0 
     /tmp/cccsAOuM.s:82     .text:0000000000000054 .L0 
     /tmp/cccsAOuM.s:85     .text:000000000000005c .L0 
     /tmp/cccsAOuM.s:86     .text:000000000000005c .L0 
     /tmp/cccsAOuM.s:88     .text:0000000000000060 .L0 
     /tmp/cccsAOuM.s:90     .text:0000000000000060 .L0 
     /tmp/cccsAOuM.s:91     .text:0000000000000060 .L0 
     /tmp/cccsAOuM.s:94     .text:0000000000000068 .L0 
     /tmp/cccsAOuM.s:95     .text:000000000000006c .L0 
     /tmp/cccsAOuM.s:97     .text:0000000000000070 .L0 
     /tmp/cccsAOuM.s:98     .text:0000000000000070 .L0 
     /tmp/cccsAOuM.s:100    .text:0000000000000074 .L0 
     /tmp/cccsAOuM.s:102    .text:0000000000000078 .L0 
     /tmp/cccsAOuM.s:116    .text:0000000000000078 _ZN3semdaEPv
     /tmp/cccsAOuM.s:119    .text:0000000000000078 .L0 
     /tmp/cccsAOuM.s:123    .text:0000000000000078 .L0 
     /tmp/cccsAOuM.s:124    .text:000000000000007c .L0 
     /tmp/cccsAOuM.s:127    .text:0000000000000084 .L0 
     /tmp/cccsAOuM.s:128    .text:0000000000000084 .L0 
     /tmp/cccsAOuM.s:130    .text:0000000000000088 .L0 
     /tmp/cccsAOuM.s:132    .text:0000000000000088 .L0 
     /tmp/cccsAOuM.s:133    .text:0000000000000088 .L0 
GAS LISTING /tmp/cccsAOuM.s 			page 20


     /tmp/cccsAOuM.s:136    .text:0000000000000090 .L0 
     /tmp/cccsAOuM.s:137    .text:0000000000000094 .L0 
     /tmp/cccsAOuM.s:139    .text:0000000000000098 .L0 
     /tmp/cccsAOuM.s:140    .text:0000000000000098 .L0 
     /tmp/cccsAOuM.s:142    .text:000000000000009c .L0 
     /tmp/cccsAOuM.s:144    .text:00000000000000a0 .L0 
     /tmp/cccsAOuM.s:157    .text:00000000000000a0 _ZN3sem13openSemaphoreEi
     /tmp/cccsAOuM.s:160    .text:00000000000000a0 .L0 
     /tmp/cccsAOuM.s:162    .text:00000000000000a0 .L0 
     /tmp/cccsAOuM.s:163    .text:00000000000000a4 .L0 
     /tmp/cccsAOuM.s:167    .text:00000000000000b0 .L0 
     /tmp/cccsAOuM.s:168    .text:00000000000000b0 .L0 
     /tmp/cccsAOuM.s:169    .text:00000000000000b0 .L0 
     /tmp/cccsAOuM.s:171    .text:00000000000000b4 .L0 
     /tmp/cccsAOuM.s:174    .text:00000000000000b8 .L0 
     /tmp/cccsAOuM.s:175    .text:00000000000000b8 .L0 
     /tmp/cccsAOuM.s:183    .text:00000000000000c4 .L0 
     /tmp/cccsAOuM.s:190    .text:00000000000000cc .L0 
     /tmp/cccsAOuM.s:198    .text:00000000000000d4 .L0 
     /tmp/cccsAOuM.s:199    .text:00000000000000d8 .L0 
     /tmp/cccsAOuM.s:201    .text:00000000000000dc .L0 
     /tmp/cccsAOuM.s:202    .text:00000000000000dc .L0 
     /tmp/cccsAOuM.s:204    .text:00000000000000e0 .L0 
     /tmp/cccsAOuM.s:206    .text:00000000000000e4 .L0 
     /tmp/cccsAOuM.s:208    .text:00000000000000e8 .L0 
     /tmp/cccsAOuM.s:214    .text:00000000000000e8 _ZN3sem7trywaitEv
     /tmp/cccsAOuM.s:217    .text:00000000000000e8 .L0 
     /tmp/cccsAOuM.s:219    .text:00000000000000e8 .L0 
     /tmp/cccsAOuM.s:220    .text:00000000000000ec .L0 
     /tmp/cccsAOuM.s:222    .text:00000000000000f0 .L0 
     /tmp/cccsAOuM.s:224    .text:00000000000000f4 .L0 
     /tmp/cccsAOuM.s:226    .text:00000000000000f4 .L0 
     /tmp/cccsAOuM.s:227    .text:00000000000000f4 .L0 
     /tmp/cccsAOuM.s:229    .text:00000000000000f8 .L0 
     /tmp/cccsAOuM.s:231    .text:00000000000000fc .L0 
     /tmp/cccsAOuM.s:232    .text:00000000000000fc .L0 
     /tmp/cccsAOuM.s:234    .text:0000000000000100 .L0 
     /tmp/cccsAOuM.s:236    .text:0000000000000104 .L0 
     /tmp/cccsAOuM.s:240    .text:0000000000000108 .L0 
     /tmp/cccsAOuM.s:241    .text:000000000000010c .L0 
     /tmp/cccsAOuM.s:242    .text:000000000000010c .L0 
     /tmp/cccsAOuM.s:243    .text:000000000000010c .L0 
     /tmp/cccsAOuM.s:245    .text:0000000000000110 .L0 
     /tmp/cccsAOuM.s:249    .text:0000000000000114 .L0 
     /tmp/cccsAOuM.s:251    .text:0000000000000114 .L0 
     /tmp/cccsAOuM.s:257    .text:000000000000011c .L0 
     /tmp/cccsAOuM.s:260    .text:0000000000000124 .L0 
     /tmp/cccsAOuM.s:266    .text:0000000000000124 _ZN3sem10timed_waitEv
     /tmp/cccsAOuM.s:269    .text:0000000000000124 .L0 
     /tmp/cccsAOuM.s:271    .text:0000000000000124 .L0 
     /tmp/cccsAOuM.s:272    .text:0000000000000128 .L0 
     /tmp/cccsAOuM.s:274    .text:000000000000012c .L0 
     /tmp/cccsAOuM.s:276    .text:0000000000000130 .L0 
     /tmp/cccsAOuM.s:278    .text:0000000000000130 .L0 
     /tmp/cccsAOuM.s:279    .text:0000000000000130 .L0 
     /tmp/cccsAOuM.s:282    .text:0000000000000138 .L0 
     /tmp/cccsAOuM.s:283    .text:0000000000000138 .L0 
GAS LISTING /tmp/cccsAOuM.s 			page 21


     /tmp/cccsAOuM.s:285    .text:000000000000013c .L0 
     /tmp/cccsAOuM.s:287    .text:0000000000000140 .L0 
     /tmp/cccsAOuM.s:293    .text:0000000000000140 _ZN3sem5blockEv
     /tmp/cccsAOuM.s:296    .text:0000000000000140 .L0 
     /tmp/cccsAOuM.s:298    .text:0000000000000140 .L0 
     /tmp/cccsAOuM.s:299    .text:0000000000000144 .L0 
     /tmp/cccsAOuM.s:304    .text:0000000000000154 .L0 
     /tmp/cccsAOuM.s:305    .text:0000000000000154 .L0 
     /tmp/cccsAOuM.s:306    .text:0000000000000154 .L0 
     /tmp/cccsAOuM.s:307    .text:0000000000000154 .L0 
     /tmp/cccsAOuM.s:309    .text:0000000000000158 .L0 
     /tmp/cccsAOuM.s:312    .text:000000000000015c .L0 
     /tmp/cccsAOuM.s:313    .text:000000000000015c .L0 
     /tmp/cccsAOuM.s:321    .text:0000000000000168 .L0 
     /tmp/cccsAOuM.s:328    .text:0000000000000174 .L0 
     /tmp/cccsAOuM.s:330    .text:0000000000000178 .L0 
     /tmp/cccsAOuM.s:332    .text:000000000000017c .L0 
     /tmp/cccsAOuM.s:334    .text:0000000000000180 .L0 
     /tmp/cccsAOuM.s:336    .text:0000000000000184 .L0 
     /tmp/cccsAOuM.s:338    .text:0000000000000188 .L0 
     /tmp/cccsAOuM.s:344    .text:000000000000018c .L0 
     /tmp/cccsAOuM.s:345    .text:000000000000018c .L0 
     /tmp/cccsAOuM.s:352    .text:00000000000001a4 .L0 
     /tmp/cccsAOuM.s:353    .text:00000000000001a4 .L0 
     /tmp/cccsAOuM.s:356    .text:00000000000001b0 .L0 
     /tmp/cccsAOuM.s:357    .text:00000000000001b0 .L0 
     /tmp/cccsAOuM.s:360    .text:00000000000001b8 .L0 
     /tmp/cccsAOuM.s:361    .text:00000000000001bc .L0 
     /tmp/cccsAOuM.s:362    .text:00000000000001bc .L0 
     /tmp/cccsAOuM.s:364    .text:00000000000001c0 .L0 
     /tmp/cccsAOuM.s:365    .text:00000000000001c0 .L0 
     /tmp/cccsAOuM.s:367    .text:00000000000001c4 .L0 
     /tmp/cccsAOuM.s:370    .text:00000000000001c8 .L0 
     /tmp/cccsAOuM.s:372    .text:00000000000001cc .L0 
     /tmp/cccsAOuM.s:376    .text:00000000000001d0 .L0 
     /tmp/cccsAOuM.s:380    .text:00000000000001d0 .L0 
     /tmp/cccsAOuM.s:385    .text:00000000000001dc .L0 
     /tmp/cccsAOuM.s:391    .text:00000000000001dc _ZN3sem4waitEv
     /tmp/cccsAOuM.s:394    .text:00000000000001dc .L0 
     /tmp/cccsAOuM.s:396    .text:00000000000001dc .L0 
     /tmp/cccsAOuM.s:397    .text:00000000000001dc .L0 
     /tmp/cccsAOuM.s:398    .text:00000000000001dc .L0 
     /tmp/cccsAOuM.s:400    .text:00000000000001e0 .L0 
     /tmp/cccsAOuM.s:402    .text:00000000000001e4 .L0 
     /tmp/cccsAOuM.s:403    .text:00000000000001e4 .L0 
     /tmp/cccsAOuM.s:405    .text:00000000000001e8 .L0 
     /tmp/cccsAOuM.s:408    .text:00000000000001f0 .L0 
     /tmp/cccsAOuM.s:411    .text:00000000000001f8 .L0 
     /tmp/cccsAOuM.s:414    .text:00000000000001fc .L0 
     /tmp/cccsAOuM.s:418    .text:0000000000000200 .L0 
     /tmp/cccsAOuM.s:419    .text:0000000000000204 .L0 
     /tmp/cccsAOuM.s:422    .text:000000000000020c .L0 
     /tmp/cccsAOuM.s:423    .text:000000000000020c .L0 
     /tmp/cccsAOuM.s:425    .text:0000000000000210 .L0 
     /tmp/cccsAOuM.s:427    .text:0000000000000210 .L0 
     /tmp/cccsAOuM.s:428    .text:0000000000000210 .L0 
     /tmp/cccsAOuM.s:431    .text:0000000000000218 .L0 
GAS LISTING /tmp/cccsAOuM.s 			page 22


     /tmp/cccsAOuM.s:433    .text:000000000000021c .L0 
     /tmp/cccsAOuM.s:434    .text:0000000000000220 .L0 
     /tmp/cccsAOuM.s:436    .text:0000000000000224 .L0 
     /tmp/cccsAOuM.s:437    .text:0000000000000224 .L0 
     /tmp/cccsAOuM.s:439    .text:0000000000000228 .L0 
     /tmp/cccsAOuM.s:444    .text:000000000000022c .L0 
     /tmp/cccsAOuM.s:447    .text:0000000000000234 .L0 
     /tmp/cccsAOuM.s:453    .text:0000000000000234 _ZN3sem7unblockEv
     /tmp/cccsAOuM.s:456    .text:0000000000000234 .L0 
     /tmp/cccsAOuM.s:460    .text:0000000000000234 .L0 
     /tmp/cccsAOuM.s:465    .text:0000000000000238 .L0 
     /tmp/cccsAOuM.s:466    .text:0000000000000238 .L0 
     /tmp/cccsAOuM.s:469    .text:000000000000023c .L0 
     /tmp/cccsAOuM.s:473    .text:0000000000000240 .L0 
     /tmp/cccsAOuM.s:474    .text:0000000000000244 .L0 
     /tmp/cccsAOuM.s:478    .text:0000000000000250 .L0 
     /tmp/cccsAOuM.s:479    .text:0000000000000250 .L0 
     /tmp/cccsAOuM.s:480    .text:0000000000000250 .L0 
     /tmp/cccsAOuM.s:482    .text:0000000000000254 .L0 
     /tmp/cccsAOuM.s:487    .text:0000000000000254 .L0 
     /tmp/cccsAOuM.s:489    .text:0000000000000258 .L0 
     /tmp/cccsAOuM.s:491    .text:000000000000025c .L0 
     /tmp/cccsAOuM.s:494    .text:0000000000000260 .L0 
     /tmp/cccsAOuM.s:499    .text:0000000000000264 .L0 
     /tmp/cccsAOuM.s:506    .text:000000000000026c .L0 
     /tmp/cccsAOuM.s:508    .text:0000000000000270 .L0 
     /tmp/cccsAOuM.s:509    .text:0000000000000270 .L0 
     /tmp/cccsAOuM.s:515    .text:0000000000000280 .L0 
     /tmp/cccsAOuM.s:516    .text:0000000000000280 .L0 
     /tmp/cccsAOuM.s:522    .text:000000000000028c .L0 
     /tmp/cccsAOuM.s:523    .text:0000000000000290 .L0 
     /tmp/cccsAOuM.s:524    .text:0000000000000290 .L0 
     /tmp/cccsAOuM.s:526    .text:0000000000000294 .L0 
     /tmp/cccsAOuM.s:527    .text:0000000000000294 .L0 
     /tmp/cccsAOuM.s:529    .text:0000000000000298 .L0 
     /tmp/cccsAOuM.s:531    .text:000000000000029c .L0 
     /tmp/cccsAOuM.s:535    .text:00000000000002a0 .L0 
     /tmp/cccsAOuM.s:539    .text:00000000000002a0 .L0 
     /tmp/cccsAOuM.s:543    .text:00000000000002a8 .L0 
     /tmp/cccsAOuM.s:544    .text:00000000000002a8 .L0 
     /tmp/cccsAOuM.s:545    .text:00000000000002a8 .L0 
     /tmp/cccsAOuM.s:546    .text:00000000000002a8 .L0 
     /tmp/cccsAOuM.s:550    .text:00000000000002ac .L0 
     /tmp/cccsAOuM.s:567    .text:00000000000002ac _ZN3sem14closeSemaphoreEv
     /tmp/cccsAOuM.s:570    .text:00000000000002ac .L0 
     /tmp/cccsAOuM.s:572    .text:00000000000002ac .L0 
     /tmp/cccsAOuM.s:573    .text:00000000000002ac .L0 
     /tmp/cccsAOuM.s:574    .text:00000000000002ac .L0 
     /tmp/cccsAOuM.s:576    .text:00000000000002b0 .L0 
     /tmp/cccsAOuM.s:578    .text:00000000000002b4 .L0 
     /tmp/cccsAOuM.s:579    .text:00000000000002b8 .L0 
     /tmp/cccsAOuM.s:583    .text:00000000000002c4 .L0 
     /tmp/cccsAOuM.s:584    .text:00000000000002c4 .L0 
     /tmp/cccsAOuM.s:585    .text:00000000000002c4 .L0 
     /tmp/cccsAOuM.s:587    .text:00000000000002c8 .L0 
     /tmp/cccsAOuM.s:590    .text:00000000000002cc .L0 
     /tmp/cccsAOuM.s:591    .text:00000000000002cc .L0 
GAS LISTING /tmp/cccsAOuM.s 			page 23


     /tmp/cccsAOuM.s:596    .text:00000000000002d4 .L0 
     /tmp/cccsAOuM.s:599    .text:00000000000002d4 .L0 
     /tmp/cccsAOuM.s:600    .text:00000000000002d4 .L0 
     /tmp/cccsAOuM.s:602    .text:00000000000002d8 .L0 
     /tmp/cccsAOuM.s:604    .text:00000000000002dc .L0 
     /tmp/cccsAOuM.s:609    .text:00000000000002e0 .L0 
     /tmp/cccsAOuM.s:611    .text:00000000000002e4 .L0 
     /tmp/cccsAOuM.s:612    .text:00000000000002e4 .L0 
     /tmp/cccsAOuM.s:616    .text:00000000000002f0 .L0 
     /tmp/cccsAOuM.s:619    .text:00000000000002f4 .L0 
     /tmp/cccsAOuM.s:620    .text:00000000000002f4 .L0 
     /tmp/cccsAOuM.s:621    .text:00000000000002f4 .L0 
     /tmp/cccsAOuM.s:622    .text:00000000000002f4 .L0 
     /tmp/cccsAOuM.s:624    .text:00000000000002f4 .L0 
     /tmp/cccsAOuM.s:627    .text:00000000000002f8 .L0 
     /tmp/cccsAOuM.s:630    .text:00000000000002fc .L0 
     /tmp/cccsAOuM.s:631    .text:00000000000002fc .L0 
     /tmp/cccsAOuM.s:632    .text:00000000000002fc .L0 
     /tmp/cccsAOuM.s:633    .text:00000000000002fc .L0 
     /tmp/cccsAOuM.s:635    .text:00000000000002fc .L0 
     /tmp/cccsAOuM.s:639    .text:0000000000000300 .L0 
     /tmp/cccsAOuM.s:640    .text:0000000000000304 .L0 
     /tmp/cccsAOuM.s:641    .text:0000000000000304 .L0 
     /tmp/cccsAOuM.s:643    .text:0000000000000308 .L0 
     /tmp/cccsAOuM.s:644    .text:0000000000000308 .L0 
     /tmp/cccsAOuM.s:646    .text:000000000000030c .L0 
     /tmp/cccsAOuM.s:649    .text:0000000000000310 .L0 
     /tmp/cccsAOuM.s:653    .text:0000000000000314 .L0 
     /tmp/cccsAOuM.s:655    .text:0000000000000314 .L0 
     /tmp/cccsAOuM.s:657    .text:000000000000031c .L0 
     /tmp/cccsAOuM.s:663    .text:000000000000031c _ZN3sem6signalEv
     /tmp/cccsAOuM.s:666    .text:000000000000031c .L0 
     /tmp/cccsAOuM.s:668    .text:000000000000031c .L0 
     /tmp/cccsAOuM.s:669    .text:000000000000031c .L0 
     /tmp/cccsAOuM.s:670    .text:000000000000031c .L0 
     /tmp/cccsAOuM.s:672    .text:0000000000000320 .L0 
     /tmp/cccsAOuM.s:674    .text:0000000000000324 .L0 
     /tmp/cccsAOuM.s:675    .text:0000000000000324 .L0 
     /tmp/cccsAOuM.s:677    .text:0000000000000328 .L0 
     /tmp/cccsAOuM.s:681    .text:0000000000000334 .L0 
     /tmp/cccsAOuM.s:683    .text:0000000000000338 .L0 
     /tmp/cccsAOuM.s:686    .text:000000000000033c .L0 
     /tmp/cccsAOuM.s:690    .text:0000000000000340 .L0 
     /tmp/cccsAOuM.s:691    .text:0000000000000344 .L0 
     /tmp/cccsAOuM.s:694    .text:000000000000034c .L0 
     /tmp/cccsAOuM.s:695    .text:000000000000034c .L0 
     /tmp/cccsAOuM.s:697    .text:0000000000000350 .L0 
     /tmp/cccsAOuM.s:699    .text:0000000000000350 .L0 
     /tmp/cccsAOuM.s:700    .text:0000000000000350 .L0 
     /tmp/cccsAOuM.s:703    .text:0000000000000358 .L0 
     /tmp/cccsAOuM.s:705    .text:000000000000035c .L0 
     /tmp/cccsAOuM.s:706    .text:0000000000000360 .L0 
     /tmp/cccsAOuM.s:708    .text:0000000000000364 .L0 
     /tmp/cccsAOuM.s:709    .text:0000000000000364 .L0 
     /tmp/cccsAOuM.s:711    .text:0000000000000368 .L0 
     /tmp/cccsAOuM.s:716    .text:000000000000036c .L0 
     /tmp/cccsAOuM.s:719    .text:0000000000000374 .L0 
GAS LISTING /tmp/cccsAOuM.s 			page 24


     /tmp/cccsAOuM.s:727    .text:0000000000000374 .L0 
     /tmp/cccsAOuM.s:313    .text:000000000000015c .L0 
     /tmp/cccsAOuM.s:346    .text:0000000000000190 .L0 
     /tmp/cccsAOuM.s:353    .text:00000000000001a4 .L0 
     /tmp/cccsAOuM.s:248    .text:0000000000000114 .L13
     /tmp/cccsAOuM.s:255    .text:000000000000011c .L14
     /tmp/cccsAOuM.s:238    .text:0000000000000108 .L12
     /tmp/cccsAOuM.s:375    .text:00000000000001d0 .L19
     /tmp/cccsAOuM.s:339    .text:000000000000018c .L20
     /tmp/cccsAOuM.s:442    .text:000000000000022c .L24
     /tmp/cccsAOuM.s:416    .text:0000000000000200 .L30
     /tmp/cccsAOuM.s:542    .text:00000000000002a8 .L35
     /tmp/cccsAOuM.s:534    .text:00000000000002a0 .L38
     /tmp/cccsAOuM.s:520    .text:000000000000028c .L31
     /tmp/cccsAOuM.s:492    .text:0000000000000260 .L33
     /tmp/cccsAOuM.s:618    .text:00000000000002f4 .L42
     /tmp/cccsAOuM.s:629    .text:00000000000002fc .L43
     /tmp/cccsAOuM.s:652    .text:0000000000000314 .L44
     /tmp/cccsAOuM.s:594    .text:00000000000002d4 .L41
     /tmp/cccsAOuM.s:637    .text:0000000000000300 .L40
     /tmp/cccsAOuM.s:714    .text:000000000000036c .L51
     /tmp/cccsAOuM.s:688    .text:0000000000000340 .L57
     /tmp/cccsAOuM.s:511    .text:0000000000000278 .LEHB0
     /tmp/cccsAOuM.s:454    .text:0000000000000234 .LFB54
     /tmp/cccsAOuM.s:519    .text:000000000000028c .LEHE0
     /tmp/cccsAOuM.s:2278   .debug_abbrev:0000000000000000 .Ldebug_abbrev0
     /tmp/cccsAOuM.s:4035   .debug_str:000000000000060f .LASF128
     /tmp/cccsAOuM.s:3955   .debug_str:000000000000039c .LASF129
     /tmp/cccsAOuM.s:4091   .debug_str:000000000000084a .LASF130
     /tmp/cccsAOuM.s:5      .text:0000000000000000 .Ltext0
     /tmp/cccsAOuM.s:722    .text:0000000000000374 .Letext0
     /tmp/cccsAOuM.s:3827   .debug_line:0000000000000000 .Ldebug_line0
     /tmp/cccsAOuM.s:3923   .debug_str:00000000000002c5 .LASF0
     /tmp/cccsAOuM.s:3943   .debug_str:0000000000000347 .LASF1
     /tmp/cccsAOuM.s:4007   .debug_str:000000000000051e .LASF2
     /tmp/cccsAOuM.s:4015   .debug_str:000000000000055c .LASF4
     /tmp/cccsAOuM.s:3929   .debug_str:00000000000002e3 .LASF3
     /tmp/cccsAOuM.s:3841   .debug_str:000000000000006b .LASF5
     /tmp/cccsAOuM.s:3985   .debug_str:0000000000000467 .LASF6
     /tmp/cccsAOuM.s:3935   .debug_str:000000000000031b .LASF7
     /tmp/cccsAOuM.s:3903   .debug_str:000000000000022b .LASF8
     /tmp/cccsAOuM.s:3909   .debug_str:0000000000000259 .LASF9
     /tmp/cccsAOuM.s:3863   .debug_str:0000000000000119 .LASF10
     /tmp/cccsAOuM.s:3895   .debug_str:0000000000000201 .LASF11
     /tmp/cccsAOuM.s:3873   .debug_str:000000000000015e .LASF12
     /tmp/cccsAOuM.s:3861   .debug_str:0000000000000109 .LASF13
     /tmp/cccsAOuM.s:4039   .debug_str:00000000000006e0 .LASF14
     /tmp/cccsAOuM.s:3887   .debug_str:00000000000001b3 .LASF15
     /tmp/cccsAOuM.s:4031   .debug_str:00000000000005e5 .LASF16
     /tmp/cccsAOuM.s:3981   .debug_str:000000000000044b .LASF26
     /tmp/cccsAOuM.s:4055   .debug_str:0000000000000733 .LASF41
     /tmp/cccsAOuM.s:3851   .debug_str:00000000000000bd .LASF17
     /tmp/cccsAOuM.s:3941   .debug_str:0000000000000342 .LASF18
     /tmp/cccsAOuM.s:3885   .debug_str:00000000000001a7 .LASF19
     /tmp/cccsAOuM.s:4053   .debug_str:000000000000072e .LASF31
     /tmp/cccsAOuM.s:4075   .debug_str:00000000000007b8 .LASF33
     /tmp/cccsAOuM.s:3877   .debug_str:0000000000000173 .LASF20
GAS LISTING /tmp/cccsAOuM.s 			page 25


     /tmp/cccsAOuM.s:3937   .debug_str:000000000000032e .LASF29
     /tmp/cccsAOuM.s:4019   .debug_str:0000000000000568 .LASF81
     /tmp/cccsAOuM.s:3961   .debug_str:00000000000003ce .LASF21
     /tmp/cccsAOuM.s:3843   .debug_str:0000000000000072 .LASF23
     /tmp/cccsAOuM.s:4047   .debug_str:000000000000070f .LASF22
     /tmp/cccsAOuM.s:3991   .debug_str:00000000000004a1 .LASF24
     /tmp/cccsAOuM.s:3847   .debug_str:00000000000000a5 .LASF83
     /tmp/cccsAOuM.s:4103   .debug_str:00000000000008d1 .LASF85
     /tmp/cccsAOuM.s:3999   .debug_str:00000000000004f2 .LASF25
     /tmp/cccsAOuM.s:3901   .debug_str:0000000000000221 .LASF27
     /tmp/cccsAOuM.s:4023   .debug_str:000000000000059a .LASF28
     /tmp/cccsAOuM.s:4097   .debug_str:0000000000000883 .LASF131
     /tmp/cccsAOuM.s:3915   .debug_str:0000000000000290 .LASF132
     /tmp/cccsAOuM.s:4081   .debug_str:00000000000007f5 .LASF30
     /tmp/cccsAOuM.s:4105   .debug_str:00000000000008ed .LASF32
     /tmp/cccsAOuM.s:4071   .debug_str:000000000000078c .LASF34
     /tmp/cccsAOuM.s:3857   .debug_str:00000000000000dc .LASF35
     /tmp/cccsAOuM.s:4069   .debug_str:0000000000000779 .LASF36
     /tmp/cccsAOuM.s:3831   .debug_str:0000000000000005 .LASF37
     /tmp/cccsAOuM.s:3969   .debug_str:00000000000003f9 .LASF39
     /tmp/cccsAOuM.s:4029   .debug_str:00000000000005d2 .LASF38
     /tmp/cccsAOuM.s:4033   .debug_str:00000000000005fb .LASF40
     /tmp/cccsAOuM.s:3875   .debug_str:000000000000016e .LASF42
     /tmp/cccsAOuM.s:3939   .debug_str:000000000000033d .LASF43
     /tmp/cccsAOuM.s:3865   .debug_str:0000000000000128 .LASF44
     /tmp/cccsAOuM.s:4101   .debug_str:00000000000008b2 .LASF45
     /tmp/cccsAOuM.s:3893   .debug_str:00000000000001fc .LASF46
     /tmp/cccsAOuM.s:3967   .debug_str:00000000000003f4 .LASF47
     /tmp/cccsAOuM.s:3963   .debug_str:00000000000003d8 .LASF48
     /tmp/cccsAOuM.s:4043   .debug_str:00000000000006f3 .LASF49
     /tmp/cccsAOuM.s:3891   .debug_str:00000000000001e5 .LASF55
     /tmp/cccsAOuM.s:4011   .debug_str:0000000000000539 .LASF133
     /tmp/cccsAOuM.s:4001   .debug_str:00000000000004f7 .LASF134
     /tmp/cccsAOuM.s:4005   .debug_str:0000000000000515 .LASF50
     /tmp/cccsAOuM.s:3859   .debug_str:00000000000000ec .LASF51
     /tmp/cccsAOuM.s:3953   .debug_str:0000000000000394 .LASF52
     /tmp/cccsAOuM.s:3889   .debug_str:00000000000001c9 .LASF53
     /tmp/cccsAOuM.s:3983   .debug_str:000000000000045b .LASF54
     /tmp/cccsAOuM.s:4083   .debug_str:00000000000007ff .LASF56
     /tmp/cccsAOuM.s:4109   .debug_str:0000000000000905 .LASF57
     /tmp/cccsAOuM.s:4099   .debug_str:0000000000000897 .LASF58
     /tmp/cccsAOuM.s:4021   .debug_str:000000000000058f .LASF59
     /tmp/cccsAOuM.s:3933   .debug_str:00000000000002fe .LASF60
     /tmp/cccsAOuM.s:3997   .debug_str:00000000000004e9 .LASF61
     /tmp/cccsAOuM.s:3835   .debug_str:000000000000001d .LASF62
     /tmp/cccsAOuM.s:3867   .debug_str:000000000000012d .LASF63
     /tmp/cccsAOuM.s:3905   .debug_str:000000000000023b .LASF64
     /tmp/cccsAOuM.s:3899   .debug_str:0000000000000215 .LASF65
     /tmp/cccsAOuM.s:3971   .debug_str:000000000000040d .LASF66
     /tmp/cccsAOuM.s:4009   .debug_str:000000000000052c .LASF67
     /tmp/cccsAOuM.s:4017   .debug_str:0000000000000563 .LASF68
     /tmp/cccsAOuM.s:3839   .debug_str:000000000000005f .LASF69
     /tmp/cccsAOuM.s:4049   .debug_str:0000000000000718 .LASF70
     /tmp/cccsAOuM.s:3965   .debug_str:00000000000003dd .LASF71
     /tmp/cccsAOuM.s:3853   .debug_str:00000000000000c2 .LASF72
     /tmp/cccsAOuM.s:3975   .debug_str:0000000000000422 .LASF73
     /tmp/cccsAOuM.s:3949   .debug_str:000000000000036e .LASF74
GAS LISTING /tmp/cccsAOuM.s 			page 26


     /tmp/cccsAOuM.s:4073   .debug_str:000000000000079f .LASF75
     /tmp/cccsAOuM.s:4057   .debug_str:000000000000073b .LASF135
     /tmp/cccsAOuM.s:4037   .debug_str:00000000000006d3 .LASF76
     /tmp/cccsAOuM.s:3911   .debug_str:0000000000000267 .LASF77
     /tmp/cccsAOuM.s:3977   .debug_str:0000000000000439 .LASF136
     /tmp/cccsAOuM.s:4077   .debug_str:00000000000007e0 .LASF78
     /tmp/cccsAOuM.s:3959   .debug_str:00000000000003b4 .LASF79
     /tmp/cccsAOuM.s:4107   .debug_str:00000000000008fa .LASF80
     /tmp/cccsAOuM.s:3987   .debug_str:000000000000047a .LASF82
     /tmp/cccsAOuM.s:3945   .debug_str:000000000000035a .LASF84
     /tmp/cccsAOuM.s:4063   .debug_str:0000000000000757 .LASF86
     /tmp/cccsAOuM.s:4051   .debug_str:0000000000000723 .LASF87
     /tmp/cccsAOuM.s:3871   .debug_str:0000000000000148 .LASF88
     /tmp/cccsAOuM.s:4025   .debug_str:00000000000005ab .LASF117
     /tmp/cccsAOuM.s:3829   .debug_str:0000000000000000 .LASF89
     /tmp/cccsAOuM.s:3931   .debug_str:00000000000002f5 .LASF90
     /tmp/cccsAOuM.s:3957   .debug_str:00000000000003ae .LASF91
     /tmp/cccsAOuM.s:4067   .debug_str:0000000000000771 .LASF92
     /tmp/cccsAOuM.s:4065   .debug_str:0000000000000767 .LASF93
     /tmp/cccsAOuM.s:4045   .debug_str:0000000000000706 .LASF94
     /tmp/cccsAOuM.s:3973   .debug_str:000000000000041a .LASF95
     /tmp/cccsAOuM.s:3881   .debug_str:000000000000018d .LASF96
     /tmp/cccsAOuM.s:3855   .debug_str:00000000000000ce .LASF97
     /tmp/cccsAOuM.s:3951   .debug_str:000000000000037b .LASF99
     /tmp/cccsAOuM.s:3883   .debug_str:000000000000019e .LASF98
     /tmp/cccsAOuM.s:3869   .debug_str:0000000000000135 .LASF100
     /tmp/cccsAOuM.s:4095   .debug_str:0000000000000875 .LASF137
     /tmp/cccsAOuM.s:3837   .debug_str:0000000000000037 .LASF138
     /tmp/cccsAOuM.s:3927   .debug_str:00000000000002d7 .LASF101
     /tmp/cccsAOuM.s:3917   .debug_str:00000000000002a8 .LASF102
     /tmp/cccsAOuM.s:3979   .debug_str:000000000000043e .LASF103
     /tmp/cccsAOuM.s:4093   .debug_str:0000000000000868 .LASF104
     /tmp/cccsAOuM.s:3947   .debug_str:0000000000000360 .LASF105
     /tmp/cccsAOuM.s:4013   .debug_str:0000000000000543 .LASF106
     /tmp/cccsAOuM.s:4059   .debug_str:0000000000000743 .LASF107
     /tmp/cccsAOuM.s:4089   .debug_str:0000000000000830 .LASF108
     /tmp/cccsAOuM.s:4061   .debug_str:0000000000000752 .LASF109
     /tmp/cccsAOuM.s:4027   .debug_str:00000000000005c3 .LASF110
     /tmp/cccsAOuM.s:4041   .debug_str:00000000000006ec .LASF111
     /tmp/cccsAOuM.s:3989   .debug_str:0000000000000490 .LASF112
     /tmp/cccsAOuM.s:4079   .debug_str:00000000000007ed .LASF113
     /tmp/cccsAOuM.s:3907   .debug_str:0000000000000247 .LASF114
     /tmp/cccsAOuM.s:3919   .debug_str:00000000000002b4 .LASF115
     /tmp/cccsAOuM.s:3995   .debug_str:00000000000004d3 .LASF116
     /tmp/cccsAOuM.s:3879   .debug_str:0000000000000181 .LASF118
     /tmp/cccsAOuM.s:3913   .debug_str:000000000000028a .LASF119
     /tmp/cccsAOuM.s:4085   .debug_str:000000000000081d .LASF120
     /tmp/cccsAOuM.s:3921   .debug_str:00000000000002bf .LASF121
     /tmp/cccsAOuM.s:3993   .debug_str:00000000000004c3 .LASF122
     /tmp/cccsAOuM.s:3833   .debug_str:0000000000000015 .LASF123
     /tmp/cccsAOuM.s:3845   .debug_str:0000000000000093 .LASF124
     /tmp/cccsAOuM.s:3897   .debug_str:0000000000000210 .LASF126
     /tmp/cccsAOuM.s:3925   .debug_str:00000000000002d2 .LASF125
     /tmp/cccsAOuM.s:3849   .debug_str:00000000000000aa .LASF139
     /tmp/cccsAOuM.s:551    .text:00000000000002ac .LFE54
     /tmp/cccsAOuM.s:3374   .debug_loc:0000000000000000 .LLST16
     /tmp/cccsAOuM.s:4003   .debug_str:000000000000050e .LASF127
GAS LISTING /tmp/cccsAOuM.s 			page 27


     /tmp/cccsAOuM.s:3396   .debug_loc:000000000000005f .LLST17
     /tmp/cccsAOuM.s:463    .text:0000000000000238 .LBB36
     /tmp/cccsAOuM.s:3811   .debug_ranges:0000000000000000 .Ldebug_ranges0
     /tmp/cccsAOuM.s:3403   .debug_loc:0000000000000082 .LLST18
     /tmp/cccsAOuM.s:3433   .debug_loc:00000000000000e9 .LLST19
     /tmp/cccsAOuM.s:3444   .debug_loc:000000000000011f .LLST20
     /tmp/cccsAOuM.s:496    .text:0000000000000264 .LBB38
     /tmp/cccsAOuM.s:502    .text:000000000000026c .LBE38
     /tmp/cccsAOuM.s:3451   .debug_loc:0000000000000142 .LLST21
     /tmp/cccsAOuM.s:500    .text:000000000000026c .LVL42
     /tmp/cccsAOuM.s:513    .text:0000000000000280 .LVL43
     /tmp/cccsAOuM.s:518    .text:000000000000028c .LVL44
     /tmp/cccsAOuM.s:294    .text:0000000000000140 .LFB53
     /tmp/cccsAOuM.s:386    .text:00000000000001dc .LFE53
     /tmp/cccsAOuM.s:3458   .debug_loc:0000000000000165 .LLST10
     /tmp/cccsAOuM.s:316    .text:0000000000000168 .LBB30
     /tmp/cccsAOuM.s:3480   .debug_loc:00000000000001c4 .LLST11
     /tmp/cccsAOuM.s:3491   .debug_loc:00000000000001fa .LLST12
     /tmp/cccsAOuM.s:3512   .debug_loc:0000000000000249 .LLST13
     /tmp/cccsAOuM.s:318    .text:0000000000000168 .LBB32
     /tmp/cccsAOuM.s:326    .text:0000000000000174 .LBE32
     /tmp/cccsAOuM.s:3523   .debug_loc:000000000000027f .LLST14
     /tmp/cccsAOuM.s:324    .text:0000000000000174 .LVL24
     /tmp/cccsAOuM.s:350    .text:00000000000001a4 .LVL27
     /tmp/cccsAOuM.s:358    .text:00000000000001b8 .LVL28
     /tmp/cccsAOuM.s:267    .text:0000000000000124 .LFB52
     /tmp/cccsAOuM.s:288    .text:0000000000000140 .LFE52
     /tmp/cccsAOuM.s:3531   .debug_loc:00000000000002a3 .LLST9
     /tmp/cccsAOuM.s:215    .text:00000000000000e8 .LFB51
     /tmp/cccsAOuM.s:261    .text:0000000000000124 .LFE51
     /tmp/cccsAOuM.s:3545   .debug_loc:00000000000002dc .LLST8
     /tmp/cccsAOuM.s:664    .text:000000000000031c .LFB50
     /tmp/cccsAOuM.s:720    .text:0000000000000374 .LFE50
     /tmp/cccsAOuM.s:3581   .debug_loc:0000000000000367 .LLST24
     /tmp/cccsAOuM.s:701    .text:0000000000000358 .LVL60
     /tmp/cccsAOuM.s:392    .text:00000000000001dc .LFB49
     /tmp/cccsAOuM.s:448    .text:0000000000000234 .LFE49
     /tmp/cccsAOuM.s:3617   .debug_loc:00000000000003f2 .LLST15
     /tmp/cccsAOuM.s:429    .text:0000000000000218 .LVL34
     /tmp/cccsAOuM.s:568    .text:00000000000002ac .LFB48
     /tmp/cccsAOuM.s:658    .text:000000000000031c .LFE48
     /tmp/cccsAOuM.s:3653   .debug_loc:000000000000047d .LLST22
     /tmp/cccsAOuM.s:597    .text:00000000000002d4 .LBB44
     /tmp/cccsAOuM.s:607    .text:00000000000002e0 .LBE44
     /tmp/cccsAOuM.s:3690   .debug_loc:0000000000000518 .LLST23
     /tmp/cccsAOuM.s:614    .text:00000000000002f0 .LVL50
     /tmp/cccsAOuM.s:158    .text:00000000000000a0 .LFB47
     /tmp/cccsAOuM.s:209    .text:00000000000000e8 .LFE47
     /tmp/cccsAOuM.s:3705   .debug_loc:0000000000000552 .LLST4
     /tmp/cccsAOuM.s:179    .text:00000000000000c4 .LBB26
     /tmp/cccsAOuM.s:196    .text:00000000000000d4 .LBE26
     /tmp/cccsAOuM.s:3719   .debug_loc:000000000000058b .LLST5
     /tmp/cccsAOuM.s:3726   .debug_loc:00000000000005ae .LLST6
     /tmp/cccsAOuM.s:186    .text:00000000000000cc .LBB28
     /tmp/cccsAOuM.s:194    .text:00000000000000d4 .LBE28
     /tmp/cccsAOuM.s:3733   .debug_loc:00000000000005d1 .LLST7
     /tmp/cccsAOuM.s:178    .text:00000000000000c4 .LVL10
GAS LISTING /tmp/cccsAOuM.s 			page 28


     /tmp/cccsAOuM.s:117    .text:0000000000000078 .LFB46
     /tmp/cccsAOuM.s:145    .text:00000000000000a0 .LFE46
     /tmp/cccsAOuM.s:3742   .debug_loc:00000000000005f6 .LLST3
     /tmp/cccsAOuM.s:134    .text:0000000000000090 .LVL7
     /tmp/cccsAOuM.s:75     .text:0000000000000050 .LFB45
     /tmp/cccsAOuM.s:103    .text:0000000000000078 .LFE45
     /tmp/cccsAOuM.s:3756   .debug_loc:000000000000062f .LLST2
     /tmp/cccsAOuM.s:92     .text:0000000000000068 .LVL5
     /tmp/cccsAOuM.s:43     .text:0000000000000028 .LFB44
     /tmp/cccsAOuM.s:69     .text:0000000000000050 .LFE44
     /tmp/cccsAOuM.s:3770   .debug_loc:0000000000000668 .LLST1
     /tmp/cccsAOuM.s:58     .text:0000000000000040 .LVL3
     /tmp/cccsAOuM.s:10     .text:0000000000000000 .LFB43
     /tmp/cccsAOuM.s:37     .text:0000000000000028 .LFE43
     /tmp/cccsAOuM.s:3784   .debug_loc:00000000000006a1 .LLST0
     /tmp/cccsAOuM.s:26     .text:0000000000000018 .LVL1
     /tmp/cccsAOuM.s:4087   .debug_str:0000000000000824 .LASF140
     /tmp/cccsAOuM.s:459    .text:0000000000000234 .LVL37
     /tmp/cccsAOuM.s:467    .text:000000000000023c .LVL39
     /tmp/cccsAOuM.s:533    .text:00000000000002a0 .LVL45
     /tmp/cccsAOuM.s:462    .text:0000000000000238 .LVL38
     /tmp/cccsAOuM.s:483    .text:0000000000000254 .LVL40
     /tmp/cccsAOuM.s:541    .text:00000000000002a8 .LVL46
     /tmp/cccsAOuM.s:495    .text:0000000000000264 .LVL41
     /tmp/cccsAOuM.s:297    .text:0000000000000140 .LVL21
     /tmp/cccsAOuM.s:322    .text:000000000000016c .LVL23
     /tmp/cccsAOuM.s:368    .text:00000000000001c4 .LVL29
     /tmp/cccsAOuM.s:374    .text:00000000000001d0 .LVL30
     /tmp/cccsAOuM.s:315    .text:0000000000000168 .LVL22
     /tmp/cccsAOuM.s:340    .text:000000000000018c .LVL25
     /tmp/cccsAOuM.s:348    .text:000000000000019c .LVL26
     /tmp/cccsAOuM.s:270    .text:0000000000000124 .LVL19
     /tmp/cccsAOuM.s:280    .text:0000000000000134 .LVL20
     /tmp/cccsAOuM.s:218    .text:00000000000000e8 .LVL13
     /tmp/cccsAOuM.s:237    .text:0000000000000108 .LVL14
     /tmp/cccsAOuM.s:247    .text:0000000000000114 .LVL15
     /tmp/cccsAOuM.s:252    .text:0000000000000118 .LVL16
     /tmp/cccsAOuM.s:254    .text:000000000000011c .LVL17
     /tmp/cccsAOuM.s:258    .text:0000000000000120 .LVL18
     /tmp/cccsAOuM.s:667    .text:000000000000031c .LVL57
     /tmp/cccsAOuM.s:684    .text:000000000000033c .LVL58
     /tmp/cccsAOuM.s:687    .text:0000000000000340 .LVL59
     /tmp/cccsAOuM.s:713    .text:000000000000036c .LVL61
     /tmp/cccsAOuM.s:717    .text:0000000000000370 .LVL62
     /tmp/cccsAOuM.s:395    .text:00000000000001dc .LVL31
     /tmp/cccsAOuM.s:412    .text:00000000000001fc .LVL32
     /tmp/cccsAOuM.s:415    .text:0000000000000200 .LVL33
     /tmp/cccsAOuM.s:441    .text:000000000000022c .LVL35
     /tmp/cccsAOuM.s:445    .text:0000000000000230 .LVL36
     /tmp/cccsAOuM.s:571    .text:00000000000002ac .LVL47
     /tmp/cccsAOuM.s:593    .text:00000000000002d4 .LVL48
     /tmp/cccsAOuM.s:617    .text:00000000000002f4 .LVL51
     /tmp/cccsAOuM.s:625    .text:00000000000002f8 .LVL52
     /tmp/cccsAOuM.s:628    .text:00000000000002fc .LVL53
     /tmp/cccsAOuM.s:647    .text:000000000000030c .LVL55
     /tmp/cccsAOuM.s:651    .text:0000000000000314 .LVL56
     /tmp/cccsAOuM.s:605    .text:00000000000002e0 .LVL49
GAS LISTING /tmp/cccsAOuM.s 			page 29


     /tmp/cccsAOuM.s:636    .text:0000000000000300 .LVL54
     /tmp/cccsAOuM.s:161    .text:00000000000000a0 .LVL8
     /tmp/cccsAOuM.s:176    .text:00000000000000bc .LVL9
     /tmp/cccsAOuM.s:192    .text:00000000000000d4 .LVL12
     /tmp/cccsAOuM.s:185    .text:00000000000000cc .LVL11
     /tmp/cccsAOuM.s:122    .text:0000000000000078 .LVL6
     /tmp/cccsAOuM.s:80     .text:0000000000000050 .LVL4
     /tmp/cccsAOuM.s:46     .text:0000000000000028 .LVL2
     /tmp/cccsAOuM.s:14     .text:0000000000000000 .LVL0
     /tmp/cccsAOuM.s:728    .debug_info:0000000000000000 .Ldebug_info0
     /tmp/cccsAOuM.s:342    .text:000000000000018c .LBE30
     /tmp/cccsAOuM.s:377    .text:00000000000001d0 .LBB35
     /tmp/cccsAOuM.s:384    .text:00000000000001dc .LBE35
     /tmp/cccsAOuM.s:471    .text:0000000000000240 .LBE36
     /tmp/cccsAOuM.s:484    .text:0000000000000254 .LBB42
     /tmp/cccsAOuM.s:504    .text:000000000000026c .LBE42
     /tmp/cccsAOuM.s:536    .text:00000000000002a0 .LBB43
     /tmp/cccsAOuM.s:549    .text:00000000000002ac .LBE43
     /tmp/cccsAOuM.s:106    .gcc_except_table:0000000000000000 .LLSDA45
     /tmp/cccsAOuM.s:147    .gcc_except_table:0000000000000004 .LLSDA46
     /tmp/cccsAOuM.s:553    .gcc_except_table:0000000000000008 .LLSDA54

UNDEFINED SYMBOLS
_ZN15MemoryAllocator9mem_allocEm
_ZN15MemoryAllocator8mem_freeEPKv
__gxx_personality_v0
_ZN3TCB7runningE
_ZN3TCB10setBlockedEb
_ZN3TCB16timeSliceCounterE
_ZN3TCB8dispatchEv
_ZN9Scheduler3putEP3TCB
