GAS LISTING /tmp/cc5ayeBF.s 			page 1


   1              		.file	"semaphore.cpp"
   2              		.option pic
   3              		.option norelax
   4              		.text
   5              	.Ltext0:
   6              		.align	2
   7              		.globl	_ZN9semaphorenwEm
   9              	_ZN9semaphorenwEm:
  10              	.LFB41:
  11              		.file 1 "src/semaphore.cpp"
   1:src/semaphore.cpp **** //
   2:src/semaphore.cpp **** // Created by os on 6/2/24.
   3:src/semaphore.cpp **** //
   4:src/semaphore.cpp **** 
   5:src/semaphore.cpp **** #include "../h/semaphore.hpp"
   6:src/semaphore.cpp **** 
   7:src/semaphore.cpp **** void *semaphore::operator new(size_t n)
   8:src/semaphore.cpp **** {
  12              		.loc 1 8 1
  13              		.cfi_startproc
  14              	.LVL0:
  15 0000 130101FF 		addi	sp,sp,-16
  16              		.cfi_def_cfa_offset 16
  17 0004 23341100 		sd	ra,8(sp)
  18 0008 23308100 		sd	s0,0(sp)
  19              		.cfi_offset 1, -8
  20              		.cfi_offset 8, -16
  21 000c 13040101 		addi	s0,sp,16
  22              		.cfi_def_cfa 8, 0
   9:src/semaphore.cpp ****     return MemoryAllocator::mem_alloc(n);
  23              		.loc 1 9 5
  24              		.loc 1 9 38 is_stmt 0
  25 0010 97000000 		call	_ZN15MemoryAllocator9mem_allocEm@plt
  25      E7800000 
  26              	.LVL1:
  10:src/semaphore.cpp **** }
  27              		.loc 1 10 1
  28 0018 83308100 		ld	ra,8(sp)
  29              		.cfi_restore 1
  30 001c 03340100 		ld	s0,0(sp)
  31              		.cfi_restore 8
  32              		.cfi_def_cfa 2, 16
  33 0020 13010101 		addi	sp,sp,16
  34              		.cfi_def_cfa_offset 0
  35 0024 67800000 		jr	ra
  36              		.cfi_endproc
  37              	.LFE41:
  39              		.align	2
  40              		.globl	_ZN9semaphorenaEm
  42              	_ZN9semaphorenaEm:
  43              	.LFB42:
  11:src/semaphore.cpp **** 
  12:src/semaphore.cpp **** void *semaphore::operator new[](size_t n)
  13:src/semaphore.cpp **** {
  44              		.loc 1 13 1 is_stmt 1
  45              		.cfi_startproc
  46              	.LVL2:
GAS LISTING /tmp/cc5ayeBF.s 			page 2


  47 0028 130101FF 		addi	sp,sp,-16
  48              		.cfi_def_cfa_offset 16
  49 002c 23341100 		sd	ra,8(sp)
  50 0030 23308100 		sd	s0,0(sp)
  51              		.cfi_offset 1, -8
  52              		.cfi_offset 8, -16
  53 0034 13040101 		addi	s0,sp,16
  54              		.cfi_def_cfa 8, 0
  14:src/semaphore.cpp ****     return MemoryAllocator::mem_alloc(n);
  55              		.loc 1 14 5
  56              		.loc 1 14 38 is_stmt 0
  57 0038 97000000 		call	_ZN15MemoryAllocator9mem_allocEm@plt
  57      E7800000 
  58              	.LVL3:
  15:src/semaphore.cpp **** }
  59              		.loc 1 15 1
  60 0040 83308100 		ld	ra,8(sp)
  61              		.cfi_restore 1
  62 0044 03340100 		ld	s0,0(sp)
  63              		.cfi_restore 8
  64              		.cfi_def_cfa 2, 16
  65 0048 13010101 		addi	sp,sp,16
  66              		.cfi_def_cfa_offset 0
  67 004c 67800000 		jr	ra
  68              		.cfi_endproc
  69              	.LFE42:
  71              		.align	2
  72              		.globl	_ZN9semaphoredlEPv
  74              	_ZN9semaphoredlEPv:
  75              	.LFB43:
  16:src/semaphore.cpp **** 
  17:src/semaphore.cpp **** void semaphore::operator delete(void *p) noexcept
  18:src/semaphore.cpp **** {
  76              		.loc 1 18 1 is_stmt 1
  77              		.cfi_startproc
  78              		.cfi_personality 0x9b,DW.ref.__gxx_personality_v0
  79              		.cfi_lsda 0x1b,.LLSDA43
  80              	.LVL4:
  81 0050 130101FF 		addi	sp,sp,-16
  82              		.cfi_def_cfa_offset 16
  83 0054 23341100 		sd	ra,8(sp)
  84 0058 23308100 		sd	s0,0(sp)
  85              		.cfi_offset 1, -8
  86              		.cfi_offset 8, -16
  87 005c 13040101 		addi	s0,sp,16
  88              		.cfi_def_cfa 8, 0
  19:src/semaphore.cpp ****     MemoryAllocator::mem_free(p);
  89              		.loc 1 19 5
  90              		.loc 1 19 30 is_stmt 0
  91 0060 97000000 		call	_ZN15MemoryAllocator8mem_freeEPKv@plt
  91      E7800000 
  92              	.LVL5:
  20:src/semaphore.cpp **** }
  93              		.loc 1 20 1
  94 0068 83308100 		ld	ra,8(sp)
  95              		.cfi_restore 1
  96 006c 03340100 		ld	s0,0(sp)
GAS LISTING /tmp/cc5ayeBF.s 			page 3


  97              		.cfi_restore 8
  98              		.cfi_def_cfa 2, 16
  99 0070 13010101 		addi	sp,sp,16
 100              		.cfi_def_cfa_offset 0
 101 0074 67800000 		jr	ra
 102              		.cfi_endproc
 103              	.LFE43:
 104              		.globl	__gxx_personality_v0
 105              		.section	.gcc_except_table,"a",@progbits
 106              	.LLSDA43:
 107 0000 FF       		.byte	0xff
 108 0001 FF       		.byte	0xff
 109 0002 03       		.byte	0x3
 110 0003 00       		.byte	0
 111              		.text
 113              		.align	2
 114              		.globl	_ZN9semaphoredaEPv
 116              	_ZN9semaphoredaEPv:
 117              	.LFB44:
  21:src/semaphore.cpp **** 
  22:src/semaphore.cpp **** void semaphore::operator delete[](void *p) noexcept
  23:src/semaphore.cpp **** {
 118              		.loc 1 23 1 is_stmt 1
 119              		.cfi_startproc
 120              		.cfi_personality 0x9b,DW.ref.__gxx_personality_v0
 121              		.cfi_lsda 0x1b,.LLSDA44
 122              	.LVL6:
 123 0078 130101FF 		addi	sp,sp,-16
 124              		.cfi_def_cfa_offset 16
 125 007c 23341100 		sd	ra,8(sp)
 126 0080 23308100 		sd	s0,0(sp)
 127              		.cfi_offset 1, -8
 128              		.cfi_offset 8, -16
 129 0084 13040101 		addi	s0,sp,16
 130              		.cfi_def_cfa 8, 0
  24:src/semaphore.cpp ****     MemoryAllocator::mem_free(p);
 131              		.loc 1 24 5
 132              		.loc 1 24 30 is_stmt 0
 133 0088 97000000 		call	_ZN15MemoryAllocator8mem_freeEPKv@plt
 133      E7800000 
 134              	.LVL7:
  25:src/semaphore.cpp **** }
 135              		.loc 1 25 1
 136 0090 83308100 		ld	ra,8(sp)
 137              		.cfi_restore 1
 138 0094 03340100 		ld	s0,0(sp)
 139              		.cfi_restore 8
 140              		.cfi_def_cfa 2, 16
 141 0098 13010101 		addi	sp,sp,16
 142              		.cfi_def_cfa_offset 0
 143 009c 67800000 		jr	ra
 144              		.cfi_endproc
 145              	.LFE44:
 146              		.section	.gcc_except_table
 147              	.LLSDA44:
 148 0004 FF       		.byte	0xff
 149 0005 FF       		.byte	0xff
GAS LISTING /tmp/cc5ayeBF.s 			page 4


 150 0006 03       		.byte	0x3
 151 0007 00       		.byte	0
 152              		.text
 154              		.align	2
 155              		.globl	_ZN9semaphore13openSemaphoreEi
 157              	_ZN9semaphore13openSemaphoreEi:
 158              	.LFB45:
  26:src/semaphore.cpp **** 
  27:src/semaphore.cpp **** semaphore *semaphore::openSemaphore(int val) {
 159              		.loc 1 27 46 is_stmt 1
 160              		.cfi_startproc
 161              	.LVL8:
 162 00a0 130101FE 		addi	sp,sp,-32
 163              		.cfi_def_cfa_offset 32
 164 00a4 233C1100 		sd	ra,24(sp)
 165 00a8 23388100 		sd	s0,16(sp)
 166 00ac 23349100 		sd	s1,8(sp)
 167              		.cfi_offset 1, -8
 168              		.cfi_offset 8, -16
 169              		.cfi_offset 9, -24
 170 00b0 13040102 		addi	s0,sp,32
 171              		.cfi_def_cfa 8, 0
 172 00b4 93040500 		mv	s1,a0
  28:src/semaphore.cpp ****     return new semaphore(val);
 173              		.loc 1 28 5
 174              		.loc 1 28 29 is_stmt 0
 175 00b8 13058001 		li	a0,24
 176              	.LVL9:
 177 00bc 97000000 		call	_ZN9semaphorenwEm
 177      E7800000 
 178              	.LVL10:
 179              	.LBB22:
 180              	.LBB23:
 181              		.file 2 "src/../h/semaphore.hpp"
   1:src/../h/semaphore.hpp **** //
   2:src/../h/semaphore.hpp **** // Created by os on 6/2/24.
   3:src/../h/semaphore.hpp **** //
   4:src/../h/semaphore.hpp **** 
   5:src/../h/semaphore.hpp **** #ifndef PROJEKAT_1_1_SEMAPHORE_HPP
   6:src/../h/semaphore.hpp **** #define PROJEKAT_1_1_SEMAPHORE_HPP
   7:src/../h/semaphore.hpp **** 
   8:src/../h/semaphore.hpp **** 
   9:src/../h/semaphore.hpp **** #include "../lib/hw.h"
  10:src/../h/semaphore.hpp **** #include "tcb.hpp"
  11:src/../h/semaphore.hpp **** 
  12:src/../h/semaphore.hpp **** class semaphore {
  13:src/../h/semaphore.hpp **** 
  14:src/../h/semaphore.hpp ****     void *operator new(size_t n);
  15:src/../h/semaphore.hpp **** 
  16:src/../h/semaphore.hpp ****     void *operator new[](size_t n);
  17:src/../h/semaphore.hpp **** 
  18:src/../h/semaphore.hpp ****     void operator delete(void *p) noexcept;
  19:src/../h/semaphore.hpp **** 
  20:src/../h/semaphore.hpp ****     void operator delete[](void *p) noexcept;
  21:src/../h/semaphore.hpp **** public:
  22:src/../h/semaphore.hpp ****     static semaphore* openSemaphore(int val);
  23:src/../h/semaphore.hpp ****     int closeSemaphore();
GAS LISTING /tmp/cc5ayeBF.s 			page 5


  24:src/../h/semaphore.hpp ****     int wait();
  25:src/../h/semaphore.hpp ****     int signal();
  26:src/../h/semaphore.hpp ****     int trywait();
  27:src/../h/semaphore.hpp ****     int timed_wait();
  28:src/../h/semaphore.hpp **** 
  29:src/../h/semaphore.hpp **** 
  30:src/../h/semaphore.hpp **** private:
  31:src/../h/semaphore.hpp ****     explicit semaphore(int val = 1): value(val), closed(false){};
 182              		.loc 2 31 62
 183 00c4 23209500 		sw	s1,0(a0)
 184 00c8 23020500 		sb	zero,4(a0)
 185              	.LVL11:
 186              	.LBB24:
 187              	.LBB25:
 188              		.file 3 "src/../h/list.hpp"
   1:src/../h/list.hpp **** //
   2:src/../h/list.hpp **** // Created by os on 5/17/24.
   3:src/../h/list.hpp **** //
   4:src/../h/list.hpp **** 
   5:src/../h/list.hpp **** #ifndef PROJEKAT_LIST_HPP
   6:src/../h/list.hpp **** #define PROJEKAT_LIST_HPP
   7:src/../h/list.hpp **** 
   8:src/../h/list.hpp **** #include "MemoryAllocator.hpp"
   9:src/../h/list.hpp **** 
  10:src/../h/list.hpp **** template<typename T>
  11:src/../h/list.hpp **** class List
  12:src/../h/list.hpp ****         {
  13:src/../h/list.hpp ****         private:
  14:src/../h/list.hpp **** 
  15:src/../h/list.hpp ****     void operator delete(void *p) noexcept
  16:src/../h/list.hpp ****     {
  17:src/../h/list.hpp ****         MemoryAllocator::mem_free(p);
  18:src/../h/list.hpp ****     }
  19:src/../h/list.hpp **** 
  20:src/../h/list.hpp ****     void operator delete[](void *p) noexcept
  21:src/../h/list.hpp ****     {
  22:src/../h/list.hpp ****         MemoryAllocator::mem_free(p);
  23:src/../h/list.hpp ****     }
  24:src/../h/list.hpp **** 
  25:src/../h/list.hpp **** 
  26:src/../h/list.hpp **** 
  27:src/../h/list.hpp **** 
  28:src/../h/list.hpp ****             struct Elem{
  29:src/../h/list.hpp ****                 T* data;
  30:src/../h/list.hpp ****                 Elem* next;
  31:src/../h/list.hpp ****                 Elem(T*data,Elem * next) : data(data), next(next){};
  32:src/../h/list.hpp ****             };
  33:src/../h/list.hpp ****             Elem*head,*tail;
  34:src/../h/list.hpp **** 
  35:src/../h/list.hpp ****         public:
  36:src/../h/list.hpp ****             List():head(0), tail(0){}
 189              		.loc 3 36 35
 190 00cc 23340500 		sd	zero,8(a0)
 191 00d0 23380500 		sd	zero,16(a0)
 192              	.LVL12:
 193              	.LBE25:
 194              	.LBE24:
GAS LISTING /tmp/cc5ayeBF.s 			page 6


 195              	.LBE23:
 196              	.LBE22:
  29:src/semaphore.cpp **** }
 197              		.loc 1 29 1
 198 00d4 83308101 		ld	ra,24(sp)
 199              		.cfi_restore 1
 200 00d8 03340101 		ld	s0,16(sp)
 201              		.cfi_restore 8
 202              		.cfi_def_cfa 2, 32
 203 00dc 83348100 		ld	s1,8(sp)
 204              		.cfi_restore 9
 205 00e0 13010102 		addi	sp,sp,32
 206              		.cfi_def_cfa_offset 0
 207 00e4 67800000 		jr	ra
 208              		.cfi_endproc
 209              	.LFE45:
 211              		.align	2
 212              		.globl	_ZN9semaphore7trywaitEv
 214              	_ZN9semaphore7trywaitEv:
 215              	.LFB49:
  30:src/semaphore.cpp **** 
  31:src/semaphore.cpp **** int semaphore::closeSemaphore() {
  32:src/semaphore.cpp ****     if(!this->closed) this->closed = true;
  33:src/semaphore.cpp ****     else return -2;
  34:src/semaphore.cpp **** 
  35:src/semaphore.cpp ****    while(this->blocked.peekFirst()){
  36:src/semaphore.cpp ****        unblock();
  37:src/semaphore.cpp ****    }
  38:src/semaphore.cpp **** 
  39:src/semaphore.cpp ****    //delete this;
  40:src/semaphore.cpp ****     return 0;
  41:src/semaphore.cpp **** }
  42:src/semaphore.cpp **** 
  43:src/semaphore.cpp **** int semaphore::wait() {
  44:src/semaphore.cpp ****     if(this->closed) return -2;
  45:src/semaphore.cpp ****     this->value--;
  46:src/semaphore.cpp ****     if(this->value <0){
  47:src/semaphore.cpp ****         block();
  48:src/semaphore.cpp ****     }
  49:src/semaphore.cpp **** 
  50:src/semaphore.cpp ****     return 0;
  51:src/semaphore.cpp **** }
  52:src/semaphore.cpp **** 
  53:src/semaphore.cpp **** int semaphore::signal() {
  54:src/semaphore.cpp ****     if(this->closed) return -2;
  55:src/semaphore.cpp ****     this->value++;
  56:src/semaphore.cpp ****     if(this->value <=0){
  57:src/semaphore.cpp ****        unblock();
  58:src/semaphore.cpp ****     }
  59:src/semaphore.cpp ****     return 0;
  60:src/semaphore.cpp **** }
  61:src/semaphore.cpp **** 
  62:src/semaphore.cpp **** int semaphore::trywait() {
 216              		.loc 1 62 26 is_stmt 1
 217              		.cfi_startproc
 218              	.LVL13:
 219 00e8 130101FF 		addi	sp,sp,-16
GAS LISTING /tmp/cc5ayeBF.s 			page 7


 220              		.cfi_def_cfa_offset 16
 221 00ec 23348100 		sd	s0,8(sp)
 222              		.cfi_offset 8, -8
 223 00f0 13040101 		addi	s0,sp,16
 224              		.cfi_def_cfa 8, 0
  63:src/semaphore.cpp **** 
  64:src/semaphore.cpp ****     if(this->closed) return -2;
 225              		.loc 1 64 5
 226              		.loc 1 64 14 is_stmt 0
 227 00f4 83474500 		lbu	a5,4(a0)
 228              		.loc 1 64 5
 229 00f8 639E0700 		bnez	a5,.L13
  65:src/semaphore.cpp ****     if(this->value -1 <0){
 230              		.loc 1 65 5 is_stmt 1
 231              		.loc 1 65 14 is_stmt 0
 232 00fc 83270500 		lw	a5,0(a0)
 233              		.loc 1 65 5
 234 0100 635EF000 		blez	a5,.L14
  66:src/semaphore.cpp ****         return 0;
  67:src/semaphore.cpp ****     }
  68:src/semaphore.cpp ****     return 1;
 235              		.loc 1 68 12
 236 0104 13051000 		li	a0,1
 237              	.LVL14:
 238              	.L12:
  69:src/semaphore.cpp **** 
  70:src/semaphore.cpp **** }
 239              		.loc 1 70 1
 240 0108 03348100 		ld	s0,8(sp)
 241              		.cfi_remember_state
 242              		.cfi_restore 8
 243              		.cfi_def_cfa 2, 16
 244 010c 13010101 		addi	sp,sp,16
 245              		.cfi_def_cfa_offset 0
 246 0110 67800000 		jr	ra
 247              	.LVL15:
 248              	.L13:
 249              		.cfi_restore_state
  64:src/semaphore.cpp ****     if(this->value -1 <0){
 250              		.loc 1 64 30
 251 0114 1305E0FF 		li	a0,-2
 252              	.LVL16:
 253 0118 6FF01FFF 		j	.L12
 254              	.LVL17:
 255              	.L14:
  66:src/semaphore.cpp ****         return 0;
 256              		.loc 1 66 16
 257 011c 13050000 		li	a0,0
 258              	.LVL18:
 259 0120 6FF09FFE 		j	.L12
 260              		.cfi_endproc
 261              	.LFE49:
 263              		.align	2
 264              		.globl	_ZN9semaphore10timed_waitEv
 266              	_ZN9semaphore10timed_waitEv:
 267              	.LFB50:
  71:src/semaphore.cpp **** 
GAS LISTING /tmp/cc5ayeBF.s 			page 8


  72:src/semaphore.cpp **** int semaphore::timed_wait() {
 268              		.loc 1 72 29 is_stmt 1
 269              		.cfi_startproc
 270              	.LVL19:
 271 0124 130101FF 		addi	sp,sp,-16
 272              		.cfi_def_cfa_offset 16
 273 0128 23348100 		sd	s0,8(sp)
 274              		.cfi_offset 8, -8
 275 012c 13040101 		addi	s0,sp,16
 276              		.cfi_def_cfa 8, 0
  73:src/semaphore.cpp ****     return 0;
 277              		.loc 1 73 5
  74:src/semaphore.cpp **** }
 278              		.loc 1 74 1 is_stmt 0
 279 0130 13050000 		li	a0,0
 280              	.LVL20:
 281 0134 03348100 		ld	s0,8(sp)
 282              		.cfi_restore 8
 283              		.cfi_def_cfa 2, 16
 284 0138 13010101 		addi	sp,sp,16
 285              		.cfi_def_cfa_offset 0
 286 013c 67800000 		jr	ra
 287              		.cfi_endproc
 288              	.LFE50:
 290              		.align	2
 291              		.globl	_ZN9semaphore5blockEv
 293              	_ZN9semaphore5blockEv:
 294              	.LFB51:
  75:src/semaphore.cpp **** 
  76:src/semaphore.cpp **** void semaphore::block() {
 295              		.loc 1 76 25 is_stmt 1
 296              		.cfi_startproc
 297              	.LVL21:
 298 0140 130101FE 		addi	sp,sp,-32
 299              		.cfi_def_cfa_offset 32
 300 0144 233C1100 		sd	ra,24(sp)
 301 0148 23388100 		sd	s0,16(sp)
 302 014c 23349100 		sd	s1,8(sp)
 303 0150 23302101 		sd	s2,0(sp)
 304              		.cfi_offset 1, -8
 305              		.cfi_offset 8, -16
 306              		.cfi_offset 9, -24
 307              		.cfi_offset 18, -32
 308 0154 13040102 		addi	s0,sp,32
 309              		.cfi_def_cfa 8, 0
 310 0158 93040500 		mv	s1,a0
  77:src/semaphore.cpp ****     this->blocked.addLast(TCB::running);
 311              		.loc 1 77 5
 312              		.loc 1 77 26 is_stmt 0
 313 015c 97070000 		la	a5,_ZN3TCB7runningE
 313      83B70700 
 314 0164 03B90700 		ld	s2,0(a5)
 315              	.LVL22:
 316              	.LBB26:
 317              	.LBB27:
  37:src/../h/list.hpp ****             List(const List<T> &) = delete;
  38:src/../h/list.hpp ****             List<T> &operator=(const List<T> &) = delete;
GAS LISTING /tmp/cc5ayeBF.s 			page 9


  39:src/../h/list.hpp **** 
  40:src/../h/list.hpp ****             void addFirst(T*data){
  41:src/../h/list.hpp ****                 Elem* elem = (Elem*)MemoryAllocator::mem_alloc(sizeof(Elem));
  42:src/../h/list.hpp ****                 elem->data=data;
  43:src/../h/list.hpp ****                 elem->next=0;
  44:src/../h/list.hpp ****                 head= elem;
  45:src/../h/list.hpp ****                 if(!tail) tail = head;
  46:src/../h/list.hpp ****             }
  47:src/../h/list.hpp ****             void addLast (T* data){
  48:src/../h/list.hpp ****                 Elem* elem = (Elem*)MemoryAllocator::mem_alloc(sizeof(Elem));
 318              		.loc 3 48 63
 319 0168 13050001 		li	a0,16
 320              	.LVL23:
 321 016c 97000000 		call	_ZN15MemoryAllocator9mem_allocEm@plt
 321      E7800000 
 322              	.LVL24:
  49:src/../h/list.hpp ****                 elem->data=data;
 323              		.loc 3 49 17
 324 0174 23302501 		sd	s2,0(a0)
  50:src/../h/list.hpp ****                 elem->next=0;
 325              		.loc 3 50 17
 326 0178 23340500 		sd	zero,8(a0)
  51:src/../h/list.hpp ****                 if(tail){
 327              		.loc 3 51 20
 328 017c 83B70401 		ld	a5,16(s1)
 329              		.loc 3 51 17
 330 0180 63880704 		beqz	a5,.L19
  52:src/../h/list.hpp ****                     tail->next = elem;
 331              		.loc 3 52 21
 332 0184 23B4A700 		sd	a0,8(a5)
  53:src/../h/list.hpp ****                     tail = elem;
 333              		.loc 3 53 21
 334 0188 23B8A400 		sd	a0,16(s1)
 335              	.L20:
 336              	.LVL25:
 337              	.LBE27:
 338              	.LBE26:
  78:src/semaphore.cpp ****     TCB::running->setBlocked(true);
 339              		.loc 1 78 5 is_stmt 1
 340              		.loc 1 78 29 is_stmt 0
 341 018c 93051000 		li	a1,1
 342 0190 97070000 		la	a5,_ZN3TCB7runningE
 342      83B70700 
 343 0198 03B50700 		ld	a0,0(a5)
 344              	.LVL26:
 345 019c 97000000 		call	_ZN3TCB10setBlockedEb@plt
 345      E7800000 
 346              	.LVL27:
  79:src/semaphore.cpp **** 
  80:src/semaphore.cpp ****     TCB::timeSliceCounter=0;
 347              		.loc 1 80 5 is_stmt 1
 348              		.loc 1 80 26 is_stmt 0
 349 01a4 97070000 		la	a5,_ZN3TCB16timeSliceCounterE
 349      83B70700 
 350 01ac 23B00700 		sd	zero,0(a5)
  81:src/semaphore.cpp ****     TCB::dispatch();
 351              		.loc 1 81 5 is_stmt 1
GAS LISTING /tmp/cc5ayeBF.s 			page 10


 352              		.loc 1 81 18 is_stmt 0
 353 01b0 97000000 		call	_ZN3TCB8dispatchEv@plt
 353      E7800000 
 354              	.LVL28:
  82:src/semaphore.cpp **** }
 355              		.loc 1 82 1
 356 01b8 83308101 		ld	ra,24(sp)
 357              		.cfi_remember_state
 358              		.cfi_restore 1
 359 01bc 03340101 		ld	s0,16(sp)
 360              		.cfi_restore 8
 361              		.cfi_def_cfa 2, 32
 362 01c0 83348100 		ld	s1,8(sp)
 363              		.cfi_restore 9
 364              	.LVL29:
 365 01c4 03390100 		ld	s2,0(sp)
 366              		.cfi_restore 18
 367 01c8 13010102 		addi	sp,sp,32
 368              		.cfi_def_cfa_offset 0
 369 01cc 67800000 		jr	ra
 370              	.LVL30:
 371              	.L19:
 372              		.cfi_restore_state
 373              	.LBB29:
 374              	.LBB28:
  54:src/../h/list.hpp ****                 }else{
  55:src/../h/list.hpp ****                     head= tail = elem;
 375              		.loc 3 55 21
 376 01d0 23B8A400 		sd	a0,16(s1)
 377 01d4 23B4A400 		sd	a0,8(s1)
 378 01d8 6FF05FFB 		j	.L20
 379              	.LBE28:
 380              	.LBE29:
 381              		.cfi_endproc
 382              	.LFE51:
 384              		.align	2
 385              		.globl	_ZN9semaphore4waitEv
 387              	_ZN9semaphore4waitEv:
 388              	.LFB47:
  43:src/semaphore.cpp ****     if(this->closed) return -2;
 389              		.loc 1 43 23 is_stmt 1
 390              		.cfi_startproc
 391              	.LVL31:
  44:src/semaphore.cpp ****     this->value--;
 392              		.loc 1 44 5
  44:src/semaphore.cpp ****     this->value--;
 393              		.loc 1 44 14 is_stmt 0
 394 01dc 83474500 		lbu	a5,4(a0)
  44:src/semaphore.cpp ****     this->value--;
 395              		.loc 1 44 5
 396 01e0 63960704 		bnez	a5,.L24
  45:src/semaphore.cpp ****     if(this->value <0){
 397              		.loc 1 45 5 is_stmt 1
  45:src/semaphore.cpp ****     if(this->value <0){
 398              		.loc 1 45 11 is_stmt 0
 399 01e4 83270500 		lw	a5,0(a0)
  45:src/semaphore.cpp ****     if(this->value <0){
GAS LISTING /tmp/cc5ayeBF.s 			page 11


 400              		.loc 1 45 16
 401 01e8 9B87F7FF 		addiw	a5,a5,-1
 402 01ec 2320F500 		sw	a5,0(a0)
  46:src/semaphore.cpp ****         block();
 403              		.loc 1 46 5 is_stmt 1
 404 01f0 13970702 		slli	a4,a5,32
 405 01f4 63460700 		bltz	a4,.L30
  50:src/semaphore.cpp **** }
 406              		.loc 1 50 12 is_stmt 0
 407 01f8 13050000 		li	a0,0
 408              	.LVL32:
  51:src/semaphore.cpp **** 
 409              		.loc 1 51 1
 410 01fc 67800000 		ret
 411              	.LVL33:
 412              	.L30:
  43:src/semaphore.cpp ****     if(this->closed) return -2;
 413              		.loc 1 43 23
 414 0200 130101FF 		addi	sp,sp,-16
 415              		.cfi_def_cfa_offset 16
 416 0204 23341100 		sd	ra,8(sp)
 417 0208 23308100 		sd	s0,0(sp)
 418              		.cfi_offset 1, -8
 419              		.cfi_offset 8, -16
 420 020c 13040101 		addi	s0,sp,16
 421              		.cfi_def_cfa 8, 0
  47:src/semaphore.cpp ****     }
 422              		.loc 1 47 9 is_stmt 1
  47:src/semaphore.cpp ****     }
 423              		.loc 1 47 14 is_stmt 0
 424 0210 97000000 		call	_ZN9semaphore5blockEv
 424      E7800000 
 425              	.LVL34:
  50:src/semaphore.cpp **** }
 426              		.loc 1 50 12
 427 0218 13050000 		li	a0,0
  51:src/semaphore.cpp **** 
 428              		.loc 1 51 1
 429 021c 83308100 		ld	ra,8(sp)
 430              		.cfi_restore 1
 431 0220 03340100 		ld	s0,0(sp)
 432              		.cfi_restore 8
 433              		.cfi_def_cfa 2, 16
 434 0224 13010101 		addi	sp,sp,16
 435              		.cfi_def_cfa_offset 0
 436 0228 67800000 		jr	ra
 437              	.LVL35:
 438              	.L24:
  44:src/semaphore.cpp ****     this->value--;
 439              		.loc 1 44 30
 440 022c 1305E0FF 		li	a0,-2
 441              	.LVL36:
 442 0230 67800000 		ret
 443              		.cfi_endproc
 444              	.LFE47:
 446              		.align	2
 447              		.globl	_ZN9semaphore7unblockEv
GAS LISTING /tmp/cc5ayeBF.s 			page 12


 449              	_ZN9semaphore7unblockEv:
 450              	.LFB52:
  83:src/semaphore.cpp **** 
  84:src/semaphore.cpp **** void semaphore::unblock() {
 451              		.loc 1 84 27 is_stmt 1
 452              		.cfi_startproc
 453              		.cfi_personality 0x9b,DW.ref.__gxx_personality_v0
 454              		.cfi_lsda 0x1b,.LLSDA52
 455              	.LVL37:
 456 0234 93070500 		mv	a5,a0
  85:src/semaphore.cpp **** 
  86:src/semaphore.cpp ****     TCB *thread = this->blocked.removeFirst();
 457              		.loc 1 86 5
 458              	.LVL38:
 459              	.LBB30:
 460              	.LBB31:
  56:src/../h/list.hpp ****                 }
  57:src/../h/list.hpp ****             }
  58:src/../h/list.hpp **** 
  59:src/../h/list.hpp ****             T* removeFirst(){
  60:src/../h/list.hpp ****                 if(!head)return 0;
 461              		.loc 3 60 21 is_stmt 0
 462 0238 03358500 		ld	a0,8(a0)
 463              	.LVL39:
 464              		.loc 3 60 17
 465 023c 63060506 		beqz	a0,.L35
 466              	.LBE31:
 467              	.LBE30:
  84:src/semaphore.cpp **** 
 468              		.loc 1 84 27
 469 0240 130101FE 		addi	sp,sp,-32
 470              		.cfi_def_cfa_offset 32
 471 0244 233C1100 		sd	ra,24(sp)
 472 0248 23388100 		sd	s0,16(sp)
 473 024c 23349100 		sd	s1,8(sp)
 474              		.cfi_offset 1, -8
 475              		.cfi_offset 8, -16
 476              		.cfi_offset 9, -24
 477 0250 13040102 		addi	s0,sp,32
 478              		.cfi_def_cfa 8, 0
 479              	.LVL40:
 480              	.LBB36:
 481              	.LBB34:
  61:src/../h/list.hpp ****                 Elem *elem = head;
  62:src/../h/list.hpp ****                 head = head->next;
 482              		.loc 3 62 30
 483 0254 03378500 		ld	a4,8(a0)
 484              		.loc 3 62 17
 485 0258 23B4E700 		sd	a4,8(a5)
  63:src/../h/list.hpp ****                 if(!head) tail = 0;
 486              		.loc 3 63 17
 487 025c 63020704 		beqz	a4,.L38
 488              	.L33:
  64:src/../h/list.hpp ****                 T *ret = elem->data;
 489              		.loc 3 64 20
 490 0260 83340500 		ld	s1,0(a0)
 491              	.LVL41:
GAS LISTING /tmp/cc5ayeBF.s 			page 13


 492              	.LBB32:
 493              	.LBB33:
  17:src/../h/list.hpp ****     }
 494              		.loc 3 17 34
 495 0264 97000000 		call	_ZN15MemoryAllocator8mem_freeEPKv@plt
 495      E7800000 
 496              	.LVL42:
 497              	.LBE33:
 498              	.LBE32:
 499              	.LBE34:
 500              	.LBE36:
  87:src/semaphore.cpp ****     if (thread) {
 501              		.loc 1 87 5 is_stmt 1
 502 026c 63800402 		beqz	s1,.L31
  88:src/semaphore.cpp ****         thread->setBlocked(false);
 503              		.loc 1 88 9
 504              		.loc 1 88 27 is_stmt 0
 505 0270 93050000 		li	a1,0
 506 0274 13850400 		mv	a0,s1
 507              	.LEHB0:
 508 0278 97000000 		call	_ZN3TCB10setBlockedEb@plt
 508      E7800000 
 509              	.LVL43:
  89:src/semaphore.cpp ****         Scheduler::put(thread);
 510              		.loc 1 89 9 is_stmt 1
 511              		.loc 1 89 23 is_stmt 0
 512 0280 13850400 		mv	a0,s1
 513 0284 97000000 		call	_ZN9Scheduler3putEP3TCB@plt
 513      E7800000 
 514              	.LVL44:
 515              	.LEHE0:
 516              	.L31:
  90:src/semaphore.cpp ****     }
  91:src/semaphore.cpp **** }
 517              		.loc 1 91 1
 518 028c 83308101 		ld	ra,24(sp)
 519              		.cfi_remember_state
 520              		.cfi_restore 1
 521 0290 03340101 		ld	s0,16(sp)
 522              		.cfi_restore 8
 523              		.cfi_def_cfa 2, 32
 524 0294 83348100 		ld	s1,8(sp)
 525              		.cfi_restore 9
 526 0298 13010102 		addi	sp,sp,32
 527              		.cfi_def_cfa_offset 0
 528 029c 67800000 		jr	ra
 529              	.LVL45:
 530              	.L38:
 531              		.cfi_restore_state
 532              	.LBB37:
 533              	.LBB35:
  63:src/../h/list.hpp ****                 T *ret = elem->data;
 534              		.loc 3 63 27
 535 02a0 23B80700 		sd	zero,16(a5)
 536 02a4 6FF0DFFB 		j	.L33
 537              	.LVL46:
 538              	.L35:
GAS LISTING /tmp/cc5ayeBF.s 			page 14


 539              		.cfi_def_cfa_register 2
 540              		.cfi_restore 1
 541              		.cfi_restore 8
 542              		.cfi_restore 9
 543 02a8 67800000 		ret
 544              	.LBE35:
 545              	.LBE37:
 546              		.cfi_endproc
 547              	.LFE52:
 548              		.section	.gcc_except_table
 549              	.LLSDA52:
 550 0008 FF       		.byte	0xff
 551 0009 FF       		.byte	0xff
 552 000a 03       		.byte	0x3
 553 000b 0D       		.byte	0xd
 554 000c 00000000 		.4byte	.LEHB0-.LFB52
 555 0010 00000000 		.4byte	.LEHE0-.LEHB0
 556 0014 00000000 		.4byte	0
 557 0018 00       		.byte	0
 558              		.text
 560              		.align	2
 561              		.globl	_ZN9semaphore14closeSemaphoreEv
 563              	_ZN9semaphore14closeSemaphoreEv:
 564              	.LFB46:
  31:src/semaphore.cpp ****     if(!this->closed) this->closed = true;
 565              		.loc 1 31 33 is_stmt 1
 566              		.cfi_startproc
 567              	.LVL47:
  32:src/semaphore.cpp ****     else return -2;
 568              		.loc 1 32 5
  32:src/semaphore.cpp ****     else return -2;
 569              		.loc 1 32 15 is_stmt 0
 570 02ac 83474500 		lbu	a5,4(a0)
  32:src/semaphore.cpp ****     else return -2;
 571              		.loc 1 32 5
 572 02b0 63920704 		bnez	a5,.L42
  31:src/semaphore.cpp ****     if(!this->closed) this->closed = true;
 573              		.loc 1 31 33 discriminator 1
 574 02b4 130101FE 		addi	sp,sp,-32
 575              		.cfi_def_cfa_offset 32
 576 02b8 233C1100 		sd	ra,24(sp)
 577 02bc 23388100 		sd	s0,16(sp)
 578 02c0 23349100 		sd	s1,8(sp)
 579              		.cfi_offset 1, -8
 580              		.cfi_offset 8, -16
 581              		.cfi_offset 9, -24
 582 02c4 13040102 		addi	s0,sp,32
 583              		.cfi_def_cfa 8, 0
 584 02c8 93040500 		mv	s1,a0
  32:src/semaphore.cpp ****     else return -2;
 585              		.loc 1 32 23 is_stmt 1 discriminator 1
  32:src/semaphore.cpp ****     else return -2;
 586              		.loc 1 32 36 is_stmt 0 discriminator 1
 587 02cc 93071000 		li	a5,1
 588 02d0 2302F500 		sb	a5,4(a0)
 589              	.LVL48:
 590              	.L41:
GAS LISTING /tmp/cc5ayeBF.s 			page 15


  35:src/semaphore.cpp ****        unblock();
 591              		.loc 1 35 4 is_stmt 1
  35:src/semaphore.cpp ****        unblock();
 592              		.loc 1 35 34
 593              	.LBB38:
 594              	.LBB39:
  65:src/../h/list.hpp ****                 operator delete(elem);
  66:src/../h/list.hpp ****                 return ret;
  67:src/../h/list.hpp ****             }
  68:src/../h/list.hpp ****             T* peekFirst(){
  69:src/../h/list.hpp ****                 if(!head) return 0;
 595              		.loc 3 69 21 is_stmt 0
 596 02d4 83B78400 		ld	a5,8(s1)
 597              		.loc 3 69 17
 598 02d8 63820702 		beqz	a5,.L43
  70:src/../h/list.hpp ****                 return head->data;
 599              		.loc 3 70 30
 600 02dc 83B70700 		ld	a5,0(a5)
 601              	.LVL49:
 602              	.LBE39:
 603              	.LBE38:
  35:src/semaphore.cpp ****        unblock();
 604              		.loc 1 35 34
 605 02e0 638A0702 		beqz	a5,.L44
  36:src/semaphore.cpp ****    }
 606              		.loc 1 36 8 is_stmt 1
  36:src/semaphore.cpp ****    }
 607              		.loc 1 36 15 is_stmt 0
 608 02e4 13850400 		mv	a0,s1
 609 02e8 97000000 		call	_ZN9semaphore7unblockEv
 609      E7800000 
 610              	.LVL50:
  35:src/semaphore.cpp ****        unblock();
 611              		.loc 1 35 4
 612 02f0 6FF05FFE 		j	.L41
 613              	.LVL51:
 614              	.L42:
 615              		.cfi_def_cfa_register 2
 616              		.cfi_restore 1
 617              		.cfi_restore 8
 618              		.cfi_restore 9
  33:src/semaphore.cpp **** 
 619              		.loc 1 33 18
 620 02f4 1305E0FF 		li	a0,-2
 621              	.LVL52:
  41:src/semaphore.cpp **** 
 622              		.loc 1 41 1
 623 02f8 67800000 		ret
 624              	.LVL53:
 625              	.L43:
 626              		.cfi_def_cfa_register 8
 627              		.cfi_offset 1, -8
 628              		.cfi_offset 8, -16
 629              		.cfi_offset 9, -24
  40:src/semaphore.cpp **** }
 630              		.loc 1 40 12
 631 02fc 13050000 		li	a0,0
GAS LISTING /tmp/cc5ayeBF.s 			page 16


 632              	.LVL54:
 633              	.L40:
  41:src/semaphore.cpp **** 
 634              		.loc 1 41 1
 635 0300 83308101 		ld	ra,24(sp)
 636              		.cfi_remember_state
 637              		.cfi_restore 1
 638 0304 03340101 		ld	s0,16(sp)
 639              		.cfi_restore 8
 640              		.cfi_def_cfa 2, 32
 641 0308 83348100 		ld	s1,8(sp)
 642              		.cfi_restore 9
 643              	.LVL55:
 644 030c 13010102 		addi	sp,sp,32
 645              		.cfi_def_cfa_offset 0
 646 0310 67800000 		jr	ra
 647              	.LVL56:
 648              	.L44:
 649              		.cfi_restore_state
  40:src/semaphore.cpp **** }
 650              		.loc 1 40 12
 651 0314 13050000 		li	a0,0
 652 0318 6FF09FFE 		j	.L40
 653              		.cfi_endproc
 654              	.LFE46:
 656              		.align	2
 657              		.globl	_ZN9semaphore6signalEv
 659              	_ZN9semaphore6signalEv:
 660              	.LFB48:
  53:src/semaphore.cpp ****     if(this->closed) return -2;
 661              		.loc 1 53 25 is_stmt 1
 662              		.cfi_startproc
 663              	.LVL57:
  54:src/semaphore.cpp ****     this->value++;
 664              		.loc 1 54 5
  54:src/semaphore.cpp ****     this->value++;
 665              		.loc 1 54 14 is_stmt 0
 666 031c 83474500 		lbu	a5,4(a0)
  54:src/semaphore.cpp ****     this->value++;
 667              		.loc 1 54 5
 668 0320 63960704 		bnez	a5,.L51
  55:src/semaphore.cpp ****     if(this->value <=0){
 669              		.loc 1 55 5 is_stmt 1
  55:src/semaphore.cpp ****     if(this->value <=0){
 670              		.loc 1 55 11 is_stmt 0
 671 0324 83270500 		lw	a5,0(a0)
  55:src/semaphore.cpp ****     if(this->value <=0){
 672              		.loc 1 55 16
 673 0328 9B871700 		addiw	a5,a5,1
 674 032c 1B870700 		sext.w	a4,a5
 675 0330 2320F500 		sw	a5,0(a0)
  56:src/semaphore.cpp ****        unblock();
 676              		.loc 1 56 5 is_stmt 1
 677 0334 6356E000 		blez	a4,.L57
  59:src/semaphore.cpp **** }
 678              		.loc 1 59 12 is_stmt 0
 679 0338 13050000 		li	a0,0
GAS LISTING /tmp/cc5ayeBF.s 			page 17


 680              	.LVL58:
  60:src/semaphore.cpp **** 
 681              		.loc 1 60 1
 682 033c 67800000 		ret
 683              	.LVL59:
 684              	.L57:
  53:src/semaphore.cpp ****     if(this->closed) return -2;
 685              		.loc 1 53 25
 686 0340 130101FF 		addi	sp,sp,-16
 687              		.cfi_def_cfa_offset 16
 688 0344 23341100 		sd	ra,8(sp)
 689 0348 23308100 		sd	s0,0(sp)
 690              		.cfi_offset 1, -8
 691              		.cfi_offset 8, -16
 692 034c 13040101 		addi	s0,sp,16
 693              		.cfi_def_cfa 8, 0
  57:src/semaphore.cpp ****     }
 694              		.loc 1 57 8 is_stmt 1
  57:src/semaphore.cpp ****     }
 695              		.loc 1 57 15 is_stmt 0
 696 0350 97000000 		call	_ZN9semaphore7unblockEv
 696      E7800000 
 697              	.LVL60:
  59:src/semaphore.cpp **** }
 698              		.loc 1 59 12
 699 0358 13050000 		li	a0,0
  60:src/semaphore.cpp **** 
 700              		.loc 1 60 1
 701 035c 83308100 		ld	ra,8(sp)
 702              		.cfi_restore 1
 703 0360 03340100 		ld	s0,0(sp)
 704              		.cfi_restore 8
 705              		.cfi_def_cfa 2, 16
 706 0364 13010101 		addi	sp,sp,16
 707              		.cfi_def_cfa_offset 0
 708 0368 67800000 		jr	ra
 709              	.LVL61:
 710              	.L51:
  54:src/semaphore.cpp ****     this->value++;
 711              		.loc 1 54 30
 712 036c 1305E0FF 		li	a0,-2
 713              	.LVL62:
 714 0370 67800000 		ret
 715              		.cfi_endproc
 716              	.LFE48:
 718              	.Letext0:
 719              		.file 4 "src/../h/../lib/hw.h"
 720              		.file 5 "src/../h/MemoryAllocator.hpp"
 721              		.file 6 "src/../h/scheduler.hpp"
 722              		.file 7 "src/../h/tcb.hpp"
 4075              		.align	3
 4078              	DW.ref.__gxx_personality_v0:
 4079 0000 00000000 		.dword	__gxx_personality_v0
 4079      00000000 
 4080              		.ident	"GCC: (Ubuntu 9.3.0-17ubuntu1~20.04) 9.3.0"
 4081              		.section	.note.GNU-stack,"",@progbits
GAS LISTING /tmp/cc5ayeBF.s 			page 18


DEFINED SYMBOLS
                            *ABS*:0000000000000000 semaphore.cpp
     /tmp/cc5ayeBF.s:9      .text:0000000000000000 _ZN9semaphorenwEm
     /tmp/cc5ayeBF.s:13     .text:0000000000000000 .L0 
     /tmp/cc5ayeBF.s:15     .text:0000000000000000 .L0 
     /tmp/cc5ayeBF.s:16     .text:0000000000000004 .L0 
     /tmp/cc5ayeBF.s:19     .text:000000000000000c .L0 
     /tmp/cc5ayeBF.s:20     .text:000000000000000c .L0 
     /tmp/cc5ayeBF.s:22     .text:0000000000000010 .L0 
     /tmp/cc5ayeBF.s:24     .text:0000000000000010 .L0 
     /tmp/cc5ayeBF.s:25     .text:0000000000000010 .L0 
     /tmp/cc5ayeBF.s:28     .text:0000000000000018 .L0 
     /tmp/cc5ayeBF.s:29     .text:000000000000001c .L0 
     /tmp/cc5ayeBF.s:31     .text:0000000000000020 .L0 
     /tmp/cc5ayeBF.s:32     .text:0000000000000020 .L0 
     /tmp/cc5ayeBF.s:34     .text:0000000000000024 .L0 
     /tmp/cc5ayeBF.s:36     .text:0000000000000028 .L0 
     /tmp/cc5ayeBF.s:42     .text:0000000000000028 _ZN9semaphorenaEm
     /tmp/cc5ayeBF.s:45     .text:0000000000000028 .L0 
     /tmp/cc5ayeBF.s:47     .text:0000000000000028 .L0 
     /tmp/cc5ayeBF.s:48     .text:000000000000002c .L0 
     /tmp/cc5ayeBF.s:51     .text:0000000000000034 .L0 
     /tmp/cc5ayeBF.s:52     .text:0000000000000034 .L0 
     /tmp/cc5ayeBF.s:54     .text:0000000000000038 .L0 
     /tmp/cc5ayeBF.s:56     .text:0000000000000038 .L0 
     /tmp/cc5ayeBF.s:57     .text:0000000000000038 .L0 
     /tmp/cc5ayeBF.s:60     .text:0000000000000040 .L0 
     /tmp/cc5ayeBF.s:61     .text:0000000000000044 .L0 
     /tmp/cc5ayeBF.s:63     .text:0000000000000048 .L0 
     /tmp/cc5ayeBF.s:64     .text:0000000000000048 .L0 
     /tmp/cc5ayeBF.s:66     .text:000000000000004c .L0 
     /tmp/cc5ayeBF.s:68     .text:0000000000000050 .L0 
     /tmp/cc5ayeBF.s:74     .text:0000000000000050 _ZN9semaphoredlEPv
     /tmp/cc5ayeBF.s:77     .text:0000000000000050 .L0 
     /tmp/cc5ayeBF.s:4078   .data.rel.local.DW.ref.__gxx_personality_v0:0000000000000000 DW.ref.__gxx_personality_v0
     /tmp/cc5ayeBF.s:81     .text:0000000000000050 .L0 
     /tmp/cc5ayeBF.s:82     .text:0000000000000054 .L0 
     /tmp/cc5ayeBF.s:85     .text:000000000000005c .L0 
     /tmp/cc5ayeBF.s:86     .text:000000000000005c .L0 
     /tmp/cc5ayeBF.s:88     .text:0000000000000060 .L0 
     /tmp/cc5ayeBF.s:90     .text:0000000000000060 .L0 
     /tmp/cc5ayeBF.s:91     .text:0000000000000060 .L0 
     /tmp/cc5ayeBF.s:94     .text:0000000000000068 .L0 
     /tmp/cc5ayeBF.s:95     .text:000000000000006c .L0 
     /tmp/cc5ayeBF.s:97     .text:0000000000000070 .L0 
     /tmp/cc5ayeBF.s:98     .text:0000000000000070 .L0 
     /tmp/cc5ayeBF.s:100    .text:0000000000000074 .L0 
     /tmp/cc5ayeBF.s:102    .text:0000000000000078 .L0 
     /tmp/cc5ayeBF.s:116    .text:0000000000000078 _ZN9semaphoredaEPv
     /tmp/cc5ayeBF.s:119    .text:0000000000000078 .L0 
     /tmp/cc5ayeBF.s:123    .text:0000000000000078 .L0 
     /tmp/cc5ayeBF.s:124    .text:000000000000007c .L0 
     /tmp/cc5ayeBF.s:127    .text:0000000000000084 .L0 
     /tmp/cc5ayeBF.s:128    .text:0000000000000084 .L0 
     /tmp/cc5ayeBF.s:130    .text:0000000000000088 .L0 
     /tmp/cc5ayeBF.s:132    .text:0000000000000088 .L0 
     /tmp/cc5ayeBF.s:133    .text:0000000000000088 .L0 
GAS LISTING /tmp/cc5ayeBF.s 			page 19


     /tmp/cc5ayeBF.s:136    .text:0000000000000090 .L0 
     /tmp/cc5ayeBF.s:137    .text:0000000000000094 .L0 
     /tmp/cc5ayeBF.s:139    .text:0000000000000098 .L0 
     /tmp/cc5ayeBF.s:140    .text:0000000000000098 .L0 
     /tmp/cc5ayeBF.s:142    .text:000000000000009c .L0 
     /tmp/cc5ayeBF.s:144    .text:00000000000000a0 .L0 
     /tmp/cc5ayeBF.s:157    .text:00000000000000a0 _ZN9semaphore13openSemaphoreEi
     /tmp/cc5ayeBF.s:160    .text:00000000000000a0 .L0 
     /tmp/cc5ayeBF.s:162    .text:00000000000000a0 .L0 
     /tmp/cc5ayeBF.s:163    .text:00000000000000a4 .L0 
     /tmp/cc5ayeBF.s:167    .text:00000000000000b0 .L0 
     /tmp/cc5ayeBF.s:168    .text:00000000000000b0 .L0 
     /tmp/cc5ayeBF.s:169    .text:00000000000000b0 .L0 
     /tmp/cc5ayeBF.s:171    .text:00000000000000b4 .L0 
     /tmp/cc5ayeBF.s:174    .text:00000000000000b8 .L0 
     /tmp/cc5ayeBF.s:175    .text:00000000000000b8 .L0 
     /tmp/cc5ayeBF.s:183    .text:00000000000000c4 .L0 
     /tmp/cc5ayeBF.s:190    .text:00000000000000cc .L0 
     /tmp/cc5ayeBF.s:198    .text:00000000000000d4 .L0 
     /tmp/cc5ayeBF.s:199    .text:00000000000000d8 .L0 
     /tmp/cc5ayeBF.s:201    .text:00000000000000dc .L0 
     /tmp/cc5ayeBF.s:202    .text:00000000000000dc .L0 
     /tmp/cc5ayeBF.s:204    .text:00000000000000e0 .L0 
     /tmp/cc5ayeBF.s:206    .text:00000000000000e4 .L0 
     /tmp/cc5ayeBF.s:208    .text:00000000000000e8 .L0 
     /tmp/cc5ayeBF.s:214    .text:00000000000000e8 _ZN9semaphore7trywaitEv
     /tmp/cc5ayeBF.s:217    .text:00000000000000e8 .L0 
     /tmp/cc5ayeBF.s:219    .text:00000000000000e8 .L0 
     /tmp/cc5ayeBF.s:220    .text:00000000000000ec .L0 
     /tmp/cc5ayeBF.s:222    .text:00000000000000f0 .L0 
     /tmp/cc5ayeBF.s:224    .text:00000000000000f4 .L0 
     /tmp/cc5ayeBF.s:226    .text:00000000000000f4 .L0 
     /tmp/cc5ayeBF.s:227    .text:00000000000000f4 .L0 
     /tmp/cc5ayeBF.s:229    .text:00000000000000f8 .L0 
     /tmp/cc5ayeBF.s:231    .text:00000000000000fc .L0 
     /tmp/cc5ayeBF.s:232    .text:00000000000000fc .L0 
     /tmp/cc5ayeBF.s:234    .text:0000000000000100 .L0 
     /tmp/cc5ayeBF.s:236    .text:0000000000000104 .L0 
     /tmp/cc5ayeBF.s:240    .text:0000000000000108 .L0 
     /tmp/cc5ayeBF.s:241    .text:000000000000010c .L0 
     /tmp/cc5ayeBF.s:242    .text:000000000000010c .L0 
     /tmp/cc5ayeBF.s:243    .text:000000000000010c .L0 
     /tmp/cc5ayeBF.s:245    .text:0000000000000110 .L0 
     /tmp/cc5ayeBF.s:249    .text:0000000000000114 .L0 
     /tmp/cc5ayeBF.s:251    .text:0000000000000114 .L0 
     /tmp/cc5ayeBF.s:257    .text:000000000000011c .L0 
     /tmp/cc5ayeBF.s:260    .text:0000000000000124 .L0 
     /tmp/cc5ayeBF.s:266    .text:0000000000000124 _ZN9semaphore10timed_waitEv
     /tmp/cc5ayeBF.s:269    .text:0000000000000124 .L0 
     /tmp/cc5ayeBF.s:271    .text:0000000000000124 .L0 
     /tmp/cc5ayeBF.s:272    .text:0000000000000128 .L0 
     /tmp/cc5ayeBF.s:274    .text:000000000000012c .L0 
     /tmp/cc5ayeBF.s:276    .text:0000000000000130 .L0 
     /tmp/cc5ayeBF.s:278    .text:0000000000000130 .L0 
     /tmp/cc5ayeBF.s:279    .text:0000000000000130 .L0 
     /tmp/cc5ayeBF.s:282    .text:0000000000000138 .L0 
     /tmp/cc5ayeBF.s:283    .text:0000000000000138 .L0 
GAS LISTING /tmp/cc5ayeBF.s 			page 20


     /tmp/cc5ayeBF.s:285    .text:000000000000013c .L0 
     /tmp/cc5ayeBF.s:287    .text:0000000000000140 .L0 
     /tmp/cc5ayeBF.s:293    .text:0000000000000140 _ZN9semaphore5blockEv
     /tmp/cc5ayeBF.s:296    .text:0000000000000140 .L0 
     /tmp/cc5ayeBF.s:298    .text:0000000000000140 .L0 
     /tmp/cc5ayeBF.s:299    .text:0000000000000144 .L0 
     /tmp/cc5ayeBF.s:304    .text:0000000000000154 .L0 
     /tmp/cc5ayeBF.s:305    .text:0000000000000154 .L0 
     /tmp/cc5ayeBF.s:306    .text:0000000000000154 .L0 
     /tmp/cc5ayeBF.s:307    .text:0000000000000154 .L0 
     /tmp/cc5ayeBF.s:309    .text:0000000000000158 .L0 
     /tmp/cc5ayeBF.s:312    .text:000000000000015c .L0 
     /tmp/cc5ayeBF.s:313    .text:000000000000015c .L0 
     /tmp/cc5ayeBF.s:319    .text:0000000000000168 .L0 
     /tmp/cc5ayeBF.s:324    .text:0000000000000174 .L0 
     /tmp/cc5ayeBF.s:326    .text:0000000000000178 .L0 
     /tmp/cc5ayeBF.s:328    .text:000000000000017c .L0 
     /tmp/cc5ayeBF.s:330    .text:0000000000000180 .L0 
     /tmp/cc5ayeBF.s:332    .text:0000000000000184 .L0 
     /tmp/cc5ayeBF.s:334    .text:0000000000000188 .L0 
     /tmp/cc5ayeBF.s:340    .text:000000000000018c .L0 
     /tmp/cc5ayeBF.s:341    .text:000000000000018c .L0 
     /tmp/cc5ayeBF.s:348    .text:00000000000001a4 .L0 
     /tmp/cc5ayeBF.s:349    .text:00000000000001a4 .L0 
     /tmp/cc5ayeBF.s:352    .text:00000000000001b0 .L0 
     /tmp/cc5ayeBF.s:353    .text:00000000000001b0 .L0 
     /tmp/cc5ayeBF.s:356    .text:00000000000001b8 .L0 
     /tmp/cc5ayeBF.s:357    .text:00000000000001bc .L0 
     /tmp/cc5ayeBF.s:358    .text:00000000000001bc .L0 
     /tmp/cc5ayeBF.s:360    .text:00000000000001c0 .L0 
     /tmp/cc5ayeBF.s:361    .text:00000000000001c0 .L0 
     /tmp/cc5ayeBF.s:363    .text:00000000000001c4 .L0 
     /tmp/cc5ayeBF.s:366    .text:00000000000001c8 .L0 
     /tmp/cc5ayeBF.s:368    .text:00000000000001cc .L0 
     /tmp/cc5ayeBF.s:372    .text:00000000000001d0 .L0 
     /tmp/cc5ayeBF.s:376    .text:00000000000001d0 .L0 
     /tmp/cc5ayeBF.s:381    .text:00000000000001dc .L0 
     /tmp/cc5ayeBF.s:387    .text:00000000000001dc _ZN9semaphore4waitEv
     /tmp/cc5ayeBF.s:390    .text:00000000000001dc .L0 
     /tmp/cc5ayeBF.s:392    .text:00000000000001dc .L0 
     /tmp/cc5ayeBF.s:393    .text:00000000000001dc .L0 
     /tmp/cc5ayeBF.s:394    .text:00000000000001dc .L0 
     /tmp/cc5ayeBF.s:396    .text:00000000000001e0 .L0 
     /tmp/cc5ayeBF.s:398    .text:00000000000001e4 .L0 
     /tmp/cc5ayeBF.s:399    .text:00000000000001e4 .L0 
     /tmp/cc5ayeBF.s:401    .text:00000000000001e8 .L0 
     /tmp/cc5ayeBF.s:404    .text:00000000000001f0 .L0 
     /tmp/cc5ayeBF.s:407    .text:00000000000001f8 .L0 
     /tmp/cc5ayeBF.s:410    .text:00000000000001fc .L0 
     /tmp/cc5ayeBF.s:414    .text:0000000000000200 .L0 
     /tmp/cc5ayeBF.s:415    .text:0000000000000204 .L0 
     /tmp/cc5ayeBF.s:418    .text:000000000000020c .L0 
     /tmp/cc5ayeBF.s:419    .text:000000000000020c .L0 
     /tmp/cc5ayeBF.s:421    .text:0000000000000210 .L0 
     /tmp/cc5ayeBF.s:423    .text:0000000000000210 .L0 
     /tmp/cc5ayeBF.s:424    .text:0000000000000210 .L0 
     /tmp/cc5ayeBF.s:427    .text:0000000000000218 .L0 
GAS LISTING /tmp/cc5ayeBF.s 			page 21


     /tmp/cc5ayeBF.s:429    .text:000000000000021c .L0 
     /tmp/cc5ayeBF.s:430    .text:0000000000000220 .L0 
     /tmp/cc5ayeBF.s:432    .text:0000000000000224 .L0 
     /tmp/cc5ayeBF.s:433    .text:0000000000000224 .L0 
     /tmp/cc5ayeBF.s:435    .text:0000000000000228 .L0 
     /tmp/cc5ayeBF.s:440    .text:000000000000022c .L0 
     /tmp/cc5ayeBF.s:443    .text:0000000000000234 .L0 
     /tmp/cc5ayeBF.s:449    .text:0000000000000234 _ZN9semaphore7unblockEv
     /tmp/cc5ayeBF.s:452    .text:0000000000000234 .L0 
     /tmp/cc5ayeBF.s:456    .text:0000000000000234 .L0 
     /tmp/cc5ayeBF.s:461    .text:0000000000000238 .L0 
     /tmp/cc5ayeBF.s:462    .text:0000000000000238 .L0 
     /tmp/cc5ayeBF.s:465    .text:000000000000023c .L0 
     /tmp/cc5ayeBF.s:469    .text:0000000000000240 .L0 
     /tmp/cc5ayeBF.s:470    .text:0000000000000244 .L0 
     /tmp/cc5ayeBF.s:474    .text:0000000000000250 .L0 
     /tmp/cc5ayeBF.s:475    .text:0000000000000250 .L0 
     /tmp/cc5ayeBF.s:476    .text:0000000000000250 .L0 
     /tmp/cc5ayeBF.s:478    .text:0000000000000254 .L0 
     /tmp/cc5ayeBF.s:483    .text:0000000000000254 .L0 
     /tmp/cc5ayeBF.s:485    .text:0000000000000258 .L0 
     /tmp/cc5ayeBF.s:487    .text:000000000000025c .L0 
     /tmp/cc5ayeBF.s:490    .text:0000000000000260 .L0 
     /tmp/cc5ayeBF.s:495    .text:0000000000000264 .L0 
     /tmp/cc5ayeBF.s:502    .text:000000000000026c .L0 
     /tmp/cc5ayeBF.s:504    .text:0000000000000270 .L0 
     /tmp/cc5ayeBF.s:505    .text:0000000000000270 .L0 
     /tmp/cc5ayeBF.s:511    .text:0000000000000280 .L0 
     /tmp/cc5ayeBF.s:512    .text:0000000000000280 .L0 
     /tmp/cc5ayeBF.s:518    .text:000000000000028c .L0 
     /tmp/cc5ayeBF.s:519    .text:0000000000000290 .L0 
     /tmp/cc5ayeBF.s:520    .text:0000000000000290 .L0 
     /tmp/cc5ayeBF.s:522    .text:0000000000000294 .L0 
     /tmp/cc5ayeBF.s:523    .text:0000000000000294 .L0 
     /tmp/cc5ayeBF.s:525    .text:0000000000000298 .L0 
     /tmp/cc5ayeBF.s:527    .text:000000000000029c .L0 
     /tmp/cc5ayeBF.s:531    .text:00000000000002a0 .L0 
     /tmp/cc5ayeBF.s:535    .text:00000000000002a0 .L0 
     /tmp/cc5ayeBF.s:539    .text:00000000000002a8 .L0 
     /tmp/cc5ayeBF.s:540    .text:00000000000002a8 .L0 
     /tmp/cc5ayeBF.s:541    .text:00000000000002a8 .L0 
     /tmp/cc5ayeBF.s:542    .text:00000000000002a8 .L0 
     /tmp/cc5ayeBF.s:546    .text:00000000000002ac .L0 
     /tmp/cc5ayeBF.s:563    .text:00000000000002ac _ZN9semaphore14closeSemaphoreEv
     /tmp/cc5ayeBF.s:566    .text:00000000000002ac .L0 
     /tmp/cc5ayeBF.s:568    .text:00000000000002ac .L0 
     /tmp/cc5ayeBF.s:569    .text:00000000000002ac .L0 
     /tmp/cc5ayeBF.s:570    .text:00000000000002ac .L0 
     /tmp/cc5ayeBF.s:572    .text:00000000000002b0 .L0 
     /tmp/cc5ayeBF.s:574    .text:00000000000002b4 .L0 
     /tmp/cc5ayeBF.s:575    .text:00000000000002b8 .L0 
     /tmp/cc5ayeBF.s:579    .text:00000000000002c4 .L0 
     /tmp/cc5ayeBF.s:580    .text:00000000000002c4 .L0 
     /tmp/cc5ayeBF.s:581    .text:00000000000002c4 .L0 
     /tmp/cc5ayeBF.s:583    .text:00000000000002c8 .L0 
     /tmp/cc5ayeBF.s:586    .text:00000000000002cc .L0 
     /tmp/cc5ayeBF.s:587    .text:00000000000002cc .L0 
GAS LISTING /tmp/cc5ayeBF.s 			page 22


     /tmp/cc5ayeBF.s:592    .text:00000000000002d4 .L0 
     /tmp/cc5ayeBF.s:595    .text:00000000000002d4 .L0 
     /tmp/cc5ayeBF.s:596    .text:00000000000002d4 .L0 
     /tmp/cc5ayeBF.s:598    .text:00000000000002d8 .L0 
     /tmp/cc5ayeBF.s:600    .text:00000000000002dc .L0 
     /tmp/cc5ayeBF.s:605    .text:00000000000002e0 .L0 
     /tmp/cc5ayeBF.s:607    .text:00000000000002e4 .L0 
     /tmp/cc5ayeBF.s:608    .text:00000000000002e4 .L0 
     /tmp/cc5ayeBF.s:612    .text:00000000000002f0 .L0 
     /tmp/cc5ayeBF.s:615    .text:00000000000002f4 .L0 
     /tmp/cc5ayeBF.s:616    .text:00000000000002f4 .L0 
     /tmp/cc5ayeBF.s:617    .text:00000000000002f4 .L0 
     /tmp/cc5ayeBF.s:618    .text:00000000000002f4 .L0 
     /tmp/cc5ayeBF.s:620    .text:00000000000002f4 .L0 
     /tmp/cc5ayeBF.s:623    .text:00000000000002f8 .L0 
     /tmp/cc5ayeBF.s:626    .text:00000000000002fc .L0 
     /tmp/cc5ayeBF.s:627    .text:00000000000002fc .L0 
     /tmp/cc5ayeBF.s:628    .text:00000000000002fc .L0 
     /tmp/cc5ayeBF.s:629    .text:00000000000002fc .L0 
     /tmp/cc5ayeBF.s:631    .text:00000000000002fc .L0 
     /tmp/cc5ayeBF.s:635    .text:0000000000000300 .L0 
     /tmp/cc5ayeBF.s:636    .text:0000000000000304 .L0 
     /tmp/cc5ayeBF.s:637    .text:0000000000000304 .L0 
     /tmp/cc5ayeBF.s:639    .text:0000000000000308 .L0 
     /tmp/cc5ayeBF.s:640    .text:0000000000000308 .L0 
     /tmp/cc5ayeBF.s:642    .text:000000000000030c .L0 
     /tmp/cc5ayeBF.s:645    .text:0000000000000310 .L0 
     /tmp/cc5ayeBF.s:649    .text:0000000000000314 .L0 
     /tmp/cc5ayeBF.s:651    .text:0000000000000314 .L0 
     /tmp/cc5ayeBF.s:653    .text:000000000000031c .L0 
     /tmp/cc5ayeBF.s:659    .text:000000000000031c _ZN9semaphore6signalEv
     /tmp/cc5ayeBF.s:662    .text:000000000000031c .L0 
     /tmp/cc5ayeBF.s:664    .text:000000000000031c .L0 
     /tmp/cc5ayeBF.s:665    .text:000000000000031c .L0 
     /tmp/cc5ayeBF.s:666    .text:000000000000031c .L0 
     /tmp/cc5ayeBF.s:668    .text:0000000000000320 .L0 
     /tmp/cc5ayeBF.s:670    .text:0000000000000324 .L0 
     /tmp/cc5ayeBF.s:671    .text:0000000000000324 .L0 
     /tmp/cc5ayeBF.s:673    .text:0000000000000328 .L0 
     /tmp/cc5ayeBF.s:677    .text:0000000000000334 .L0 
     /tmp/cc5ayeBF.s:679    .text:0000000000000338 .L0 
     /tmp/cc5ayeBF.s:682    .text:000000000000033c .L0 
     /tmp/cc5ayeBF.s:686    .text:0000000000000340 .L0 
     /tmp/cc5ayeBF.s:687    .text:0000000000000344 .L0 
     /tmp/cc5ayeBF.s:690    .text:000000000000034c .L0 
     /tmp/cc5ayeBF.s:691    .text:000000000000034c .L0 
     /tmp/cc5ayeBF.s:693    .text:0000000000000350 .L0 
     /tmp/cc5ayeBF.s:695    .text:0000000000000350 .L0 
     /tmp/cc5ayeBF.s:696    .text:0000000000000350 .L0 
     /tmp/cc5ayeBF.s:699    .text:0000000000000358 .L0 
     /tmp/cc5ayeBF.s:701    .text:000000000000035c .L0 
     /tmp/cc5ayeBF.s:702    .text:0000000000000360 .L0 
     /tmp/cc5ayeBF.s:704    .text:0000000000000364 .L0 
     /tmp/cc5ayeBF.s:705    .text:0000000000000364 .L0 
     /tmp/cc5ayeBF.s:707    .text:0000000000000368 .L0 
     /tmp/cc5ayeBF.s:712    .text:000000000000036c .L0 
     /tmp/cc5ayeBF.s:715    .text:0000000000000374 .L0 
GAS LISTING /tmp/cc5ayeBF.s 			page 23


     /tmp/cc5ayeBF.s:723    .text:0000000000000374 .L0 
     /tmp/cc5ayeBF.s:313    .text:000000000000015c .L0 
     /tmp/cc5ayeBF.s:342    .text:0000000000000190 .L0 
     /tmp/cc5ayeBF.s:349    .text:00000000000001a4 .L0 
     /tmp/cc5ayeBF.s:248    .text:0000000000000114 .L13
     /tmp/cc5ayeBF.s:255    .text:000000000000011c .L14
     /tmp/cc5ayeBF.s:238    .text:0000000000000108 .L12
     /tmp/cc5ayeBF.s:371    .text:00000000000001d0 .L19
     /tmp/cc5ayeBF.s:335    .text:000000000000018c .L20
     /tmp/cc5ayeBF.s:438    .text:000000000000022c .L24
     /tmp/cc5ayeBF.s:412    .text:0000000000000200 .L30
     /tmp/cc5ayeBF.s:538    .text:00000000000002a8 .L35
     /tmp/cc5ayeBF.s:530    .text:00000000000002a0 .L38
     /tmp/cc5ayeBF.s:516    .text:000000000000028c .L31
     /tmp/cc5ayeBF.s:488    .text:0000000000000260 .L33
     /tmp/cc5ayeBF.s:614    .text:00000000000002f4 .L42
     /tmp/cc5ayeBF.s:625    .text:00000000000002fc .L43
     /tmp/cc5ayeBF.s:648    .text:0000000000000314 .L44
     /tmp/cc5ayeBF.s:590    .text:00000000000002d4 .L41
     /tmp/cc5ayeBF.s:633    .text:0000000000000300 .L40
     /tmp/cc5ayeBF.s:710    .text:000000000000036c .L51
     /tmp/cc5ayeBF.s:684    .text:0000000000000340 .L57
     /tmp/cc5ayeBF.s:507    .text:0000000000000278 .LEHB0
     /tmp/cc5ayeBF.s:450    .text:0000000000000234 .LFB52
     /tmp/cc5ayeBF.s:515    .text:000000000000028c .LEHE0
     /tmp/cc5ayeBF.s:2235   .debug_abbrev:0000000000000000 .Ldebug_abbrev0
     /tmp/cc5ayeBF.s:3994   .debug_str:0000000000000631 .LASF127
     /tmp/cc5ayeBF.s:3924   .debug_str:0000000000000416 .LASF128
     /tmp/cc5ayeBF.s:4054   .debug_str:0000000000000895 .LASF129
     /tmp/cc5ayeBF.s:5      .text:0000000000000000 .Ltext0
     /tmp/cc5ayeBF.s:718    .text:0000000000000374 .Letext0
     /tmp/cc5ayeBF.s:3788   .debug_line:0000000000000000 .Ldebug_line0
     /tmp/cc5ayeBF.s:3890   .debug_str:000000000000031d .LASF0
     /tmp/cc5ayeBF.s:3912   .debug_str:00000000000003c1 .LASF1
     /tmp/cc5ayeBF.s:3968   .debug_str:0000000000000550 .LASF2
     /tmp/cc5ayeBF.s:3856   .debug_str:000000000000021e .LASF3
     /tmp/cc5ayeBF.s:3974   .debug_str:0000000000000575 .LASF4
     /tmp/cc5ayeBF.s:3894   .debug_str:000000000000032f .LASF5
     /tmp/cc5ayeBF.s:3802   .debug_str:000000000000006b .LASF6
     /tmp/cc5ayeBF.s:3952   .debug_str:00000000000004cd .LASF7
     /tmp/cc5ayeBF.s:3902   .debug_str:0000000000000383 .LASF8
     /tmp/cc5ayeBF.s:3870   .debug_str:000000000000026a .LASF9
     /tmp/cc5ayeBF.s:3878   .debug_str:00000000000002bd .LASF10
     /tmp/cc5ayeBF.s:3824   .debug_str:000000000000011c .LASF11
     /tmp/cc5ayeBF.s:3862   .debug_str:0000000000000240 .LASF12
     /tmp/cc5ayeBF.s:3834   .debug_str:0000000000000161 .LASF13
     /tmp/cc5ayeBF.s:3822   .debug_str:000000000000010c .LASF14
     /tmp/cc5ayeBF.s:4000   .debug_str:0000000000000714 .LASF15
     /tmp/cc5ayeBF.s:3850   .debug_str:00000000000001e5 .LASF16
     /tmp/cc5ayeBF.s:3988   .debug_str:00000000000005ef .LASF17
     /tmp/cc5ayeBF.s:3948   .debug_str:00000000000004b1 .LASF27
     /tmp/cc5ayeBF.s:4016   .debug_str:0000000000000767 .LASF36
     /tmp/cc5ayeBF.s:3814   .debug_str:00000000000000d0 .LASF18
     /tmp/cc5ayeBF.s:3910   .debug_str:00000000000003bc .LASF19
     /tmp/cc5ayeBF.s:3846   .debug_str:00000000000001c3 .LASF20
     /tmp/cc5ayeBF.s:4014   .debug_str:0000000000000762 .LASF59
     /tmp/cc5ayeBF.s:4038   .debug_str:00000000000007f5 .LASF61
GAS LISTING /tmp/cc5ayeBF.s 			page 24


     /tmp/cc5ayeBF.s:3838   .debug_str:0000000000000183 .LASF21
     /tmp/cc5ayeBF.s:3906   .debug_str:00000000000003a8 .LASF30
     /tmp/cc5ayeBF.s:3978   .debug_str:0000000000000581 .LASF80
     /tmp/cc5ayeBF.s:3932   .debug_str:0000000000000458 .LASF22
     /tmp/cc5ayeBF.s:3804   .debug_str:0000000000000072 .LASF24
     /tmp/cc5ayeBF.s:4008   .debug_str:0000000000000743 .LASF23
     /tmp/cc5ayeBF.s:3956   .debug_str:00000000000004f6 .LASF25
     /tmp/cc5ayeBF.s:3810   .debug_str:00000000000000b8 .LASF82
     /tmp/cc5ayeBF.s:4064   .debug_str:000000000000090f .LASF84
     /tmp/cc5ayeBF.s:3960   .debug_str:0000000000000521 .LASF26
     /tmp/cc5ayeBF.s:3868   .debug_str:0000000000000260 .LASF28
     /tmp/cc5ayeBF.s:3982   .debug_str:00000000000005b3 .LASF29
     /tmp/cc5ayeBF.s:4058   .debug_str:00000000000008c1 .LASF130
     /tmp/cc5ayeBF.s:3884   .debug_str:00000000000002f4 .LASF131
     /tmp/cc5ayeBF.s:4044   .debug_str:0000000000000832 .LASF31
     /tmp/cc5ayeBF.s:3792   .debug_str:0000000000000005 .LASF32
     /tmp/cc5ayeBF.s:3940   .debug_str:0000000000000483 .LASF34
     /tmp/cc5ayeBF.s:3986   .debug_str:00000000000005dc .LASF33
     /tmp/cc5ayeBF.s:3990   .debug_str:0000000000000605 .LASF35
     /tmp/cc5ayeBF.s:4034   .debug_str:00000000000007d7 .LASF37
     /tmp/cc5ayeBF.s:3908   .debug_str:00000000000003b7 .LASF38
     /tmp/cc5ayeBF.s:3826   .debug_str:000000000000012b .LASF39
     /tmp/cc5ayeBF.s:4062   .debug_str:00000000000008f0 .LASF40
     /tmp/cc5ayeBF.s:3860   .debug_str:000000000000023b .LASF41
     /tmp/cc5ayeBF.s:3938   .debug_str:000000000000047e .LASF42
     /tmp/cc5ayeBF.s:3934   .debug_str:0000000000000462 .LASF43
     /tmp/cc5ayeBF.s:4004   .debug_str:0000000000000727 .LASF44
     /tmp/cc5ayeBF.s:3858   .debug_str:0000000000000224 .LASF50
     /tmp/cc5ayeBF.s:3972   .debug_str:000000000000056b .LASF132
     /tmp/cc5ayeBF.s:3962   .debug_str:0000000000000526 .LASF133
     /tmp/cc5ayeBF.s:3966   .debug_str:0000000000000547 .LASF45
     /tmp/cc5ayeBF.s:3820   .debug_str:00000000000000ef .LASF46
     /tmp/cc5ayeBF.s:3922   .debug_str:000000000000040e .LASF47
     /tmp/cc5ayeBF.s:3852   .debug_str:00000000000001fb .LASF48
     /tmp/cc5ayeBF.s:3950   .debug_str:00000000000004c1 .LASF49
     /tmp/cc5ayeBF.s:4046   .debug_str:000000000000083c .LASF51
     /tmp/cc5ayeBF.s:4070   .debug_str:0000000000000943 .LASF52
     /tmp/cc5ayeBF.s:4060   .debug_str:00000000000008d5 .LASF53
     /tmp/cc5ayeBF.s:3980   .debug_str:00000000000005a8 .LASF54
     /tmp/cc5ayeBF.s:3900   .debug_str:0000000000000366 .LASF55
     /tmp/cc5ayeBF.s:3958   .debug_str:0000000000000518 .LASF56
     /tmp/cc5ayeBF.s:3796   .debug_str:000000000000001d .LASF57
     /tmp/cc5ayeBF.s:3828   .debug_str:0000000000000130 .LASF58
     /tmp/cc5ayeBF.s:4066   .debug_str:000000000000092b .LASF60
     /tmp/cc5ayeBF.s:3876   .debug_str:00000000000002b1 .LASF62
     /tmp/cc5ayeBF.s:3930   .debug_str:0000000000000448 .LASF63
     /tmp/cc5ayeBF.s:3866   .debug_str:0000000000000254 .LASF64
     /tmp/cc5ayeBF.s:3942   .debug_str:0000000000000497 .LASF65
     /tmp/cc5ayeBF.s:3970   .debug_str:000000000000055e .LASF66
     /tmp/cc5ayeBF.s:3976   .debug_str:000000000000057c .LASF67
     /tmp/cc5ayeBF.s:3800   .debug_str:000000000000005f .LASF68
     /tmp/cc5ayeBF.s:4010   .debug_str:000000000000074c .LASF69
     /tmp/cc5ayeBF.s:3936   .debug_str:0000000000000467 .LASF70
     /tmp/cc5ayeBF.s:3816   .debug_str:00000000000000d5 .LASF71
     /tmp/cc5ayeBF.s:4030   .debug_str:00000000000007ad .LASF72
     /tmp/cc5ayeBF.s:3918   .debug_str:00000000000003e8 .LASF73
     /tmp/cc5ayeBF.s:4036   .debug_str:00000000000007dc .LASF74
GAS LISTING /tmp/cc5ayeBF.s 			page 25


     /tmp/cc5ayeBF.s:4018   .debug_str:000000000000076f .LASF134
     /tmp/cc5ayeBF.s:3998   .debug_str:0000000000000707 .LASF75
     /tmp/cc5ayeBF.s:3880   .debug_str:00000000000002cb .LASF76
     /tmp/cc5ayeBF.s:3946   .debug_str:00000000000004ac .LASF135
     /tmp/cc5ayeBF.s:4040   .debug_str:000000000000081d .LASF77
     /tmp/cc5ayeBF.s:3928   .debug_str:000000000000042e .LASF78
     /tmp/cc5ayeBF.s:4068   .debug_str:0000000000000938 .LASF79
     /tmp/cc5ayeBF.s:3954   .debug_str:00000000000004e0 .LASF81
     /tmp/cc5ayeBF.s:3914   .debug_str:00000000000003d4 .LASF83
     /tmp/cc5ayeBF.s:4024   .debug_str:000000000000078b .LASF85
     /tmp/cc5ayeBF.s:4012   .debug_str:0000000000000757 .LASF86
     /tmp/cc5ayeBF.s:3832   .debug_str:000000000000014b .LASF87
     /tmp/cc5ayeBF.s:3984   .debug_str:00000000000005c4 .LASF136
     /tmp/cc5ayeBF.s:3790   .debug_str:0000000000000000 .LASF88
     /tmp/cc5ayeBF.s:3896   .debug_str:0000000000000341 .LASF89
     /tmp/cc5ayeBF.s:3926   .debug_str:0000000000000428 .LASF90
     /tmp/cc5ayeBF.s:4028   .debug_str:00000000000007a5 .LASF91
     /tmp/cc5ayeBF.s:4026   .debug_str:000000000000079b .LASF92
     /tmp/cc5ayeBF.s:4006   .debug_str:000000000000073a .LASF93
     /tmp/cc5ayeBF.s:3944   .debug_str:00000000000004a4 .LASF94
     /tmp/cc5ayeBF.s:3842   .debug_str:00000000000001a9 .LASF95
     /tmp/cc5ayeBF.s:3818   .debug_str:00000000000000e1 .LASF96
     /tmp/cc5ayeBF.s:3920   .debug_str:00000000000003f5 .LASF98
     /tmp/cc5ayeBF.s:3844   .debug_str:00000000000001ba .LASF97
     /tmp/cc5ayeBF.s:3830   .debug_str:0000000000000138 .LASF99
     /tmp/cc5ayeBF.s:4056   .debug_str:00000000000008b3 .LASF137
     /tmp/cc5ayeBF.s:3798   .debug_str:0000000000000037 .LASF138
     /tmp/cc5ayeBF.s:3964   .debug_str:000000000000053d .LASF100
     /tmp/cc5ayeBF.s:3808   .debug_str:00000000000000a6 .LASF101
     /tmp/cc5ayeBF.s:3836   .debug_str:0000000000000171 .LASF102
     /tmp/cc5ayeBF.s:4032   .debug_str:00000000000007c4 .LASF103
     /tmp/cc5ayeBF.s:3806   .debug_str:0000000000000093 .LASF104
     /tmp/cc5ayeBF.s:3916   .debug_str:00000000000003da .LASF105
     /tmp/cc5ayeBF.s:4052   .debug_str:0000000000000876 .LASF106
     /tmp/cc5ayeBF.s:4020   .debug_str:0000000000000777 .LASF107
     /tmp/cc5ayeBF.s:3872   .debug_str:000000000000027a .LASF108
     /tmp/cc5ayeBF.s:4022   .debug_str:0000000000000786 .LASF109
     /tmp/cc5ayeBF.s:4050   .debug_str:0000000000000861 .LASF110
     /tmp/cc5ayeBF.s:4002   .debug_str:0000000000000720 .LASF111
     /tmp/cc5ayeBF.s:3874   .debug_str:000000000000029a .LASF112
     /tmp/cc5ayeBF.s:4042   .debug_str:000000000000082a .LASF113
     /tmp/cc5ayeBF.s:3992   .debug_str:0000000000000619 .LASF114
     /tmp/cc5ayeBF.s:3886   .debug_str:000000000000030c .LASF115
     /tmp/cc5ayeBF.s:3898   .debug_str:000000000000034a .LASF116
     /tmp/cc5ayeBF.s:3996   .debug_str:00000000000006f5 .LASF117
     /tmp/cc5ayeBF.s:3882   .debug_str:00000000000002ee .LASF118
     /tmp/cc5ayeBF.s:4048   .debug_str:000000000000085a .LASF119
     /tmp/cc5ayeBF.s:3888   .debug_str:0000000000000317 .LASF120
     /tmp/cc5ayeBF.s:3848   .debug_str:00000000000001cf .LASF121
     /tmp/cc5ayeBF.s:3794   .debug_str:0000000000000015 .LASF122
     /tmp/cc5ayeBF.s:3840   .debug_str:0000000000000191 .LASF123
     /tmp/cc5ayeBF.s:3864   .debug_str:000000000000024f .LASF125
     /tmp/cc5ayeBF.s:3892   .debug_str:000000000000032a .LASF124
     /tmp/cc5ayeBF.s:3812   .debug_str:00000000000000bd .LASF139
     /tmp/cc5ayeBF.s:547    .text:00000000000002ac .LFE52
     /tmp/cc5ayeBF.s:3343   .debug_loc:0000000000000000 .LLST15
     /tmp/cc5ayeBF.s:3854   .debug_str:0000000000000217 .LASF126
GAS LISTING /tmp/cc5ayeBF.s 			page 26


     /tmp/cc5ayeBF.s:3365   .debug_loc:000000000000005f .LLST16
     /tmp/cc5ayeBF.s:459    .text:0000000000000238 .LBB30
     /tmp/cc5ayeBF.s:3772   .debug_ranges:0000000000000000 .Ldebug_ranges0
     /tmp/cc5ayeBF.s:3372   .debug_loc:0000000000000082 .LLST17
     /tmp/cc5ayeBF.s:3402   .debug_loc:00000000000000e9 .LLST18
     /tmp/cc5ayeBF.s:3413   .debug_loc:000000000000011f .LLST19
     /tmp/cc5ayeBF.s:492    .text:0000000000000264 .LBB32
     /tmp/cc5ayeBF.s:498    .text:000000000000026c .LBE32
     /tmp/cc5ayeBF.s:3420   .debug_loc:0000000000000142 .LLST20
     /tmp/cc5ayeBF.s:496    .text:000000000000026c .LVL42
     /tmp/cc5ayeBF.s:509    .text:0000000000000280 .LVL43
     /tmp/cc5ayeBF.s:514    .text:000000000000028c .LVL44
     /tmp/cc5ayeBF.s:294    .text:0000000000000140 .LFB51
     /tmp/cc5ayeBF.s:382    .text:00000000000001dc .LFE51
     /tmp/cc5ayeBF.s:3427   .debug_loc:0000000000000165 .LLST10
     /tmp/cc5ayeBF.s:316    .text:0000000000000168 .LBB26
     /tmp/cc5ayeBF.s:3449   .debug_loc:00000000000001c4 .LLST11
     /tmp/cc5ayeBF.s:3460   .debug_loc:00000000000001fa .LLST12
     /tmp/cc5ayeBF.s:3481   .debug_loc:0000000000000249 .LLST13
     /tmp/cc5ayeBF.s:322    .text:0000000000000174 .LVL24
     /tmp/cc5ayeBF.s:346    .text:00000000000001a4 .LVL27
     /tmp/cc5ayeBF.s:354    .text:00000000000001b8 .LVL28
     /tmp/cc5ayeBF.s:267    .text:0000000000000124 .LFB50
     /tmp/cc5ayeBF.s:288    .text:0000000000000140 .LFE50
     /tmp/cc5ayeBF.s:3492   .debug_loc:000000000000027f .LLST9
     /tmp/cc5ayeBF.s:215    .text:00000000000000e8 .LFB49
     /tmp/cc5ayeBF.s:261    .text:0000000000000124 .LFE49
     /tmp/cc5ayeBF.s:3506   .debug_loc:00000000000002b8 .LLST8
     /tmp/cc5ayeBF.s:660    .text:000000000000031c .LFB48
     /tmp/cc5ayeBF.s:716    .text:0000000000000374 .LFE48
     /tmp/cc5ayeBF.s:3542   .debug_loc:0000000000000343 .LLST23
     /tmp/cc5ayeBF.s:697    .text:0000000000000358 .LVL60
     /tmp/cc5ayeBF.s:388    .text:00000000000001dc .LFB47
     /tmp/cc5ayeBF.s:444    .text:0000000000000234 .LFE47
     /tmp/cc5ayeBF.s:3578   .debug_loc:00000000000003ce .LLST14
     /tmp/cc5ayeBF.s:425    .text:0000000000000218 .LVL34
     /tmp/cc5ayeBF.s:564    .text:00000000000002ac .LFB46
     /tmp/cc5ayeBF.s:654    .text:000000000000031c .LFE46
     /tmp/cc5ayeBF.s:3614   .debug_loc:0000000000000459 .LLST21
     /tmp/cc5ayeBF.s:593    .text:00000000000002d4 .LBB38
     /tmp/cc5ayeBF.s:603    .text:00000000000002e0 .LBE38
     /tmp/cc5ayeBF.s:3651   .debug_loc:00000000000004f4 .LLST22
     /tmp/cc5ayeBF.s:610    .text:00000000000002f0 .LVL50
     /tmp/cc5ayeBF.s:158    .text:00000000000000a0 .LFB45
     /tmp/cc5ayeBF.s:209    .text:00000000000000e8 .LFE45
     /tmp/cc5ayeBF.s:3666   .debug_loc:000000000000052e .LLST4
     /tmp/cc5ayeBF.s:179    .text:00000000000000c4 .LBB22
     /tmp/cc5ayeBF.s:196    .text:00000000000000d4 .LBE22
     /tmp/cc5ayeBF.s:3680   .debug_loc:0000000000000567 .LLST5
     /tmp/cc5ayeBF.s:3687   .debug_loc:000000000000058a .LLST6
     /tmp/cc5ayeBF.s:186    .text:00000000000000cc .LBB24
     /tmp/cc5ayeBF.s:194    .text:00000000000000d4 .LBE24
     /tmp/cc5ayeBF.s:3694   .debug_loc:00000000000005ad .LLST7
     /tmp/cc5ayeBF.s:178    .text:00000000000000c4 .LVL10
     /tmp/cc5ayeBF.s:117    .text:0000000000000078 .LFB44
     /tmp/cc5ayeBF.s:145    .text:00000000000000a0 .LFE44
     /tmp/cc5ayeBF.s:3703   .debug_loc:00000000000005d2 .LLST3
GAS LISTING /tmp/cc5ayeBF.s 			page 27


     /tmp/cc5ayeBF.s:134    .text:0000000000000090 .LVL7
     /tmp/cc5ayeBF.s:75     .text:0000000000000050 .LFB43
     /tmp/cc5ayeBF.s:103    .text:0000000000000078 .LFE43
     /tmp/cc5ayeBF.s:3717   .debug_loc:000000000000060b .LLST2
     /tmp/cc5ayeBF.s:92     .text:0000000000000068 .LVL5
     /tmp/cc5ayeBF.s:43     .text:0000000000000028 .LFB42
     /tmp/cc5ayeBF.s:69     .text:0000000000000050 .LFE42
     /tmp/cc5ayeBF.s:3731   .debug_loc:0000000000000644 .LLST1
     /tmp/cc5ayeBF.s:58     .text:0000000000000040 .LVL3
     /tmp/cc5ayeBF.s:10     .text:0000000000000000 .LFB41
     /tmp/cc5ayeBF.s:37     .text:0000000000000028 .LFE41
     /tmp/cc5ayeBF.s:3745   .debug_loc:000000000000067d .LLST0
     /tmp/cc5ayeBF.s:26     .text:0000000000000018 .LVL1
     /tmp/cc5ayeBF.s:3904   .debug_str:0000000000000396 .LASF140
     /tmp/cc5ayeBF.s:455    .text:0000000000000234 .LVL37
     /tmp/cc5ayeBF.s:463    .text:000000000000023c .LVL39
     /tmp/cc5ayeBF.s:529    .text:00000000000002a0 .LVL45
     /tmp/cc5ayeBF.s:458    .text:0000000000000238 .LVL38
     /tmp/cc5ayeBF.s:479    .text:0000000000000254 .LVL40
     /tmp/cc5ayeBF.s:537    .text:00000000000002a8 .LVL46
     /tmp/cc5ayeBF.s:491    .text:0000000000000264 .LVL41
     /tmp/cc5ayeBF.s:297    .text:0000000000000140 .LVL21
     /tmp/cc5ayeBF.s:320    .text:000000000000016c .LVL23
     /tmp/cc5ayeBF.s:364    .text:00000000000001c4 .LVL29
     /tmp/cc5ayeBF.s:370    .text:00000000000001d0 .LVL30
     /tmp/cc5ayeBF.s:315    .text:0000000000000168 .LVL22
     /tmp/cc5ayeBF.s:336    .text:000000000000018c .LVL25
     /tmp/cc5ayeBF.s:344    .text:000000000000019c .LVL26
     /tmp/cc5ayeBF.s:270    .text:0000000000000124 .LVL19
     /tmp/cc5ayeBF.s:280    .text:0000000000000134 .LVL20
     /tmp/cc5ayeBF.s:218    .text:00000000000000e8 .LVL13
     /tmp/cc5ayeBF.s:237    .text:0000000000000108 .LVL14
     /tmp/cc5ayeBF.s:247    .text:0000000000000114 .LVL15
     /tmp/cc5ayeBF.s:252    .text:0000000000000118 .LVL16
     /tmp/cc5ayeBF.s:254    .text:000000000000011c .LVL17
     /tmp/cc5ayeBF.s:258    .text:0000000000000120 .LVL18
     /tmp/cc5ayeBF.s:663    .text:000000000000031c .LVL57
     /tmp/cc5ayeBF.s:680    .text:000000000000033c .LVL58
     /tmp/cc5ayeBF.s:683    .text:0000000000000340 .LVL59
     /tmp/cc5ayeBF.s:709    .text:000000000000036c .LVL61
     /tmp/cc5ayeBF.s:713    .text:0000000000000370 .LVL62
     /tmp/cc5ayeBF.s:391    .text:00000000000001dc .LVL31
     /tmp/cc5ayeBF.s:408    .text:00000000000001fc .LVL32
     /tmp/cc5ayeBF.s:411    .text:0000000000000200 .LVL33
     /tmp/cc5ayeBF.s:437    .text:000000000000022c .LVL35
     /tmp/cc5ayeBF.s:441    .text:0000000000000230 .LVL36
     /tmp/cc5ayeBF.s:567    .text:00000000000002ac .LVL47
     /tmp/cc5ayeBF.s:589    .text:00000000000002d4 .LVL48
     /tmp/cc5ayeBF.s:613    .text:00000000000002f4 .LVL51
     /tmp/cc5ayeBF.s:621    .text:00000000000002f8 .LVL52
     /tmp/cc5ayeBF.s:624    .text:00000000000002fc .LVL53
     /tmp/cc5ayeBF.s:643    .text:000000000000030c .LVL55
     /tmp/cc5ayeBF.s:647    .text:0000000000000314 .LVL56
     /tmp/cc5ayeBF.s:601    .text:00000000000002e0 .LVL49
     /tmp/cc5ayeBF.s:632    .text:0000000000000300 .LVL54
     /tmp/cc5ayeBF.s:161    .text:00000000000000a0 .LVL8
     /tmp/cc5ayeBF.s:176    .text:00000000000000bc .LVL9
GAS LISTING /tmp/cc5ayeBF.s 			page 28


     /tmp/cc5ayeBF.s:192    .text:00000000000000d4 .LVL12
     /tmp/cc5ayeBF.s:185    .text:00000000000000cc .LVL11
     /tmp/cc5ayeBF.s:122    .text:0000000000000078 .LVL6
     /tmp/cc5ayeBF.s:80     .text:0000000000000050 .LVL4
     /tmp/cc5ayeBF.s:46     .text:0000000000000028 .LVL2
     /tmp/cc5ayeBF.s:14     .text:0000000000000000 .LVL0
     /tmp/cc5ayeBF.s:724    .debug_info:0000000000000000 .Ldebug_info0
     /tmp/cc5ayeBF.s:338    .text:000000000000018c .LBE26
     /tmp/cc5ayeBF.s:373    .text:00000000000001d0 .LBB29
     /tmp/cc5ayeBF.s:380    .text:00000000000001dc .LBE29
     /tmp/cc5ayeBF.s:467    .text:0000000000000240 .LBE30
     /tmp/cc5ayeBF.s:480    .text:0000000000000254 .LBB36
     /tmp/cc5ayeBF.s:500    .text:000000000000026c .LBE36
     /tmp/cc5ayeBF.s:532    .text:00000000000002a0 .LBB37
     /tmp/cc5ayeBF.s:545    .text:00000000000002ac .LBE37
     /tmp/cc5ayeBF.s:106    .gcc_except_table:0000000000000000 .LLSDA43
     /tmp/cc5ayeBF.s:147    .gcc_except_table:0000000000000004 .LLSDA44
     /tmp/cc5ayeBF.s:549    .gcc_except_table:0000000000000008 .LLSDA52

UNDEFINED SYMBOLS
_ZN15MemoryAllocator9mem_allocEm
_ZN15MemoryAllocator8mem_freeEPKv
__gxx_personality_v0
_ZN3TCB7runningE
_ZN3TCB10setBlockedEb
_ZN3TCB16timeSliceCounterE
_ZN3TCB8dispatchEv
_ZN9Scheduler3putEP3TCB
