GAS LISTING /tmp/ccunUCvf.s 			page 1


   1              		.file	"syscall_c.cpp"
   2              		.option pic
   3              		.option norelax
   4              		.text
   5              	.Ltext0:
   6              		.align	2
   7              		.globl	_Z9mem_allocm
   9              	_Z9mem_allocm:
  10              	.LFB0:
  11              		.file 1 "src/syscall_c.cpp"
   1:src/syscall_c.cpp **** //
   2:src/syscall_c.cpp **** // Created by os on 5/18/24.
   3:src/syscall_c.cpp **** //
   4:src/syscall_c.cpp **** 
   5:src/syscall_c.cpp **** #include "../h/syscall_c.hpp"
   6:src/syscall_c.cpp **** 
   7:src/syscall_c.cpp **** void* mem_alloc (size_t size){
  12              		.loc 1 7 30
  13              		.cfi_startproc
  14              	.LVL0:
  15 0000 130101FF 		addi	sp,sp,-16
  16              		.cfi_def_cfa_offset 16
  17 0004 23348100 		sd	s0,8(sp)
  18              		.cfi_offset 8, -8
  19 0008 13040101 		addi	s0,sp,16
  20              		.cfi_def_cfa 8, 0
   8:src/syscall_c.cpp ****     size_t real;
  21              		.loc 1 8 5
   9:src/syscall_c.cpp ****     if(size % MEM_BLOCK_SIZE == 0)  real = size;
  22              		.loc 1 9 5
  23              	.LBB2:
  24              		.loc 1 9 13 is_stmt 0
  25 000c 9377F503 		andi	a5,a0,63
  26              		.loc 1 9 5
  27 0010 63860700 		beqz	a5,.L2
  28              	.LBB3:
  10:src/syscall_c.cpp ****     else {
  11:src/syscall_c.cpp ****         size_t rem = size % MEM_BLOCK_SIZE;
  29              		.loc 1 11 9 is_stmt 1
  30              	.LVL1:
  12:src/syscall_c.cpp ****         real = size - rem + MEM_BLOCK_SIZE;
  31              		.loc 1 12 9
  32              		.loc 1 12 14 is_stmt 0
  33 0014 137505FC 		andi	a0,a0,-64
  34              	.LVL2:
  35 0018 13050504 		addi	a0,a0,64
  36              	.LVL3:
  37              	.L2:
  38              	.LBE3:
  39              	.LBE2:
  13:src/syscall_c.cpp ****     }
  14:src/syscall_c.cpp **** 
  15:src/syscall_c.cpp ****     __asm__ volatile("mv a1, %0" :: "r"(real));
  40              		.loc 1 15 5 is_stmt 1
  41              		.loc 1 15 47 is_stmt 0
  42              	#APP
  43              	# 15 "src/syscall_c.cpp" 1
GAS LISTING /tmp/ccunUCvf.s 			page 2


  16              	    __asm__ volatile("li a0, 0x01");
  44              		mv a1, a0
  45              	# 0 "" 2
  46              		.loc 1 16 5 is_stmt 1
  47              		.loc 1 16 36 is_stmt 0
  48              	# 16 "src/syscall_c.cpp" 1
  17              	    __asm__ volatile("ecall");
  49              		li a0, 0x01
  50              	# 0 "" 2
  51              		.loc 1 17 5 is_stmt 1
  52              		.loc 1 17 30 is_stmt 0
  53              	# 17 "src/syscall_c.cpp" 1
  18              	    void* r;
  54              		ecall
  55              	# 0 "" 2
  56              		.loc 1 18 5 is_stmt 1
  19:src/syscall_c.cpp ****     __asm__ volatile("mv %0,a0":"=r"(r));
  57              		.loc 1 19 5
  58              		.loc 1 19 41 is_stmt 0
  59              	# 19 "src/syscall_c.cpp" 1
  20              	    return  r;
  60              		mv a0,a0
  61              	# 0 "" 2
  62              	.LVL4:
  63              		.loc 1 20 5 is_stmt 1
  21:src/syscall_c.cpp **** }
  64              		.loc 1 21 1 is_stmt 0
  65              	#NO_APP
  66 002c 03348100 		ld	s0,8(sp)
  67              		.cfi_restore 8
  68              		.cfi_def_cfa 2, 16
  69 0030 13010101 		addi	sp,sp,16
  70              		.cfi_def_cfa_offset 0
  71 0034 67800000 		jr	ra
  72              		.cfi_endproc
  73              	.LFE0:
  75              		.align	2
  76              		.globl	_Z8mem_freePv
  78              	_Z8mem_freePv:
  79              	.LFB1:
  22:src/syscall_c.cpp **** int mem_free (void* p){
  80              		.loc 1 22 23 is_stmt 1
  81              		.cfi_startproc
  82              	.LVL5:
  83 0038 130101FF 		addi	sp,sp,-16
  84              		.cfi_def_cfa_offset 16
  85 003c 23348100 		sd	s0,8(sp)
  86              		.cfi_offset 8, -8
  87 0040 13040101 		addi	s0,sp,16
  88              		.cfi_def_cfa 8, 0
  23:src/syscall_c.cpp ****     __asm__ volatile("mv a1, %0":: "r"(p));
  89              		.loc 1 23 5
  90              		.loc 1 23 43 is_stmt 0
  91              	#APP
  92              	# 23 "src/syscall_c.cpp" 1
  24              	    __asm__ volatile("li a0, 0x02");
  93              		mv a1, a0
GAS LISTING /tmp/ccunUCvf.s 			page 3


  94              	# 0 "" 2
  95              		.loc 1 24 5 is_stmt 1
  96              		.loc 1 24 36 is_stmt 0
  97              	# 24 "src/syscall_c.cpp" 1
  25              	    __asm__ volatile("ecall");
  98              		li a0, 0x02
  99              	# 0 "" 2
 100              		.loc 1 25 5 is_stmt 1
 101              		.loc 1 25 30 is_stmt 0
 102              	# 25 "src/syscall_c.cpp" 1
  26              	
  27:src/syscall_c.cpp ****     int r;
 103              		ecall
 104              	# 0 "" 2
 105              		.loc 1 27 5 is_stmt 1
  28:src/syscall_c.cpp ****     __asm__ volatile("mv %0, a0": "=r"(r));
 106              		.loc 1 28 5
 107              		.loc 1 28 43 is_stmt 0
 108              	# 28 "src/syscall_c.cpp" 1
  29              	    return r;
 109              		mv a0, a0
 110              	# 0 "" 2
 111              	.LVL6:
 112              		.loc 1 29 5 is_stmt 1
  30:src/syscall_c.cpp **** }
 113              		.loc 1 30 1 is_stmt 0
 114              	#NO_APP
 115 0054 1B050500 		sext.w	a0,a0
 116 0058 03348100 		ld	s0,8(sp)
 117              		.cfi_restore 8
 118              		.cfi_def_cfa 2, 16
 119 005c 13010101 		addi	sp,sp,16
 120              		.cfi_def_cfa_offset 0
 121 0060 67800000 		jr	ra
 122              		.cfi_endproc
 123              	.LFE1:
 125              		.align	2
 126              		.globl	_Z15thread_dispatchv
 128              	_Z15thread_dispatchv:
 129              	.LFB2:
  31:src/syscall_c.cpp **** 
  32:src/syscall_c.cpp **** void thread_dispatch() {
 130              		.loc 1 32 24 is_stmt 1
 131              		.cfi_startproc
 132 0064 130101FF 		addi	sp,sp,-16
 133              		.cfi_def_cfa_offset 16
 134 0068 23348100 		sd	s0,8(sp)
 135              		.cfi_offset 8, -8
 136 006c 13040101 		addi	s0,sp,16
 137              		.cfi_def_cfa 8, 0
  33:src/syscall_c.cpp ****     __asm__ volatile("li a0, 0x13");
 138              		.loc 1 33 5
 139              		.loc 1 33 36 is_stmt 0
 140              	#APP
 141              	# 33 "src/syscall_c.cpp" 1
  34              	    __asm__ volatile("ecall");
 142              		li a0, 0x13
GAS LISTING /tmp/ccunUCvf.s 			page 4


 143              	# 0 "" 2
 144              		.loc 1 34 5 is_stmt 1
 145              		.loc 1 34 30 is_stmt 0
 146              	# 34 "src/syscall_c.cpp" 1
  35              	}
 147              		ecall
 148              	# 0 "" 2
 149              		.loc 1 35 1
 150              	#NO_APP
 151 0078 03348100 		ld	s0,8(sp)
 152              		.cfi_restore 8
 153              		.cfi_def_cfa 2, 16
 154 007c 13010101 		addi	sp,sp,16
 155              		.cfi_def_cfa_offset 0
 156 0080 67800000 		jr	ra
 157              		.cfi_endproc
 158              	.LFE2:
 160              		.align	2
 161              		.globl	_Z11thread_exitv
 163              	_Z11thread_exitv:
 164              	.LFB3:
  36:src/syscall_c.cpp **** 
  37:src/syscall_c.cpp **** int thread_exit() {
 165              		.loc 1 37 19 is_stmt 1
 166              		.cfi_startproc
 167 0084 130101FF 		addi	sp,sp,-16
 168              		.cfi_def_cfa_offset 16
 169 0088 23348100 		sd	s0,8(sp)
 170              		.cfi_offset 8, -8
 171 008c 13040101 		addi	s0,sp,16
 172              		.cfi_def_cfa 8, 0
  38:src/syscall_c.cpp ****     __asm__ volatile("li a0, 0x12");
 173              		.loc 1 38 5
 174              		.loc 1 38 36 is_stmt 0
 175              	#APP
 176              	# 38 "src/syscall_c.cpp" 1
  39              	    __asm__ volatile("ecall");
 177              		li a0, 0x12
 178              	# 0 "" 2
 179              		.loc 1 39 5 is_stmt 1
 180              		.loc 1 39 30 is_stmt 0
 181              	# 39 "src/syscall_c.cpp" 1
  40              	    int r;
 182              		ecall
 183              	# 0 "" 2
 184              		.loc 1 40 5 is_stmt 1
  41:src/syscall_c.cpp ****     __asm__ volatile("mv %0, a0": "=r"(r));
 185              		.loc 1 41 5
 186              		.loc 1 41 43 is_stmt 0
 187              	# 41 "src/syscall_c.cpp" 1
  42              	    return r;
 188              		mv a0, a0
 189              	# 0 "" 2
 190              	.LVL7:
 191              		.loc 1 42 5 is_stmt 1
  43:src/syscall_c.cpp **** }
 192              		.loc 1 43 1 is_stmt 0
GAS LISTING /tmp/ccunUCvf.s 			page 5


 193              	#NO_APP
 194 009c 1B050500 		sext.w	a0,a0
 195 00a0 03348100 		ld	s0,8(sp)
 196              		.cfi_restore 8
 197              		.cfi_def_cfa 2, 16
 198 00a4 13010101 		addi	sp,sp,16
 199              		.cfi_def_cfa_offset 0
 200 00a8 67800000 		jr	ra
 201              		.cfi_endproc
 202              	.LFE3:
 204              		.align	2
 205              		.globl	_Z13thread_createPP3TCBPFvPvES2_
 207              	_Z13thread_createPP3TCBPFvPvES2_:
 208              	.LFB4:
  44:src/syscall_c.cpp **** 
  45:src/syscall_c.cpp **** int thread_create(thread_t *handle, void (*start_routine)(void *), void *arg) {
 209              		.loc 1 45 79 is_stmt 1
 210              		.cfi_startproc
 211              	.LVL8:
 212 00ac 130101FD 		addi	sp,sp,-48
 213              		.cfi_def_cfa_offset 48
 214 00b0 23341102 		sd	ra,40(sp)
 215 00b4 23308102 		sd	s0,32(sp)
 216 00b8 233C9100 		sd	s1,24(sp)
 217 00bc 23382101 		sd	s2,16(sp)
 218 00c0 23343101 		sd	s3,8(sp)
 219              		.cfi_offset 1, -8
 220              		.cfi_offset 8, -16
 221              		.cfi_offset 9, -24
 222              		.cfi_offset 18, -32
 223              		.cfi_offset 19, -40
 224 00c4 13040103 		addi	s0,sp,48
 225              		.cfi_def_cfa 8, 0
 226 00c8 13090500 		mv	s2,a0
 227 00cc 93840500 		mv	s1,a1
 228 00d0 93090600 		mv	s3,a2
  46:src/syscall_c.cpp **** 
  47:src/syscall_c.cpp ****     void* stek;
 229              		.loc 1 47 5
  48:src/syscall_c.cpp ****     stek = start_routine != nullptr ? mem_alloc(DEFAULT_STACK_SIZE) : nullptr;
 230              		.loc 1 48 5
 231              		.loc 1 48 37 is_stmt 0
 232 00d4 63860504 		beqz	a1,.L12
 233              		.loc 1 48 48 discriminator 1
 234 00d8 37150000 		li	a0,4096
 235              	.LVL9:
 236 00dc 97000000 		call	_Z9mem_allocm
 236      E7800000 
 237              	.LVL10:
 238              	.L11:
  49:src/syscall_c.cpp ****     __asm__ volatile("mv a4, %0" :: "r"(stek));
 239              		.loc 1 49 5 is_stmt 1 discriminator 4
 240              		.loc 1 49 47 is_stmt 0 discriminator 4
 241              	#APP
 242              	# 49 "src/syscall_c.cpp" 1
  50              	    __asm__ volatile("mv a3, %0" :: "r"(arg));
 243              		mv a4, a0
GAS LISTING /tmp/ccunUCvf.s 			page 6


 244              	# 0 "" 2
 245              		.loc 1 50 5 is_stmt 1 discriminator 4
 246              		.loc 1 50 46 is_stmt 0 discriminator 4
 247              	# 50 "src/syscall_c.cpp" 1
  51              	    __asm__ volatile("mv a2, %0" :: "r"(start_routine));
 248              		mv a3, s3
 249              	# 0 "" 2
 250              		.loc 1 51 5 is_stmt 1 discriminator 4
 251              		.loc 1 51 56 is_stmt 0 discriminator 4
 252              	# 51 "src/syscall_c.cpp" 1
  52              	    __asm__ volatile("mv a1, %0" :: "r"(handle));
 253              		mv a2, s1
 254              	# 0 "" 2
 255              		.loc 1 52 5 is_stmt 1 discriminator 4
 256              		.loc 1 52 49 is_stmt 0 discriminator 4
 257              	# 52 "src/syscall_c.cpp" 1
  53              	    __asm__ volatile("li a0, 0x11");
 258              		mv a1, s2
 259              	# 0 "" 2
 260              		.loc 1 53 5 is_stmt 1 discriminator 4
 261              		.loc 1 53 36 is_stmt 0 discriminator 4
 262              	# 53 "src/syscall_c.cpp" 1
  54              	    __asm__ volatile("ecall");
 263              		li a0, 0x11
 264              	# 0 "" 2
 265              		.loc 1 54 5 is_stmt 1 discriminator 4
 266              		.loc 1 54 30 is_stmt 0 discriminator 4
 267              	# 54 "src/syscall_c.cpp" 1
  55              	    int r;
 268              		ecall
 269              	# 0 "" 2
 270              		.loc 1 55 5 is_stmt 1 discriminator 4
  56:src/syscall_c.cpp ****     __asm__ volatile("mv %0, a0": "=r"(r));
 271              		.loc 1 56 5 discriminator 4
 272              		.loc 1 56 43 is_stmt 0 discriminator 4
 273              	# 56 "src/syscall_c.cpp" 1
  57              	    return r;
 274              		mv a0, a0
 275              	# 0 "" 2
 276              	.LVL11:
 277              		.loc 1 57 5 is_stmt 1 discriminator 4
  58:src/syscall_c.cpp **** }
 278              		.loc 1 58 1 is_stmt 0 discriminator 4
 279              	#NO_APP
 280 0100 1B050500 		sext.w	a0,a0
 281 0104 83308102 		ld	ra,40(sp)
 282              		.cfi_remember_state
 283              		.cfi_restore 1
 284 0108 03340102 		ld	s0,32(sp)
 285              		.cfi_restore 8
 286              		.cfi_def_cfa 2, 48
 287 010c 83348101 		ld	s1,24(sp)
 288              		.cfi_restore 9
 289              	.LVL12:
 290 0110 03390101 		ld	s2,16(sp)
 291              		.cfi_restore 18
 292              	.LVL13:
GAS LISTING /tmp/ccunUCvf.s 			page 7


 293 0114 83398100 		ld	s3,8(sp)
 294              		.cfi_restore 19
 295              	.LVL14:
 296 0118 13010103 		addi	sp,sp,48
 297              		.cfi_def_cfa_offset 0
 298 011c 67800000 		jr	ra
 299              	.LVL15:
 300              	.L12:
 301              		.cfi_restore_state
  48:src/syscall_c.cpp ****     __asm__ volatile("mv a4, %0" :: "r"(stek));
 302              		.loc 1 48 37
 303 0120 13050000 		li	a0,0
 304              	.LVL16:
 305 0124 6FF01FFC 		j	.L11
 306              		.cfi_endproc
 307              	.LFE4:
 309              		.align	2
 310              		.globl	_Z8sem_openPP3semj
 312              	_Z8sem_openPP3semj:
 313              	.LFB5:
  59:src/syscall_c.cpp **** 
  60:src/syscall_c.cpp **** int sem_open(sem_t *handle, unsigned int init) {
 314              		.loc 1 60 48 is_stmt 1
 315              		.cfi_startproc
 316              	.LVL17:
 317 0128 130101FF 		addi	sp,sp,-16
 318              		.cfi_def_cfa_offset 16
 319 012c 23348100 		sd	s0,8(sp)
 320              		.cfi_offset 8, -8
 321 0130 13040101 		addi	s0,sp,16
 322              		.cfi_def_cfa 8, 0
  61:src/syscall_c.cpp ****     __asm__ volatile("mv a2, %0" :: "r"(init));
 323              		.loc 1 61 5
 324              		.loc 1 61 47 is_stmt 0
 325              	#APP
 326              	# 61 "src/syscall_c.cpp" 1
  62              	    __asm__ volatile("mv a1, %0" :: "r"(handle));
 327              		mv a2, a1
 328              	# 0 "" 2
 329              		.loc 1 62 5 is_stmt 1
 330              		.loc 1 62 49 is_stmt 0
 331              	# 62 "src/syscall_c.cpp" 1
  63              	    __asm__ volatile("li a0, 0x21");
 332              		mv a1, a0
 333              	# 0 "" 2
 334              		.loc 1 63 5 is_stmt 1
 335              		.loc 1 63 36 is_stmt 0
 336              	# 63 "src/syscall_c.cpp" 1
  64              	    __asm__ volatile("ecall");
 337              		li a0, 0x21
 338              	# 0 "" 2
 339              		.loc 1 64 5 is_stmt 1
 340              		.loc 1 64 30 is_stmt 0
 341              	# 64 "src/syscall_c.cpp" 1
  65              	
  66:src/syscall_c.cpp ****     int r;
 342              		ecall
GAS LISTING /tmp/ccunUCvf.s 			page 8


 343              	# 0 "" 2
 344              		.loc 1 66 5 is_stmt 1
  67:src/syscall_c.cpp ****     __asm__ volatile("mv %0, a0": "=r"(r));
 345              		.loc 1 67 5
 346              		.loc 1 67 43 is_stmt 0
 347              	# 67 "src/syscall_c.cpp" 1
  68              	    return (int)r;
 348              		mv a0, a0
 349              	# 0 "" 2
 350              	.LVL18:
 351              		.loc 1 68 5 is_stmt 1
  69:src/syscall_c.cpp **** }
 352              		.loc 1 69 1 is_stmt 0
 353              	#NO_APP
 354 0148 1B050500 		sext.w	a0,a0
 355 014c 03348100 		ld	s0,8(sp)
 356              		.cfi_restore 8
 357              		.cfi_def_cfa 2, 16
 358 0150 13010101 		addi	sp,sp,16
 359              		.cfi_def_cfa_offset 0
 360 0154 67800000 		jr	ra
 361              		.cfi_endproc
 362              	.LFE5:
 364              		.align	2
 365              		.globl	_Z9sem_closeP3sem
 367              	_Z9sem_closeP3sem:
 368              	.LFB6:
  70:src/syscall_c.cpp **** 
  71:src/syscall_c.cpp **** int sem_close(sem_t handle) {
 369              		.loc 1 71 29 is_stmt 1
 370              		.cfi_startproc
 371              	.LVL19:
 372 0158 130101FF 		addi	sp,sp,-16
 373              		.cfi_def_cfa_offset 16
 374 015c 23348100 		sd	s0,8(sp)
 375              		.cfi_offset 8, -8
 376 0160 13040101 		addi	s0,sp,16
 377              		.cfi_def_cfa 8, 0
  72:src/syscall_c.cpp **** 
  73:src/syscall_c.cpp ****     __asm__ volatile("mv a1, %0" :: "r"(handle));
 378              		.loc 1 73 5
 379              		.loc 1 73 49 is_stmt 0
 380              	#APP
 381              	# 73 "src/syscall_c.cpp" 1
  74              	    __asm__ volatile("li a0, 0x22");
 382              		mv a1, a0
 383              	# 0 "" 2
 384              		.loc 1 74 5 is_stmt 1
 385              		.loc 1 74 36 is_stmt 0
 386              	# 74 "src/syscall_c.cpp" 1
  75              	    __asm__ volatile("ecall");
 387              		li a0, 0x22
 388              	# 0 "" 2
 389              		.loc 1 75 5 is_stmt 1
 390              		.loc 1 75 30 is_stmt 0
 391              	# 75 "src/syscall_c.cpp" 1
  76              	    int r;
GAS LISTING /tmp/ccunUCvf.s 			page 9


 392              		ecall
 393              	# 0 "" 2
 394              		.loc 1 76 5 is_stmt 1
  77:src/syscall_c.cpp ****     __asm__ volatile("mv %0, a0": "=r"(r));
 395              		.loc 1 77 5
 396              		.loc 1 77 43 is_stmt 0
 397              	# 77 "src/syscall_c.cpp" 1
  78              	    return r;
 398              		mv a0, a0
 399              	# 0 "" 2
 400              	.LVL20:
 401              		.loc 1 78 5 is_stmt 1
  79:src/syscall_c.cpp **** }
 402              		.loc 1 79 1 is_stmt 0
 403              	#NO_APP
 404 0174 1B050500 		sext.w	a0,a0
 405 0178 03348100 		ld	s0,8(sp)
 406              		.cfi_restore 8
 407              		.cfi_def_cfa 2, 16
 408 017c 13010101 		addi	sp,sp,16
 409              		.cfi_def_cfa_offset 0
 410 0180 67800000 		jr	ra
 411              		.cfi_endproc
 412              	.LFE6:
 414              		.align	2
 415              		.globl	_Z8sem_waitP3sem
 417              	_Z8sem_waitP3sem:
 418              	.LFB7:
  80:src/syscall_c.cpp **** 
  81:src/syscall_c.cpp **** int sem_wait(sem_t id) {
 419              		.loc 1 81 24 is_stmt 1
 420              		.cfi_startproc
 421              	.LVL21:
 422 0184 130101FF 		addi	sp,sp,-16
 423              		.cfi_def_cfa_offset 16
 424 0188 23348100 		sd	s0,8(sp)
 425              		.cfi_offset 8, -8
 426 018c 13040101 		addi	s0,sp,16
 427              		.cfi_def_cfa 8, 0
  82:src/syscall_c.cpp ****     __asm__ volatile("mv a1, %0" :: "r"(id));
 428              		.loc 1 82 5
 429              		.loc 1 82 45 is_stmt 0
 430              	#APP
 431              	# 82 "src/syscall_c.cpp" 1
  83              	    __asm__ volatile("li a0, 0x23");
 432              		mv a1, a0
 433              	# 0 "" 2
 434              		.loc 1 83 5 is_stmt 1
 435              		.loc 1 83 36 is_stmt 0
 436              	# 83 "src/syscall_c.cpp" 1
  84              	    __asm__ volatile("ecall");
 437              		li a0, 0x23
 438              	# 0 "" 2
 439              		.loc 1 84 5 is_stmt 1
 440              		.loc 1 84 30 is_stmt 0
 441              	# 84 "src/syscall_c.cpp" 1
  85              	
GAS LISTING /tmp/ccunUCvf.s 			page 10


  86:src/syscall_c.cpp ****     int r;
 442              		ecall
 443              	# 0 "" 2
 444              		.loc 1 86 5 is_stmt 1
  87:src/syscall_c.cpp ****     __asm__ volatile("mv %0, a0": "=r"(r));
 445              		.loc 1 87 5
 446              		.loc 1 87 43 is_stmt 0
 447              	# 87 "src/syscall_c.cpp" 1
  88              	    return r;
 448              		mv a0, a0
 449              	# 0 "" 2
 450              	.LVL22:
 451              		.loc 1 88 5 is_stmt 1
  89:src/syscall_c.cpp **** }
 452              		.loc 1 89 1 is_stmt 0
 453              	#NO_APP
 454 01a0 1B050500 		sext.w	a0,a0
 455 01a4 03348100 		ld	s0,8(sp)
 456              		.cfi_restore 8
 457              		.cfi_def_cfa 2, 16
 458 01a8 13010101 		addi	sp,sp,16
 459              		.cfi_def_cfa_offset 0
 460 01ac 67800000 		jr	ra
 461              		.cfi_endproc
 462              	.LFE7:
 464              		.align	2
 465              		.globl	_Z10sem_signalP3sem
 467              	_Z10sem_signalP3sem:
 468              	.LFB8:
  90:src/syscall_c.cpp **** 
  91:src/syscall_c.cpp **** int sem_signal(sem_t id) {
 469              		.loc 1 91 26 is_stmt 1
 470              		.cfi_startproc
 471              	.LVL23:
 472 01b0 130101FF 		addi	sp,sp,-16
 473              		.cfi_def_cfa_offset 16
 474 01b4 23348100 		sd	s0,8(sp)
 475              		.cfi_offset 8, -8
 476 01b8 13040101 		addi	s0,sp,16
 477              		.cfi_def_cfa 8, 0
  92:src/syscall_c.cpp ****     __asm__ volatile("mv a1, %0" :: "r"(id));
 478              		.loc 1 92 5
 479              		.loc 1 92 45 is_stmt 0
 480              	#APP
 481              	# 92 "src/syscall_c.cpp" 1
  93              	    __asm__ volatile("li a0, 0x24");
 482              		mv a1, a0
 483              	# 0 "" 2
 484              		.loc 1 93 5 is_stmt 1
 485              		.loc 1 93 36 is_stmt 0
 486              	# 93 "src/syscall_c.cpp" 1
  94              	    __asm__ volatile("ecall");
 487              		li a0, 0x24
 488              	# 0 "" 2
 489              		.loc 1 94 5 is_stmt 1
 490              		.loc 1 94 30 is_stmt 0
 491              	# 94 "src/syscall_c.cpp" 1
GAS LISTING /tmp/ccunUCvf.s 			page 11


  95              	
  96:src/syscall_c.cpp ****     int r;
 492              		ecall
 493              	# 0 "" 2
 494              		.loc 1 96 5 is_stmt 1
  97:src/syscall_c.cpp ****     __asm__ volatile("mv %0, a0": "=r"(r));
 495              		.loc 1 97 5
 496              		.loc 1 97 43 is_stmt 0
 497              	# 97 "src/syscall_c.cpp" 1
  98              	    return r;
 498              		mv a0, a0
 499              	# 0 "" 2
 500              	.LVL24:
 501              		.loc 1 98 5 is_stmt 1
  99:src/syscall_c.cpp **** }
 502              		.loc 1 99 1 is_stmt 0
 503              	#NO_APP
 504 01cc 1B050500 		sext.w	a0,a0
 505 01d0 03348100 		ld	s0,8(sp)
 506              		.cfi_restore 8
 507              		.cfi_def_cfa 2, 16
 508 01d4 13010101 		addi	sp,sp,16
 509              		.cfi_def_cfa_offset 0
 510 01d8 67800000 		jr	ra
 511              		.cfi_endproc
 512              	.LFE8:
 514              		.align	2
 515              		.globl	_Z11sem_trywaitP3sem
 517              	_Z11sem_trywaitP3sem:
 518              	.LFB9:
 100:src/syscall_c.cpp **** 
 101:src/syscall_c.cpp **** int sem_trywait(sem_t id) {
 519              		.loc 1 101 27 is_stmt 1
 520              		.cfi_startproc
 521              	.LVL25:
 522 01dc 130101FF 		addi	sp,sp,-16
 523              		.cfi_def_cfa_offset 16
 524 01e0 23348100 		sd	s0,8(sp)
 525              		.cfi_offset 8, -8
 526 01e4 13040101 		addi	s0,sp,16
 527              		.cfi_def_cfa 8, 0
 102:src/syscall_c.cpp **** 
 103:src/syscall_c.cpp ****     __asm__ volatile("mv a1, %0" :: "r"(id));
 528              		.loc 1 103 5
 529              		.loc 1 103 45 is_stmt 0
 530              	#APP
 531              	# 103 "src/syscall_c.cpp" 1
 104              	    __asm__ volatile("li a0, 0x26");
 532              		mv a1, a0
 533              	# 0 "" 2
 534              		.loc 1 104 5 is_stmt 1
 535              		.loc 1 104 36 is_stmt 0
 536              	# 104 "src/syscall_c.cpp" 1
 105              	    __asm__ volatile("ecall");
 537              		li a0, 0x26
 538              	# 0 "" 2
 539              		.loc 1 105 5 is_stmt 1
GAS LISTING /tmp/ccunUCvf.s 			page 12


 540              		.loc 1 105 30 is_stmt 0
 541              	# 105 "src/syscall_c.cpp" 1
 106              	
 107:src/syscall_c.cpp ****     int r;
 542              		ecall
 543              	# 0 "" 2
 544              		.loc 1 107 5 is_stmt 1
 108:src/syscall_c.cpp ****     __asm__ volatile("mv %0, a0": "=r"(r));
 545              		.loc 1 108 5
 546              		.loc 1 108 43 is_stmt 0
 547              	# 108 "src/syscall_c.cpp" 1
 109              	    return r;
 548              		mv a0, a0
 549              	# 0 "" 2
 550              	.LVL26:
 551              		.loc 1 109 5 is_stmt 1
 110:src/syscall_c.cpp **** }
 552              		.loc 1 110 1 is_stmt 0
 553              	#NO_APP
 554 01f8 1B050500 		sext.w	a0,a0
 555 01fc 03348100 		ld	s0,8(sp)
 556              		.cfi_restore 8
 557              		.cfi_def_cfa 2, 16
 558 0200 13010101 		addi	sp,sp,16
 559              		.cfi_def_cfa_offset 0
 560 0204 67800000 		jr	ra
 561              		.cfi_endproc
 562              	.LFE9:
 564              		.align	2
 565              		.globl	_Z4getcv
 567              	_Z4getcv:
 568              	.LFB10:
 111:src/syscall_c.cpp **** 
 112:src/syscall_c.cpp **** char getc() {
 569              		.loc 1 112 13 is_stmt 1
 570              		.cfi_startproc
 571 0208 130101FF 		addi	sp,sp,-16
 572              		.cfi_def_cfa_offset 16
 573 020c 23348100 		sd	s0,8(sp)
 574              		.cfi_offset 8, -8
 575 0210 13040101 		addi	s0,sp,16
 576              		.cfi_def_cfa 8, 0
 113:src/syscall_c.cpp ****     __asm__ volatile("li a0, 0x41");
 577              		.loc 1 113 5
 578              		.loc 1 113 36 is_stmt 0
 579              	#APP
 580              	# 113 "src/syscall_c.cpp" 1
 114              	    __asm__ volatile("ecall");
 581              		li a0, 0x41
 582              	# 0 "" 2
 583              		.loc 1 114 5 is_stmt 1
 584              		.loc 1 114 30 is_stmt 0
 585              	# 114 "src/syscall_c.cpp" 1
 115              	
 116:src/syscall_c.cpp ****     char r;
 586              		ecall
 587              	# 0 "" 2
GAS LISTING /tmp/ccunUCvf.s 			page 13


 588              		.loc 1 116 5 is_stmt 1
 117:src/syscall_c.cpp ****     __asm__ volatile("mv %0, a0": "=r"(r));
 589              		.loc 1 117 5
 590              		.loc 1 117 43 is_stmt 0
 591              	# 117 "src/syscall_c.cpp" 1
 118              	    return r;
 592              		mv a0, a0
 593              	# 0 "" 2
 594              	.LVL27:
 595              		.loc 1 118 5 is_stmt 1
 119:src/syscall_c.cpp **** }
 596              		.loc 1 119 1 is_stmt 0
 597              	#NO_APP
 598 0220 1375F50F 		andi	a0,a0,0xff
 599 0224 03348100 		ld	s0,8(sp)
 600              		.cfi_restore 8
 601              		.cfi_def_cfa 2, 16
 602 0228 13010101 		addi	sp,sp,16
 603              		.cfi_def_cfa_offset 0
 604 022c 67800000 		jr	ra
 605              		.cfi_endproc
 606              	.LFE10:
 608              		.align	2
 609              		.globl	_Z4putcc
 611              	_Z4putcc:
 612              	.LFB11:
 120:src/syscall_c.cpp **** 
 121:src/syscall_c.cpp **** void putc(char a) {
 613              		.loc 1 121 19 is_stmt 1
 614              		.cfi_startproc
 615              	.LVL28:
 616 0230 130101FF 		addi	sp,sp,-16
 617              		.cfi_def_cfa_offset 16
 618 0234 23348100 		sd	s0,8(sp)
 619              		.cfi_offset 8, -8
 620 0238 13040101 		addi	s0,sp,16
 621              		.cfi_def_cfa 8, 0
 122:src/syscall_c.cpp ****     __asm__ volatile("mv a1, %0" :: "r"(a));
 622              		.loc 1 122 5
 623              		.loc 1 122 44 is_stmt 0
 624              	#APP
 625              	# 122 "src/syscall_c.cpp" 1
 123              	    __asm__ volatile("li a0, 0x42");
 626              		mv a1, a0
 627              	# 0 "" 2
 628              		.loc 1 123 5 is_stmt 1
 629              		.loc 1 123 36 is_stmt 0
 630              	# 123 "src/syscall_c.cpp" 1
 124              	    __asm__ volatile("ecall");
 631              		li a0, 0x42
 632              	# 0 "" 2
 633              		.loc 1 124 5 is_stmt 1
 634              		.loc 1 124 30 is_stmt 0
 635              	# 124 "src/syscall_c.cpp" 1
 125              	}
 636              		ecall
 637              	# 0 "" 2
GAS LISTING /tmp/ccunUCvf.s 			page 14


 638              		.loc 1 125 1
 639              	#NO_APP
 640 0248 03348100 		ld	s0,8(sp)
 641              		.cfi_restore 8
 642              		.cfi_def_cfa 2, 16
 643 024c 13010101 		addi	sp,sp,16
 644              		.cfi_def_cfa_offset 0
 645 0250 67800000 		jr	ra
 646              		.cfi_endproc
 647              	.LFE11:
 649              		.align	2
 650              		.globl	_Z13sem_timedwaitP3semm
 652              	_Z13sem_timedwaitP3semm:
 653              	.LFB12:
 126:src/syscall_c.cpp **** 
 127:src/syscall_c.cpp **** int sem_timedwait(sem_t id, time_t timeout) {
 654              		.loc 1 127 45 is_stmt 1
 655              		.cfi_startproc
 656              	.LVL29:
 657 0254 130101FF 		addi	sp,sp,-16
 658              		.cfi_def_cfa_offset 16
 659 0258 23348100 		sd	s0,8(sp)
 660              		.cfi_offset 8, -8
 661 025c 13040101 		addi	s0,sp,16
 662              		.cfi_def_cfa 8, 0
 128:src/syscall_c.cpp ****     return 0;
 663              		.loc 1 128 5
 129:src/syscall_c.cpp **** }
 664              		.loc 1 129 1 is_stmt 0
 665 0260 13050000 		li	a0,0
 666              	.LVL30:
 667 0264 03348100 		ld	s0,8(sp)
 668              		.cfi_restore 8
 669              		.cfi_def_cfa 2, 16
 670 0268 13010101 		addi	sp,sp,16
 671              		.cfi_def_cfa_offset 0
 672 026c 67800000 		jr	ra
 673              		.cfi_endproc
 674              	.LFE12:
 676              		.align	2
 677              		.globl	_Z10time_sleepm
 679              	_Z10time_sleepm:
 680              	.LFB13:
 130:src/syscall_c.cpp **** 
 131:src/syscall_c.cpp **** int time_sleep(time_t) {
 681              		.loc 1 131 24 is_stmt 1
 682              		.cfi_startproc
 683 0270 130101FF 		addi	sp,sp,-16
 684              		.cfi_def_cfa_offset 16
 685 0274 23348100 		sd	s0,8(sp)
 686              		.cfi_offset 8, -8
 687 0278 13040101 		addi	s0,sp,16
 688              		.cfi_def_cfa 8, 0
 132:src/syscall_c.cpp ****     return 0;
 689              		.loc 1 132 5
 133:src/syscall_c.cpp **** }
 690              		.loc 1 133 1 is_stmt 0
GAS LISTING /tmp/ccunUCvf.s 			page 15


 691 027c 13050000 		li	a0,0
 692 0280 03348100 		ld	s0,8(sp)
 693              		.cfi_restore 8
 694              		.cfi_def_cfa 2, 16
 695 0284 13010101 		addi	sp,sp,16
 696              		.cfi_def_cfa_offset 0
 697 0288 67800000 		jr	ra
 698              		.cfi_endproc
 699              	.LFE13:
 701              	.Letext0:
 702              		.file 2 "src/../h/../lib/hw.h"
 703              		.file 3 "src/../h/syscall_c.hpp"
GAS LISTING /tmp/ccunUCvf.s 			page 16

