GAS LISTING /tmp/ccW4Xu64.s 			page 1


   1              		.file	"syscall_c.cpp"
   2              		.option pic
   3              		.option norelax
   4              		.text
   5              	.Ltext0:
   6              		.align	2
   7              		.globl	_Z9mem_allocm
   9              	_Z9mem_allocm:
  10              	.LFB0:
  11              		.file 1 "src/syscall_c.cpp"
   1:src/syscall_c.cpp **** //
   2:src/syscall_c.cpp **** // Created by os on 5/18/24.
   3:src/syscall_c.cpp **** //
   4:src/syscall_c.cpp **** 
   5:src/syscall_c.cpp **** #include "../h/syscall_c.hpp"
   6:src/syscall_c.cpp **** 
   7:src/syscall_c.cpp **** void* mem_alloc (size_t size){
  12              		.loc 1 7 30
  13              		.cfi_startproc
  14              	.LVL0:
  15 0000 130101FF 		addi	sp,sp,-16
  16              		.cfi_def_cfa_offset 16
  17 0004 23348100 		sd	s0,8(sp)
  18              		.cfi_offset 8, -8
  19 0008 13040101 		addi	s0,sp,16
  20              		.cfi_def_cfa 8, 0
   8:src/syscall_c.cpp ****     size_t real;
  21              		.loc 1 8 5
   9:src/syscall_c.cpp ****     if(size % MEM_BLOCK_SIZE == 0)  real = size;
  22              		.loc 1 9 5
  23              	.LBB2:
  24              		.loc 1 9 13 is_stmt 0
  25 000c 9377F503 		andi	a5,a0,63
  26              		.loc 1 9 5
  27 0010 63860700 		beqz	a5,.L2
  28              	.LBB3:
  10:src/syscall_c.cpp ****     else {
  11:src/syscall_c.cpp ****         size_t rem = size % MEM_BLOCK_SIZE;
  29              		.loc 1 11 9 is_stmt 1
  30              	.LVL1:
  12:src/syscall_c.cpp ****         real = size - rem + MEM_BLOCK_SIZE;
  31              		.loc 1 12 9
  32              		.loc 1 12 14 is_stmt 0
  33 0014 137505FC 		andi	a0,a0,-64
  34              	.LVL2:
  35 0018 13050504 		addi	a0,a0,64
  36              	.LVL3:
  37              	.L2:
  38              	.LBE3:
  39              	.LBE2:
  13:src/syscall_c.cpp ****     }
  14:src/syscall_c.cpp **** 
  15:src/syscall_c.cpp ****     __asm__ volatile("mv a1, %0" :: "r"(real));
  40              		.loc 1 15 5 is_stmt 1
  41              		.loc 1 15 47 is_stmt 0
  42              	#APP
  43              	# 15 "src/syscall_c.cpp" 1
GAS LISTING /tmp/ccW4Xu64.s 			page 2


  16              	    __asm__ volatile("li a0, 0x01");
  44              		mv a1, a0
  45              	# 0 "" 2
  46              		.loc 1 16 5 is_stmt 1
  47              		.loc 1 16 36 is_stmt 0
  48              	# 16 "src/syscall_c.cpp" 1
  17              	    __asm__ volatile("ecall");
  49              		li a0, 0x01
  50              	# 0 "" 2
  51              		.loc 1 17 5 is_stmt 1
  52              		.loc 1 17 30 is_stmt 0
  53              	# 17 "src/syscall_c.cpp" 1
  18              	    void* r;
  54              		ecall
  55              	# 0 "" 2
  56              		.loc 1 18 5 is_stmt 1
  19:src/syscall_c.cpp ****     __asm__ volatile("mv %0,a0":"=r"(r));
  57              		.loc 1 19 5
  58              		.loc 1 19 41 is_stmt 0
  59              	# 19 "src/syscall_c.cpp" 1
  20              	    return  r;
  60              		mv a0,a0
  61              	# 0 "" 2
  62              	.LVL4:
  63              		.loc 1 20 5 is_stmt 1
  21:src/syscall_c.cpp **** }
  64              		.loc 1 21 1 is_stmt 0
  65              	#NO_APP
  66 002c 03348100 		ld	s0,8(sp)
  67              		.cfi_restore 8
  68              		.cfi_def_cfa 2, 16
  69 0030 13010101 		addi	sp,sp,16
  70              		.cfi_def_cfa_offset 0
  71 0034 67800000 		jr	ra
  72              		.cfi_endproc
  73              	.LFE0:
  75              		.align	2
  76              		.globl	_Z8mem_freePv
  78              	_Z8mem_freePv:
  79              	.LFB1:
  22:src/syscall_c.cpp **** int mem_free (void* p){
  80              		.loc 1 22 23 is_stmt 1
  81              		.cfi_startproc
  82              	.LVL5:
  83 0038 130101FF 		addi	sp,sp,-16
  84              		.cfi_def_cfa_offset 16
  85 003c 23348100 		sd	s0,8(sp)
  86              		.cfi_offset 8, -8
  87 0040 13040101 		addi	s0,sp,16
  88              		.cfi_def_cfa 8, 0
  23:src/syscall_c.cpp ****     __asm__ volatile("mv a1, %0":: "r"(p));
  89              		.loc 1 23 5
  90              		.loc 1 23 43 is_stmt 0
  91              	#APP
  92              	# 23 "src/syscall_c.cpp" 1
  24              	    __asm__ volatile("li a0, 0x02");
  93              		mv a1, a0
GAS LISTING /tmp/ccW4Xu64.s 			page 3


  94              	# 0 "" 2
  95              		.loc 1 24 5 is_stmt 1
  96              		.loc 1 24 36 is_stmt 0
  97              	# 24 "src/syscall_c.cpp" 1
  25              	    __asm__ volatile("ecall");
  98              		li a0, 0x02
  99              	# 0 "" 2
 100              		.loc 1 25 5 is_stmt 1
 101              		.loc 1 25 30 is_stmt 0
 102              	# 25 "src/syscall_c.cpp" 1
  26              	
  27:src/syscall_c.cpp ****     uint64 r;//
 103              		ecall
 104              	# 0 "" 2
 105              		.loc 1 27 5 is_stmt 1
  28:src/syscall_c.cpp ****     __asm__ volatile("mv %0, a0": "=r"(r));
 106              		.loc 1 28 5
 107              		.loc 1 28 43 is_stmt 0
 108              	# 28 "src/syscall_c.cpp" 1
  29              	    return (int)r;
 109              		mv a0, a0
 110              	# 0 "" 2
 111              	.LVL6:
 112              		.loc 1 29 5 is_stmt 1
  30:src/syscall_c.cpp **** }
 113              		.loc 1 30 1 is_stmt 0
 114              	#NO_APP
 115 0054 1B050500 		sext.w	a0,a0
 116              	.LVL7:
 117 0058 03348100 		ld	s0,8(sp)
 118              		.cfi_restore 8
 119              		.cfi_def_cfa 2, 16
 120 005c 13010101 		addi	sp,sp,16
 121              		.cfi_def_cfa_offset 0
 122 0060 67800000 		jr	ra
 123              		.cfi_endproc
 124              	.LFE1:
 126              		.align	2
 127              		.globl	_Z15thread_dispatchv
 129              	_Z15thread_dispatchv:
 130              	.LFB2:
  31:src/syscall_c.cpp **** 
  32:src/syscall_c.cpp **** void thread_dispatch() {
 131              		.loc 1 32 24 is_stmt 1
 132              		.cfi_startproc
 133 0064 130101FF 		addi	sp,sp,-16
 134              		.cfi_def_cfa_offset 16
 135 0068 23348100 		sd	s0,8(sp)
 136              		.cfi_offset 8, -8
 137 006c 13040101 		addi	s0,sp,16
 138              		.cfi_def_cfa 8, 0
  33:src/syscall_c.cpp ****     __asm__ volatile("li a0, 0x13");
 139              		.loc 1 33 5
 140              		.loc 1 33 36 is_stmt 0
 141              	#APP
 142              	# 33 "src/syscall_c.cpp" 1
  34              	    __asm__ volatile("ecall");
GAS LISTING /tmp/ccW4Xu64.s 			page 4


 143              		li a0, 0x13
 144              	# 0 "" 2
 145              		.loc 1 34 5 is_stmt 1
 146              		.loc 1 34 30 is_stmt 0
 147              	# 34 "src/syscall_c.cpp" 1
  35              	}
 148              		ecall
 149              	# 0 "" 2
 150              		.loc 1 35 1
 151              	#NO_APP
 152 0078 03348100 		ld	s0,8(sp)
 153              		.cfi_restore 8
 154              		.cfi_def_cfa 2, 16
 155 007c 13010101 		addi	sp,sp,16
 156              		.cfi_def_cfa_offset 0
 157 0080 67800000 		jr	ra
 158              		.cfi_endproc
 159              	.LFE2:
 161              		.align	2
 162              		.globl	_Z13thread_createPP7_threadPFvPvES2_
 164              	_Z13thread_createPP7_threadPFvPvES2_:
 165              	.LFB3:
  36:src/syscall_c.cpp **** 
  37:src/syscall_c.cpp **** int thread_create(thread_t *handle, void (*start_routine)(void *), void *arg) {
 166              		.loc 1 37 79 is_stmt 1
 167              		.cfi_startproc
 168              	.LVL8:
 169 0084 130101FF 		addi	sp,sp,-16
 170              		.cfi_def_cfa_offset 16
 171 0088 23348100 		sd	s0,8(sp)
 172              		.cfi_offset 8, -8
 173 008c 13040101 		addi	s0,sp,16
 174              		.cfi_def_cfa 8, 0
  38:src/syscall_c.cpp **** 
  39:src/syscall_c.cpp **** 
  40:src/syscall_c.cpp **** 
  41:src/syscall_c.cpp **** 
  42:src/syscall_c.cpp ****     return 0;
 175              		.loc 1 42 5
  43:src/syscall_c.cpp **** }
 176              		.loc 1 43 1 is_stmt 0
 177 0090 13050000 		li	a0,0
 178              	.LVL9:
 179 0094 03348100 		ld	s0,8(sp)
 180              		.cfi_restore 8
 181              		.cfi_def_cfa 2, 16
 182 0098 13010101 		addi	sp,sp,16
 183              		.cfi_def_cfa_offset 0
 184 009c 67800000 		jr	ra
 185              		.cfi_endproc
 186              	.LFE3:
 188              	.Letext0:
 189              		.file 2 "src/../h/../lib/hw.h"
 190              		.file 3 "src/../h/syscall_c.hpp"
GAS LISTING /tmp/ccW4Xu64.s 			page 5


DEFINED SYMBOLS
                            *ABS*:0000000000000000 syscall_c.cpp
     /tmp/ccW4Xu64.s:9      .text:0000000000000000 _Z9mem_allocm
     /tmp/ccW4Xu64.s:13     .text:0000000000000000 .L0 
     /tmp/ccW4Xu64.s:15     .text:0000000000000000 .L0 
     /tmp/ccW4Xu64.s:16     .text:0000000000000004 .L0 
     /tmp/ccW4Xu64.s:18     .text:0000000000000008 .L0 
     /tmp/ccW4Xu64.s:20     .text:000000000000000c .L0 
     /tmp/ccW4Xu64.s:22     .text:000000000000000c .L0 
     /tmp/ccW4Xu64.s:24     .text:000000000000000c .L0 
     /tmp/ccW4Xu64.s:25     .text:000000000000000c .L0 
     /tmp/ccW4Xu64.s:27     .text:0000000000000010 .L0 
     /tmp/ccW4Xu64.s:31     .text:0000000000000014 .L0 
     /tmp/ccW4Xu64.s:32     .text:0000000000000014 .L0 
     /tmp/ccW4Xu64.s:33     .text:0000000000000014 .L0 
     /tmp/ccW4Xu64.s:41     .text:000000000000001c .L0 
   src/syscall_c.cpp:15     .text:000000000000001c .L0 
     /tmp/ccW4Xu64.s:47     .text:0000000000000020 .L0 
   src/syscall_c.cpp:16     .text:0000000000000020 .L0 
     /tmp/ccW4Xu64.s:52     .text:0000000000000024 .L0 
   src/syscall_c.cpp:17     .text:0000000000000024 .L0 
     /tmp/ccW4Xu64.s:57     .text:0000000000000028 .L0 
     /tmp/ccW4Xu64.s:58     .text:0000000000000028 .L0 
   src/syscall_c.cpp:19     .text:0000000000000028 .L0 
     /tmp/ccW4Xu64.s:64     .text:000000000000002c .L0 
     /tmp/ccW4Xu64.s:66     .text:000000000000002c .L0 
     /tmp/ccW4Xu64.s:67     .text:0000000000000030 .L0 
     /tmp/ccW4Xu64.s:68     .text:0000000000000030 .L0 
     /tmp/ccW4Xu64.s:70     .text:0000000000000034 .L0 
     /tmp/ccW4Xu64.s:72     .text:0000000000000038 .L0 
     /tmp/ccW4Xu64.s:78     .text:0000000000000038 _Z8mem_freePv
     /tmp/ccW4Xu64.s:81     .text:0000000000000038 .L0 
     /tmp/ccW4Xu64.s:83     .text:0000000000000038 .L0 
     /tmp/ccW4Xu64.s:84     .text:000000000000003c .L0 
     /tmp/ccW4Xu64.s:86     .text:0000000000000040 .L0 
     /tmp/ccW4Xu64.s:88     .text:0000000000000044 .L0 
     /tmp/ccW4Xu64.s:90     .text:0000000000000044 .L0 
   src/syscall_c.cpp:23     .text:0000000000000044 .L0 
     /tmp/ccW4Xu64.s:96     .text:0000000000000048 .L0 
   src/syscall_c.cpp:24     .text:0000000000000048 .L0 
     /tmp/ccW4Xu64.s:101    .text:000000000000004c .L0 
   src/syscall_c.cpp:25     .text:000000000000004c .L0 
     /tmp/ccW4Xu64.s:106    .text:0000000000000050 .L0 
     /tmp/ccW4Xu64.s:107    .text:0000000000000050 .L0 
   src/syscall_c.cpp:28     .text:0000000000000050 .L0 
     /tmp/ccW4Xu64.s:113    .text:0000000000000054 .L0 
     /tmp/ccW4Xu64.s:115    .text:0000000000000054 .L0 
     /tmp/ccW4Xu64.s:118    .text:000000000000005c .L0 
     /tmp/ccW4Xu64.s:119    .text:000000000000005c .L0 
     /tmp/ccW4Xu64.s:121    .text:0000000000000060 .L0 
     /tmp/ccW4Xu64.s:123    .text:0000000000000064 .L0 
     /tmp/ccW4Xu64.s:129    .text:0000000000000064 _Z15thread_dispatchv
     /tmp/ccW4Xu64.s:132    .text:0000000000000064 .L0 
     /tmp/ccW4Xu64.s:133    .text:0000000000000064 .L0 
     /tmp/ccW4Xu64.s:134    .text:0000000000000068 .L0 
     /tmp/ccW4Xu64.s:136    .text:000000000000006c .L0 
     /tmp/ccW4Xu64.s:138    .text:0000000000000070 .L0 
GAS LISTING /tmp/ccW4Xu64.s 			page 6


     /tmp/ccW4Xu64.s:140    .text:0000000000000070 .L0 
   src/syscall_c.cpp:33     .text:0000000000000070 .L0 
     /tmp/ccW4Xu64.s:146    .text:0000000000000074 .L0 
   src/syscall_c.cpp:34     .text:0000000000000074 .L0 
     /tmp/ccW4Xu64.s:152    .text:0000000000000078 .L0 
     /tmp/ccW4Xu64.s:153    .text:000000000000007c .L0 
     /tmp/ccW4Xu64.s:154    .text:000000000000007c .L0 
     /tmp/ccW4Xu64.s:156    .text:0000000000000080 .L0 
     /tmp/ccW4Xu64.s:158    .text:0000000000000084 .L0 
     /tmp/ccW4Xu64.s:164    .text:0000000000000084 _Z13thread_createPP7_threadPFvPvES2_
     /tmp/ccW4Xu64.s:167    .text:0000000000000084 .L0 
     /tmp/ccW4Xu64.s:169    .text:0000000000000084 .L0 
     /tmp/ccW4Xu64.s:170    .text:0000000000000088 .L0 
     /tmp/ccW4Xu64.s:172    .text:000000000000008c .L0 
     /tmp/ccW4Xu64.s:174    .text:0000000000000090 .L0 
     /tmp/ccW4Xu64.s:176    .text:0000000000000090 .L0 
     /tmp/ccW4Xu64.s:177    .text:0000000000000090 .L0 
     /tmp/ccW4Xu64.s:180    .text:0000000000000098 .L0 
     /tmp/ccW4Xu64.s:181    .text:0000000000000098 .L0 
     /tmp/ccW4Xu64.s:183    .text:000000000000009c .L0 
     /tmp/ccW4Xu64.s:185    .text:00000000000000a0 .L0 
     /tmp/ccW4Xu64.s:191    .text:00000000000000a0 .L0 
     /tmp/ccW4Xu64.s:37     .text:000000000000001c .L2
     /tmp/ccW4Xu64.s:470    .debug_abbrev:0000000000000000 .Ldebug_abbrev0
     /tmp/ccW4Xu64.s:944    .debug_str:0000000000000028 .LASF26
     /tmp/ccW4Xu64.s:1002   .debug_str:0000000000000292 .LASF27
     /tmp/ccW4Xu64.s:952    .debug_str:0000000000000117 .LASF28
     /tmp/ccW4Xu64.s:5      .text:0000000000000000 .Ltext0
     /tmp/ccW4Xu64.s:188    .text:00000000000000a0 .Letext0
     /tmp/ccW4Xu64.s:936    .debug_line:0000000000000000 .Ldebug_line0
     /tmp/ccW4Xu64.s:978    .debug_str:0000000000000201 .LASF0
     /tmp/ccW4Xu64.s:966    .debug_str:0000000000000193 .LASF1
     /tmp/ccW4Xu64.s:960    .debug_str:000000000000016c .LASF2
     /tmp/ccW4Xu64.s:948    .debug_str:00000000000000fa .LASF4
     /tmp/ccW4Xu64.s:964    .debug_str:0000000000000181 .LASF3
     /tmp/ccW4Xu64.s:942    .debug_str:0000000000000021 .LASF5
     /tmp/ccW4Xu64.s:940    .debug_str:000000000000000e .LASF6
     /tmp/ccW4Xu64.s:956    .debug_str:000000000000014a .LASF7
     /tmp/ccW4Xu64.s:982    .debug_str:0000000000000213 .LASF8
     /tmp/ccW4Xu64.s:946    .debug_str:00000000000000ec .LASF9
     /tmp/ccW4Xu64.s:1004   .debug_str:00000000000002a4 .LASF10
     /tmp/ccW4Xu64.s:958    .debug_str:000000000000015d .LASF11
     /tmp/ccW4Xu64.s:996    .debug_str:0000000000000273 .LASF12
     /tmp/ccW4Xu64.s:988    .debug_str:0000000000000242 .LASF13
     /tmp/ccW4Xu64.s:970    .debug_str:00000000000001b4 .LASF14
     /tmp/ccW4Xu64.s:950    .debug_str:0000000000000101 .LASF15
     /tmp/ccW4Xu64.s:984    .debug_str:0000000000000223 .LASF16
     /tmp/ccW4Xu64.s:986    .debug_str:0000000000000239 .LASF17
     /tmp/ccW4Xu64.s:994    .debug_str:000000000000026b .LASF29
     /tmp/ccW4Xu64.s:968    .debug_str:00000000000001a6 .LASF20
     /tmp/ccW4Xu64.s:972    .debug_str:00000000000001c0 .LASF22
     /tmp/ccW4Xu64.s:165    .text:0000000000000084 .LFB3
     /tmp/ccW4Xu64.s:186    .text:00000000000000a0 .LFE3
     /tmp/ccW4Xu64.s:962    .debug_str:000000000000017a .LASF18
     /tmp/ccW4Xu64.s:860    .debug_loc:0000000000000000 .LLST5
     /tmp/ccW4Xu64.s:974    .debug_str:00000000000001e5 .LASF19
     /tmp/ccW4Xu64.s:992    .debug_str:000000000000025b .LASF30
GAS LISTING /tmp/ccW4Xu64.s 			page 7


     /tmp/ccW4Xu64.s:954    .debug_str:0000000000000135 .LASF31
     /tmp/ccW4Xu64.s:130    .text:0000000000000064 .LFB2
     /tmp/ccW4Xu64.s:159    .text:0000000000000084 .LFE2
     /tmp/ccW4Xu64.s:990    .debug_str:0000000000000252 .LASF21
     /tmp/ccW4Xu64.s:938    .debug_str:0000000000000000 .LASF23
     /tmp/ccW4Xu64.s:79     .text:0000000000000038 .LFB1
     /tmp/ccW4Xu64.s:124    .text:0000000000000064 .LFE1
     /tmp/ccW4Xu64.s:874    .debug_loc:0000000000000039 .LLST3
     /tmp/ccW4Xu64.s:888    .debug_loc:0000000000000072 .LLST4
     /tmp/ccW4Xu64.s:998    .debug_str:0000000000000283 .LASF32
     /tmp/ccW4Xu64.s:976    .debug_str:00000000000001f3 .LASF33
     /tmp/ccW4Xu64.s:10     .text:0000000000000000 .LFB0
     /tmp/ccW4Xu64.s:73     .text:0000000000000038 .LFE0
     /tmp/ccW4Xu64.s:1000   .debug_str:000000000000028d .LASF24
     /tmp/ccW4Xu64.s:895    .debug_loc:0000000000000095 .LLST0
     /tmp/ccW4Xu64.s:980    .debug_str:000000000000020e .LASF25
     /tmp/ccW4Xu64.s:909    .debug_loc:00000000000000ce .LLST1
     /tmp/ccW4Xu64.s:28     .text:0000000000000014 .LBB3
     /tmp/ccW4Xu64.s:38     .text:000000000000001c .LBE3
     /tmp/ccW4Xu64.s:916    .debug_loc:00000000000000f1 .LLST2
     /tmp/ccW4Xu64.s:168    .text:0000000000000084 .LVL8
     /tmp/ccW4Xu64.s:178    .text:0000000000000094 .LVL9
     /tmp/ccW4Xu64.s:82     .text:0000000000000038 .LVL5
     /tmp/ccW4Xu64.s:111    .text:0000000000000054 .LVL6
     /tmp/ccW4Xu64.s:116    .text:0000000000000058 .LVL7
     /tmp/ccW4Xu64.s:14     .text:0000000000000000 .LVL0
     /tmp/ccW4Xu64.s:34     .text:0000000000000018 .LVL2
     /tmp/ccW4Xu64.s:36     .text:000000000000001c .LVL3
     /tmp/ccW4Xu64.s:62     .text:000000000000002c .LVL4
     /tmp/ccW4Xu64.s:30     .text:0000000000000014 .LVL1
     /tmp/ccW4Xu64.s:192    .debug_info:0000000000000000 .Ldebug_info0

NO UNDEFINED SYMBOLS
