GAS LISTING /tmp/ccdFRfro.s 			page 1


   1              		.file	"syscall_c.cpp"
   2              		.option pic
   3              		.option norelax
   4              		.text
   5              	.Ltext0:
   6              		.align	2
   7              		.globl	_Z9mem_allocm
   9              	_Z9mem_allocm:
  10              	.LFB40:
  11              		.file 1 "src/syscall_c.cpp"
   1:src/syscall_c.cpp **** //
   2:src/syscall_c.cpp **** // Created by os on 5/18/24.
   3:src/syscall_c.cpp **** //
   4:src/syscall_c.cpp **** 
   5:src/syscall_c.cpp **** #include "../h/syscall_c.hpp"
   6:src/syscall_c.cpp **** 
   7:src/syscall_c.cpp **** void* mem_alloc (size_t size){
  12              		.loc 1 7 30
  13              		.cfi_startproc
  14              	.LVL0:
  15 0000 130101FF 		addi	sp,sp,-16
  16              		.cfi_def_cfa_offset 16
  17 0004 23348100 		sd	s0,8(sp)
  18              		.cfi_offset 8, -8
  19 0008 13040101 		addi	s0,sp,16
  20              		.cfi_def_cfa 8, 0
   8:src/syscall_c.cpp ****     size_t real;
  21              		.loc 1 8 5
   9:src/syscall_c.cpp ****     if(size % MEM_BLOCK_SIZE == 0)  real = size;
  22              		.loc 1 9 5
  23              	.LBB2:
  24              		.loc 1 9 13 is_stmt 0
  25 000c 9377F503 		andi	a5,a0,63
  26              		.loc 1 9 5
  27 0010 63860700 		beqz	a5,.L2
  28              	.LBB3:
  10:src/syscall_c.cpp ****     else {
  11:src/syscall_c.cpp ****         size_t rem = size % MEM_BLOCK_SIZE;
  29              		.loc 1 11 9 is_stmt 1
  30              	.LVL1:
  12:src/syscall_c.cpp ****         real = size - rem + MEM_BLOCK_SIZE;
  31              		.loc 1 12 9
  32              		.loc 1 12 14 is_stmt 0
  33 0014 137505FC 		andi	a0,a0,-64
  34              	.LVL2:
  35 0018 13050504 		addi	a0,a0,64
  36              	.LVL3:
  37              	.L2:
  38              	.LBE3:
  39              	.LBE2:
  13:src/syscall_c.cpp ****     }
  14:src/syscall_c.cpp **** 
  15:src/syscall_c.cpp ****     __asm__ volatile("mv a1, %0" :: "r"(real));
  40              		.loc 1 15 5 is_stmt 1
  41              		.loc 1 15 47 is_stmt 0
  42              	#APP
  43              	# 15 "src/syscall_c.cpp" 1
GAS LISTING /tmp/ccdFRfro.s 			page 2


  16              	    __asm__ volatile("li a0, 0x01");
  44              		mv a1, a0
  45              	# 0 "" 2
  46              		.loc 1 16 5 is_stmt 1
  47              		.loc 1 16 36 is_stmt 0
  48              	# 16 "src/syscall_c.cpp" 1
  17              	    __asm__ volatile("ecall");
  49              		li a0, 0x01
  50              	# 0 "" 2
  51              		.loc 1 17 5 is_stmt 1
  52              		.loc 1 17 30 is_stmt 0
  53              	# 17 "src/syscall_c.cpp" 1
  18              	    void* r;
  54              		ecall
  55              	# 0 "" 2
  56              		.loc 1 18 5 is_stmt 1
  19:src/syscall_c.cpp ****     __asm__ volatile("mv %0,a0":"=r"(r));
  57              		.loc 1 19 5
  58              		.loc 1 19 41 is_stmt 0
  59              	# 19 "src/syscall_c.cpp" 1
  20              	    return  r;
  60              		mv a0,a0
  61              	# 0 "" 2
  62              	.LVL4:
  63              		.loc 1 20 5 is_stmt 1
  21:src/syscall_c.cpp **** }
  64              		.loc 1 21 1 is_stmt 0
  65              	#NO_APP
  66 002c 03348100 		ld	s0,8(sp)
  67              		.cfi_restore 8
  68              		.cfi_def_cfa 2, 16
  69 0030 13010101 		addi	sp,sp,16
  70              		.cfi_def_cfa_offset 0
  71 0034 67800000 		jr	ra
  72              		.cfi_endproc
  73              	.LFE40:
  75              		.align	2
  76              		.globl	_Z8mem_freePv
  78              	_Z8mem_freePv:
  79              	.LFB41:
  22:src/syscall_c.cpp **** int mem_free (void* p){
  80              		.loc 1 22 23 is_stmt 1
  81              		.cfi_startproc
  82              	.LVL5:
  83 0038 130101FF 		addi	sp,sp,-16
  84              		.cfi_def_cfa_offset 16
  85 003c 23348100 		sd	s0,8(sp)
  86              		.cfi_offset 8, -8
  87 0040 13040101 		addi	s0,sp,16
  88              		.cfi_def_cfa 8, 0
  23:src/syscall_c.cpp ****     __asm__ volatile("mv a1, %0":: "r"(p));
  89              		.loc 1 23 5
  90              		.loc 1 23 43 is_stmt 0
  91              	#APP
  92              	# 23 "src/syscall_c.cpp" 1
  24              	    __asm__ volatile("li a0, 0x02");
  93              		mv a1, a0
GAS LISTING /tmp/ccdFRfro.s 			page 3


  94              	# 0 "" 2
  95              		.loc 1 24 5 is_stmt 1
  96              		.loc 1 24 36 is_stmt 0
  97              	# 24 "src/syscall_c.cpp" 1
  25              	    __asm__ volatile("ecall");
  98              		li a0, 0x02
  99              	# 0 "" 2
 100              		.loc 1 25 5 is_stmt 1
 101              		.loc 1 25 30 is_stmt 0
 102              	# 25 "src/syscall_c.cpp" 1
  26              	
  27:src/syscall_c.cpp ****     uint64 r;//
 103              		ecall
 104              	# 0 "" 2
 105              		.loc 1 27 5 is_stmt 1
  28:src/syscall_c.cpp ****     __asm__ volatile("mv %0, a0": "=r"(r));
 106              		.loc 1 28 5
 107              		.loc 1 28 43 is_stmt 0
 108              	# 28 "src/syscall_c.cpp" 1
  29              	    return (int)r;
 109              		mv a0, a0
 110              	# 0 "" 2
 111              	.LVL6:
 112              		.loc 1 29 5 is_stmt 1
  30:src/syscall_c.cpp **** }
 113              		.loc 1 30 1 is_stmt 0
 114              	#NO_APP
 115 0054 1B050500 		sext.w	a0,a0
 116              	.LVL7:
 117 0058 03348100 		ld	s0,8(sp)
 118              		.cfi_restore 8
 119              		.cfi_def_cfa 2, 16
 120 005c 13010101 		addi	sp,sp,16
 121              		.cfi_def_cfa_offset 0
 122 0060 67800000 		jr	ra
 123              		.cfi_endproc
 124              	.LFE41:
 126              		.align	2
 127              		.globl	_Z15thread_dispatchv
 129              	_Z15thread_dispatchv:
 130              	.LFB42:
  31:src/syscall_c.cpp **** 
  32:src/syscall_c.cpp **** void thread_dispatch() {
 131              		.loc 1 32 24 is_stmt 1
 132              		.cfi_startproc
 133 0064 130101FF 		addi	sp,sp,-16
 134              		.cfi_def_cfa_offset 16
 135 0068 23348100 		sd	s0,8(sp)
 136              		.cfi_offset 8, -8
 137 006c 13040101 		addi	s0,sp,16
 138              		.cfi_def_cfa 8, 0
  33:src/syscall_c.cpp ****     __asm__ volatile("li a0, 0x13");
 139              		.loc 1 33 5
 140              		.loc 1 33 36 is_stmt 0
 141              	#APP
 142              	# 33 "src/syscall_c.cpp" 1
  34              	    __asm__ volatile("ecall");
GAS LISTING /tmp/ccdFRfro.s 			page 4


 143              		li a0, 0x13
 144              	# 0 "" 2
 145              		.loc 1 34 5 is_stmt 1
 146              		.loc 1 34 30 is_stmt 0
 147              	# 34 "src/syscall_c.cpp" 1
  35              	}
 148              		ecall
 149              	# 0 "" 2
 150              		.loc 1 35 1
 151              	#NO_APP
 152 0078 03348100 		ld	s0,8(sp)
 153              		.cfi_restore 8
 154              		.cfi_def_cfa 2, 16
 155 007c 13010101 		addi	sp,sp,16
 156              		.cfi_def_cfa_offset 0
 157 0080 67800000 		jr	ra
 158              		.cfi_endproc
 159              	.LFE42:
 161              		.align	2
 162              		.globl	_Z11thread_exitv
 164              	_Z11thread_exitv:
 165              	.LFB43:
  36:src/syscall_c.cpp **** 
  37:src/syscall_c.cpp **** int thread_exit() {
 166              		.loc 1 37 19 is_stmt 1
 167              		.cfi_startproc
 168 0084 130101FF 		addi	sp,sp,-16
 169              		.cfi_def_cfa_offset 16
 170 0088 23348100 		sd	s0,8(sp)
 171              		.cfi_offset 8, -8
 172 008c 13040101 		addi	s0,sp,16
 173              		.cfi_def_cfa 8, 0
  38:src/syscall_c.cpp ****     __asm__ volatile("li a0, 0x12");
 174              		.loc 1 38 5
 175              		.loc 1 38 36 is_stmt 0
 176              	#APP
 177              	# 38 "src/syscall_c.cpp" 1
  39              	    __asm__ volatile("ecall");
 178              		li a0, 0x12
 179              	# 0 "" 2
 180              		.loc 1 39 5 is_stmt 1
 181              		.loc 1 39 30 is_stmt 0
 182              	# 39 "src/syscall_c.cpp" 1
  40              	    uint64 r;//
 183              		ecall
 184              	# 0 "" 2
 185              		.loc 1 40 5 is_stmt 1
  41:src/syscall_c.cpp ****     __asm__ volatile("mv %0, a0": "=r"(r));
 186              		.loc 1 41 5
 187              		.loc 1 41 43 is_stmt 0
 188              	# 41 "src/syscall_c.cpp" 1
  42              	    return (int)r;
 189              		mv a0, a0
 190              	# 0 "" 2
 191              	.LVL8:
 192              		.loc 1 42 5 is_stmt 1
  43:src/syscall_c.cpp **** }
GAS LISTING /tmp/ccdFRfro.s 			page 5


 193              		.loc 1 43 1 is_stmt 0
 194              	#NO_APP
 195 009c 1B050500 		sext.w	a0,a0
 196              	.LVL9:
 197 00a0 03348100 		ld	s0,8(sp)
 198              		.cfi_restore 8
 199              		.cfi_def_cfa 2, 16
 200 00a4 13010101 		addi	sp,sp,16
 201              		.cfi_def_cfa_offset 0
 202 00a8 67800000 		jr	ra
 203              		.cfi_endproc
 204              	.LFE43:
 206              		.align	2
 207              		.globl	_Z13thread_createPP3TCBPFvPvES2_
 209              	_Z13thread_createPP3TCBPFvPvES2_:
 210              	.LFB44:
  44:src/syscall_c.cpp **** 
  45:src/syscall_c.cpp **** int thread_create(thread_t *handle, void (*start_routine)(void *), void *arg) {
 211              		.loc 1 45 79 is_stmt 1
 212              		.cfi_startproc
 213              	.LVL10:
 214 00ac 130101FF 		addi	sp,sp,-16
 215              		.cfi_def_cfa_offset 16
 216 00b0 23348100 		sd	s0,8(sp)
 217              		.cfi_offset 8, -8
 218 00b4 13040101 		addi	s0,sp,16
 219              		.cfi_def_cfa 8, 0
  46:src/syscall_c.cpp **** 
  47:src/syscall_c.cpp ****     __asm__ volatile("mv a3, %0" :: "r"(arg));
 220              		.loc 1 47 5
 221              		.loc 1 47 46 is_stmt 0
 222              	#APP
 223              	# 47 "src/syscall_c.cpp" 1
  48              	    __asm__ volatile("mv a2, %0" :: "r"(start_routine));
 224              		mv a3, a2
 225              	# 0 "" 2
 226              		.loc 1 48 5 is_stmt 1
 227              		.loc 1 48 56 is_stmt 0
 228              	# 48 "src/syscall_c.cpp" 1
  49              	    __asm__ volatile("mv a1, %0" :: "r"(handle));
 229              		mv a2, a1
 230              	# 0 "" 2
 231              		.loc 1 49 5 is_stmt 1
 232              		.loc 1 49 49 is_stmt 0
 233              	# 49 "src/syscall_c.cpp" 1
  50              	    __asm__ volatile("li a0, 0x11");
 234              		mv a1, a0
 235              	# 0 "" 2
 236              		.loc 1 50 5 is_stmt 1
 237              		.loc 1 50 36 is_stmt 0
 238              	# 50 "src/syscall_c.cpp" 1
  51              	    __asm__ volatile("ecall");
 239              		li a0, 0x11
 240              	# 0 "" 2
 241              		.loc 1 51 5 is_stmt 1
 242              		.loc 1 51 30 is_stmt 0
 243              	# 51 "src/syscall_c.cpp" 1
GAS LISTING /tmp/ccdFRfro.s 			page 6


  52              	    uint64 r;//
 244              		ecall
 245              	# 0 "" 2
 246              		.loc 1 52 5 is_stmt 1
  53:src/syscall_c.cpp ****     __asm__ volatile("mv %0, a0": "=r"(r));
 247              		.loc 1 53 5
 248              		.loc 1 53 43 is_stmt 0
 249              	# 53 "src/syscall_c.cpp" 1
  54              	    return (int)r;
 250              		mv a0, a0
 251              	# 0 "" 2
 252              	.LVL11:
 253              		.loc 1 54 5 is_stmt 1
  55:src/syscall_c.cpp **** }
 254              		.loc 1 55 1 is_stmt 0
 255              	#NO_APP
 256 00d0 1B050500 		sext.w	a0,a0
 257              	.LVL12:
 258 00d4 03348100 		ld	s0,8(sp)
 259              		.cfi_restore 8
 260              		.cfi_def_cfa 2, 16
 261 00d8 13010101 		addi	sp,sp,16
 262              		.cfi_def_cfa_offset 0
 263 00dc 67800000 		jr	ra
 264              		.cfi_endproc
 265              	.LFE44:
 267              	.Letext0:
 268              		.file 2 "src/../h/../lib/hw.h"
 269              		.file 3 "src/../h/tcb.hpp"
 270              		.file 4 "src/../h/syscall_c.hpp"
GAS LISTING /tmp/ccdFRfro.s 			page 7


DEFINED SYMBOLS
                            *ABS*:0000000000000000 syscall_c.cpp
     /tmp/ccdFRfro.s:9      .text:0000000000000000 _Z9mem_allocm
     /tmp/ccdFRfro.s:13     .text:0000000000000000 .L0 
     /tmp/ccdFRfro.s:15     .text:0000000000000000 .L0 
     /tmp/ccdFRfro.s:16     .text:0000000000000004 .L0 
     /tmp/ccdFRfro.s:18     .text:0000000000000008 .L0 
     /tmp/ccdFRfro.s:20     .text:000000000000000c .L0 
     /tmp/ccdFRfro.s:22     .text:000000000000000c .L0 
     /tmp/ccdFRfro.s:24     .text:000000000000000c .L0 
     /tmp/ccdFRfro.s:25     .text:000000000000000c .L0 
     /tmp/ccdFRfro.s:27     .text:0000000000000010 .L0 
     /tmp/ccdFRfro.s:31     .text:0000000000000014 .L0 
     /tmp/ccdFRfro.s:32     .text:0000000000000014 .L0 
     /tmp/ccdFRfro.s:33     .text:0000000000000014 .L0 
     /tmp/ccdFRfro.s:41     .text:000000000000001c .L0 
   src/syscall_c.cpp:15     .text:000000000000001c .L0 
     /tmp/ccdFRfro.s:47     .text:0000000000000020 .L0 
   src/syscall_c.cpp:16     .text:0000000000000020 .L0 
     /tmp/ccdFRfro.s:52     .text:0000000000000024 .L0 
   src/syscall_c.cpp:17     .text:0000000000000024 .L0 
     /tmp/ccdFRfro.s:57     .text:0000000000000028 .L0 
     /tmp/ccdFRfro.s:58     .text:0000000000000028 .L0 
   src/syscall_c.cpp:19     .text:0000000000000028 .L0 
     /tmp/ccdFRfro.s:64     .text:000000000000002c .L0 
     /tmp/ccdFRfro.s:66     .text:000000000000002c .L0 
     /tmp/ccdFRfro.s:67     .text:0000000000000030 .L0 
     /tmp/ccdFRfro.s:68     .text:0000000000000030 .L0 
     /tmp/ccdFRfro.s:70     .text:0000000000000034 .L0 
     /tmp/ccdFRfro.s:72     .text:0000000000000038 .L0 
     /tmp/ccdFRfro.s:78     .text:0000000000000038 _Z8mem_freePv
     /tmp/ccdFRfro.s:81     .text:0000000000000038 .L0 
     /tmp/ccdFRfro.s:83     .text:0000000000000038 .L0 
     /tmp/ccdFRfro.s:84     .text:000000000000003c .L0 
     /tmp/ccdFRfro.s:86     .text:0000000000000040 .L0 
     /tmp/ccdFRfro.s:88     .text:0000000000000044 .L0 
     /tmp/ccdFRfro.s:90     .text:0000000000000044 .L0 
   src/syscall_c.cpp:23     .text:0000000000000044 .L0 
     /tmp/ccdFRfro.s:96     .text:0000000000000048 .L0 
   src/syscall_c.cpp:24     .text:0000000000000048 .L0 
     /tmp/ccdFRfro.s:101    .text:000000000000004c .L0 
   src/syscall_c.cpp:25     .text:000000000000004c .L0 
     /tmp/ccdFRfro.s:106    .text:0000000000000050 .L0 
     /tmp/ccdFRfro.s:107    .text:0000000000000050 .L0 
   src/syscall_c.cpp:28     .text:0000000000000050 .L0 
     /tmp/ccdFRfro.s:113    .text:0000000000000054 .L0 
     /tmp/ccdFRfro.s:115    .text:0000000000000054 .L0 
     /tmp/ccdFRfro.s:118    .text:000000000000005c .L0 
     /tmp/ccdFRfro.s:119    .text:000000000000005c .L0 
     /tmp/ccdFRfro.s:121    .text:0000000000000060 .L0 
     /tmp/ccdFRfro.s:123    .text:0000000000000064 .L0 
     /tmp/ccdFRfro.s:129    .text:0000000000000064 _Z15thread_dispatchv
     /tmp/ccdFRfro.s:132    .text:0000000000000064 .L0 
     /tmp/ccdFRfro.s:133    .text:0000000000000064 .L0 
     /tmp/ccdFRfro.s:134    .text:0000000000000068 .L0 
     /tmp/ccdFRfro.s:136    .text:000000000000006c .L0 
     /tmp/ccdFRfro.s:138    .text:0000000000000070 .L0 
GAS LISTING /tmp/ccdFRfro.s 			page 8


     /tmp/ccdFRfro.s:140    .text:0000000000000070 .L0 
   src/syscall_c.cpp:33     .text:0000000000000070 .L0 
     /tmp/ccdFRfro.s:146    .text:0000000000000074 .L0 
   src/syscall_c.cpp:34     .text:0000000000000074 .L0 
     /tmp/ccdFRfro.s:152    .text:0000000000000078 .L0 
     /tmp/ccdFRfro.s:153    .text:000000000000007c .L0 
     /tmp/ccdFRfro.s:154    .text:000000000000007c .L0 
     /tmp/ccdFRfro.s:156    .text:0000000000000080 .L0 
     /tmp/ccdFRfro.s:158    .text:0000000000000084 .L0 
     /tmp/ccdFRfro.s:164    .text:0000000000000084 _Z11thread_exitv
     /tmp/ccdFRfro.s:167    .text:0000000000000084 .L0 
     /tmp/ccdFRfro.s:168    .text:0000000000000084 .L0 
     /tmp/ccdFRfro.s:169    .text:0000000000000088 .L0 
     /tmp/ccdFRfro.s:171    .text:000000000000008c .L0 
     /tmp/ccdFRfro.s:173    .text:0000000000000090 .L0 
     /tmp/ccdFRfro.s:175    .text:0000000000000090 .L0 
   src/syscall_c.cpp:38     .text:0000000000000090 .L0 
     /tmp/ccdFRfro.s:181    .text:0000000000000094 .L0 
   src/syscall_c.cpp:39     .text:0000000000000094 .L0 
     /tmp/ccdFRfro.s:186    .text:0000000000000098 .L0 
     /tmp/ccdFRfro.s:187    .text:0000000000000098 .L0 
   src/syscall_c.cpp:41     .text:0000000000000098 .L0 
     /tmp/ccdFRfro.s:193    .text:000000000000009c .L0 
     /tmp/ccdFRfro.s:195    .text:000000000000009c .L0 
     /tmp/ccdFRfro.s:198    .text:00000000000000a4 .L0 
     /tmp/ccdFRfro.s:199    .text:00000000000000a4 .L0 
     /tmp/ccdFRfro.s:201    .text:00000000000000a8 .L0 
     /tmp/ccdFRfro.s:203    .text:00000000000000ac .L0 
     /tmp/ccdFRfro.s:209    .text:00000000000000ac _Z13thread_createPP3TCBPFvPvES2_
     /tmp/ccdFRfro.s:212    .text:00000000000000ac .L0 
     /tmp/ccdFRfro.s:214    .text:00000000000000ac .L0 
     /tmp/ccdFRfro.s:215    .text:00000000000000b0 .L0 
     /tmp/ccdFRfro.s:217    .text:00000000000000b4 .L0 
     /tmp/ccdFRfro.s:219    .text:00000000000000b8 .L0 
     /tmp/ccdFRfro.s:221    .text:00000000000000b8 .L0 
   src/syscall_c.cpp:47     .text:00000000000000b8 .L0 
     /tmp/ccdFRfro.s:227    .text:00000000000000bc .L0 
   src/syscall_c.cpp:48     .text:00000000000000bc .L0 
     /tmp/ccdFRfro.s:232    .text:00000000000000c0 .L0 
   src/syscall_c.cpp:49     .text:00000000000000c0 .L0 
     /tmp/ccdFRfro.s:237    .text:00000000000000c4 .L0 
   src/syscall_c.cpp:50     .text:00000000000000c4 .L0 
     /tmp/ccdFRfro.s:242    .text:00000000000000c8 .L0 
   src/syscall_c.cpp:51     .text:00000000000000c8 .L0 
     /tmp/ccdFRfro.s:247    .text:00000000000000cc .L0 
     /tmp/ccdFRfro.s:248    .text:00000000000000cc .L0 
   src/syscall_c.cpp:53     .text:00000000000000cc .L0 
     /tmp/ccdFRfro.s:254    .text:00000000000000d0 .L0 
     /tmp/ccdFRfro.s:256    .text:00000000000000d0 .L0 
     /tmp/ccdFRfro.s:259    .text:00000000000000d8 .L0 
     /tmp/ccdFRfro.s:260    .text:00000000000000d8 .L0 
     /tmp/ccdFRfro.s:262    .text:00000000000000dc .L0 
     /tmp/ccdFRfro.s:264    .text:00000000000000e0 .L0 
     /tmp/ccdFRfro.s:271    .text:00000000000000e0 .L0 
     /tmp/ccdFRfro.s:37     .text:000000000000001c .L2
     /tmp/ccdFRfro.s:872    .debug_abbrev:0000000000000000 .Ldebug_abbrev0
     /tmp/ccdFRfro.s:1788   .debug_str:0000000000000060 .LASF63
GAS LISTING /tmp/ccdFRfro.s 			page 9


     /tmp/ccdFRfro.s:1838   .debug_str:000000000000028e .LASF64
     /tmp/ccdFRfro.s:1856   .debug_str:00000000000002f7 .LASF65
     /tmp/ccdFRfro.s:5      .text:0000000000000000 .Ltext0
     /tmp/ccdFRfro.s:267    .text:00000000000000e0 .Letext0
     /tmp/ccdFRfro.s:1774   .debug_line:0000000000000000 .Ldebug_line0
     /tmp/ccdFRfro.s:1866   .debug_str:0000000000000349 .LASF0
     /tmp/ccdFRfro.s:1878   .debug_str:0000000000000398 .LASF1
     /tmp/ccdFRfro.s:1852   .debug_str:00000000000002e0 .LASF2
     /tmp/ccdFRfro.s:1836   .debug_str:0000000000000287 .LASF4
     /tmp/ccdFRfro.s:1908   .debug_str:000000000000047c .LASF3
     /tmp/ccdFRfro.s:1790   .debug_str:0000000000000124 .LASF5
     /tmp/ccdFRfro.s:1882   .debug_str:00000000000003cc .LASF6
     /tmp/ccdFRfro.s:1864   .debug_str:0000000000000336 .LASF7
     /tmp/ccdFRfro.s:1926   .debug_str:00000000000004fb .LASF8
     /tmp/ccdFRfro.s:1822   .debug_str:0000000000000205 .LASF9
     /tmp/ccdFRfro.s:1888   .debug_str:00000000000003f8 .LASF10
     /tmp/ccdFRfro.s:1924   .debug_str:00000000000004ec .LASF11
     /tmp/ccdFRfro.s:1792   .debug_str:000000000000012b .LASF12
     /tmp/ccdFRfro.s:1778   .debug_str:0000000000000009 .LASF13
     /tmp/ccdFRfro.s:1794   .debug_str:000000000000013b .LASF14
     /tmp/ccdFRfro.s:1902   .debug_str:000000000000044f .LASF15
     /tmp/ccdFRfro.s:1802   .debug_str:0000000000000172 .LASF16
     /tmp/ccdFRfro.s:1812   .debug_str:00000000000001b6 .LASF17
     /tmp/ccdFRfro.s:1782   .debug_str:0000000000000033 .LASF66
     /tmp/ccdFRfro.s:1932   .debug_str:000000000000052e .LASF18
     /tmp/ccdFRfro.s:1920   .debug_str:00000000000004d3 .LASF20
     /tmp/ccdFRfro.s:1818   .debug_str:00000000000001de .LASF19
     /tmp/ccdFRfro.s:1824   .debug_str:0000000000000213 .LASF21
     /tmp/ccdFRfro.s:1914   .debug_str:00000000000004a9 .LASF22
     /tmp/ccdFRfro.s:1900   .debug_str:0000000000000442 .LASF24
     /tmp/ccdFRfro.s:1916   .debug_str:00000000000004b9 .LASF23
     /tmp/ccdFRfro.s:1922   .debug_str:00000000000004df .LASF25
     /tmp/ccdFRfro.s:1806   .debug_str:0000000000000196 .LASF26
     /tmp/ccdFRfro.s:1894   .debug_str:000000000000041b .LASF28
     /tmp/ccdFRfro.s:1884   .debug_str:00000000000003df .LASF30
     /tmp/ccdFRfro.s:1820   .debug_str:00000000000001ee .LASF32
     /tmp/ccdFRfro.s:1858   .debug_str:0000000000000315 .LASF27
     /tmp/ccdFRfro.s:1832   .debug_str:0000000000000248 .LASF29
     /tmp/ccdFRfro.s:1850   .debug_str:00000000000002d3 .LASF31
     /tmp/ccdFRfro.s:1786   .debug_str:0000000000000047 .LASF33
     /tmp/ccdFRfro.s:1808   .debug_str:000000000000019b .LASF67
     /tmp/ccdFRfro.s:1844   .debug_str:00000000000002ad .LASF34
     /tmp/ccdFRfro.s:1876   .debug_str:0000000000000378 .LASF35
     /tmp/ccdFRfro.s:1896   .debug_str:0000000000000427 .LASF68
     /tmp/ccdFRfro.s:1796   .debug_str:0000000000000147 .LASF36
     /tmp/ccdFRfro.s:1780   .debug_str:0000000000000019 .LASF37
     /tmp/ccdFRfro.s:1890   .debug_str:0000000000000407 .LASF69
     /tmp/ccdFRfro.s:1898   .debug_str:000000000000042c .LASF70
     /tmp/ccdFRfro.s:1904   .debug_str:0000000000000465 .LASF71
     /tmp/ccdFRfro.s:1860   .debug_str:0000000000000321 .LASF72
     /tmp/ccdFRfro.s:1928   .debug_str:000000000000050b .LASF73
     /tmp/ccdFRfro.s:1840   .debug_str:00000000000002a0 .LASF38
     /tmp/ccdFRfro.s:1872   .debug_str:0000000000000365 .LASF39
     /tmp/ccdFRfro.s:1870   .debug_str:000000000000035f .LASF40
     /tmp/ccdFRfro.s:1842   .debug_str:00000000000002a5 .LASF41
     /tmp/ccdFRfro.s:1874   .debug_str:000000000000036e .LASF42
     /tmp/ccdFRfro.s:1854   .debug_str:00000000000002ee .LASF43
GAS LISTING /tmp/ccdFRfro.s 			page 10


     /tmp/ccdFRfro.s:1910   .debug_str:000000000000048e .LASF74
     /tmp/ccdFRfro.s:1846   .debug_str:00000000000002ba .LASF44
     /tmp/ccdFRfro.s:1830   .debug_str:000000000000023d .LASF45
     /tmp/ccdFRfro.s:1848   .debug_str:00000000000002c5 .LASF46
     /tmp/ccdFRfro.s:1826   .debug_str:000000000000021f .LASF48
     /tmp/ccdFRfro.s:1868   .debug_str:0000000000000356 .LASF47
     /tmp/ccdFRfro.s:1810   .debug_str:00000000000001a3 .LASF49
     /tmp/ccdFRfro.s:1930   .debug_str:0000000000000520 .LASF75
     /tmp/ccdFRfro.s:1834   .debug_str:000000000000025f .LASF76
     /tmp/ccdFRfro.s:1776   .debug_str:0000000000000000 .LASF50
     /tmp/ccdFRfro.s:1804   .debug_str:0000000000000188 .LASF53
     /tmp/ccdFRfro.s:1880   .debug_str:00000000000003ab .LASF55
     /tmp/ccdFRfro.s:210    .text:00000000000000ac .LFB44
     /tmp/ccdFRfro.s:265    .text:00000000000000e0 .LFE44
     /tmp/ccdFRfro.s:1918   .debug_str:00000000000004cc .LASF51
     /tmp/ccdFRfro.s:1684   .debug_loc:0000000000000000 .LLST6
     /tmp/ccdFRfro.s:1816   .debug_str:00000000000001d0 .LASF52
     /tmp/ccdFRfro.s:1698   .debug_loc:0000000000000039 .LLST7
     /tmp/ccdFRfro.s:1784   .debug_str:000000000000003b .LASF54
     /tmp/ccdFRfro.s:1906   .debug_str:000000000000046b .LASF56
     /tmp/ccdFRfro.s:165    .text:0000000000000084 .LFB43
     /tmp/ccdFRfro.s:204    .text:00000000000000ac .LFE43
     /tmp/ccdFRfro.s:1705   .debug_loc:000000000000005c .LLST5
     /tmp/ccdFRfro.s:1798   .debug_str:0000000000000154 .LASF77
     /tmp/ccdFRfro.s:1814   .debug_str:00000000000001bb .LASF78
     /tmp/ccdFRfro.s:130    .text:0000000000000064 .LFB42
     /tmp/ccdFRfro.s:159    .text:0000000000000084 .LFE42
     /tmp/ccdFRfro.s:1892   .debug_str:0000000000000412 .LASF57
     /tmp/ccdFRfro.s:1886   .debug_str:00000000000003ea .LASF58
     /tmp/ccdFRfro.s:79     .text:0000000000000038 .LFB41
     /tmp/ccdFRfro.s:124    .text:0000000000000064 .LFE41
     /tmp/ccdFRfro.s:1712   .debug_loc:000000000000007f .LLST3
     /tmp/ccdFRfro.s:1726   .debug_loc:00000000000000b8 .LLST4
     /tmp/ccdFRfro.s:1912   .debug_str:000000000000049f .LASF59
     /tmp/ccdFRfro.s:1800   .debug_str:0000000000000164 .LASF60
     /tmp/ccdFRfro.s:10     .text:0000000000000000 .LFB40
     /tmp/ccdFRfro.s:73     .text:0000000000000038 .LFE40
     /tmp/ccdFRfro.s:1862   .debug_str:0000000000000331 .LASF61
     /tmp/ccdFRfro.s:1733   .debug_loc:00000000000000db .LLST0
     /tmp/ccdFRfro.s:1828   .debug_str:0000000000000238 .LASF62
     /tmp/ccdFRfro.s:1747   .debug_loc:0000000000000114 .LLST1
     /tmp/ccdFRfro.s:28     .text:0000000000000014 .LBB3
     /tmp/ccdFRfro.s:38     .text:000000000000001c .LBE3
     /tmp/ccdFRfro.s:1754   .debug_loc:0000000000000137 .LLST2
     /tmp/ccdFRfro.s:213    .text:00000000000000ac .LVL10
     /tmp/ccdFRfro.s:252    .text:00000000000000d0 .LVL11
     /tmp/ccdFRfro.s:257    .text:00000000000000d4 .LVL12
     /tmp/ccdFRfro.s:191    .text:000000000000009c .LVL8
     /tmp/ccdFRfro.s:196    .text:00000000000000a0 .LVL9
     /tmp/ccdFRfro.s:82     .text:0000000000000038 .LVL5
     /tmp/ccdFRfro.s:111    .text:0000000000000054 .LVL6
     /tmp/ccdFRfro.s:116    .text:0000000000000058 .LVL7
     /tmp/ccdFRfro.s:14     .text:0000000000000000 .LVL0
     /tmp/ccdFRfro.s:34     .text:0000000000000018 .LVL2
     /tmp/ccdFRfro.s:36     .text:000000000000001c .LVL3
     /tmp/ccdFRfro.s:62     .text:000000000000002c .LVL4
     /tmp/ccdFRfro.s:30     .text:0000000000000014 .LVL1
GAS LISTING /tmp/ccdFRfro.s 			page 11


     /tmp/ccdFRfro.s:272    .debug_info:0000000000000000 .Ldebug_info0

NO UNDEFINED SYMBOLS
