GAS LISTING /tmp/cchBzISt.s 			page 1


   1              		.file	"syscall_c.cpp"
   2              		.option pic
   3              		.option norelax
   4              		.text
   5              	.Ltext0:
   6              		.align	2
   7              		.globl	_Z9mem_allocm
   9              	_Z9mem_allocm:
  10              	.LFB0:
  11              		.file 1 "src/syscall_c.cpp"
   1:src/syscall_c.cpp **** //
   2:src/syscall_c.cpp **** // Created by os on 5/18/24.
   3:src/syscall_c.cpp **** //
   4:src/syscall_c.cpp **** 
   5:src/syscall_c.cpp **** #include "../h/syscall_c.hpp"
   6:src/syscall_c.cpp **** 
   7:src/syscall_c.cpp **** void* mem_alloc (size_t size){
  12              		.loc 1 7 30
  13              		.cfi_startproc
  14              	.LVL0:
  15 0000 130101FF 		addi	sp,sp,-16
  16              		.cfi_def_cfa_offset 16
  17 0004 23348100 		sd	s0,8(sp)
  18              		.cfi_offset 8, -8
  19 0008 13040101 		addi	s0,sp,16
  20              		.cfi_def_cfa 8, 0
   8:src/syscall_c.cpp ****     size_t real;
  21              		.loc 1 8 5
   9:src/syscall_c.cpp ****     if(size % MEM_BLOCK_SIZE == 0)  real = size;
  22              		.loc 1 9 5
  23              	.LBB2:
  24              		.loc 1 9 13 is_stmt 0
  25 000c 9377F503 		andi	a5,a0,63
  26              		.loc 1 9 5
  27 0010 63860700 		beqz	a5,.L2
  28              	.LBB3:
  10:src/syscall_c.cpp ****     else {
  11:src/syscall_c.cpp ****         size_t rem = size % MEM_BLOCK_SIZE;
  29              		.loc 1 11 9 is_stmt 1
  30              	.LVL1:
  12:src/syscall_c.cpp ****         real = size - rem + MEM_BLOCK_SIZE;
  31              		.loc 1 12 9
  32              		.loc 1 12 14 is_stmt 0
  33 0014 137505FC 		andi	a0,a0,-64
  34              	.LVL2:
  35 0018 13050504 		addi	a0,a0,64
  36              	.LVL3:
  37              	.L2:
  38              	.LBE3:
  39              	.LBE2:
  13:src/syscall_c.cpp ****     }
  14:src/syscall_c.cpp **** 
  15:src/syscall_c.cpp ****     __asm__ volatile("mv a1, %0" :: "r"(real));
  40              		.loc 1 15 5 is_stmt 1
  41              		.loc 1 15 47 is_stmt 0
  42              	#APP
  43              	# 15 "src/syscall_c.cpp" 1
GAS LISTING /tmp/cchBzISt.s 			page 2


  16              	    __asm__ volatile("li a0, 0x01");
  44              		mv a1, a0
  45              	# 0 "" 2
  46              		.loc 1 16 5 is_stmt 1
  47              		.loc 1 16 36 is_stmt 0
  48              	# 16 "src/syscall_c.cpp" 1
  17              	    __asm__ volatile("ecall");
  49              		li a0, 0x01
  50              	# 0 "" 2
  51              		.loc 1 17 5 is_stmt 1
  52              		.loc 1 17 30 is_stmt 0
  53              	# 17 "src/syscall_c.cpp" 1
  18              	    void* r;
  54              		ecall
  55              	# 0 "" 2
  56              		.loc 1 18 5 is_stmt 1
  19:src/syscall_c.cpp ****     __asm__ volatile("mv %0,a0":"=r"(r));
  57              		.loc 1 19 5
  58              		.loc 1 19 41 is_stmt 0
  59              	# 19 "src/syscall_c.cpp" 1
  20              	    return  r;
  60              		mv a0,a0
  61              	# 0 "" 2
  62              	.LVL4:
  63              		.loc 1 20 5 is_stmt 1
  21:src/syscall_c.cpp **** }
  64              		.loc 1 21 1 is_stmt 0
  65              	#NO_APP
  66 002c 03348100 		ld	s0,8(sp)
  67              		.cfi_restore 8
  68              		.cfi_def_cfa 2, 16
  69 0030 13010101 		addi	sp,sp,16
  70              		.cfi_def_cfa_offset 0
  71 0034 67800000 		jr	ra
  72              		.cfi_endproc
  73              	.LFE0:
  75              		.align	2
  76              		.globl	_Z8mem_freePv
  78              	_Z8mem_freePv:
  79              	.LFB1:
  22:src/syscall_c.cpp **** int mem_free (void* p){
  80              		.loc 1 22 23 is_stmt 1
  81              		.cfi_startproc
  82              	.LVL5:
  83 0038 130101FF 		addi	sp,sp,-16
  84              		.cfi_def_cfa_offset 16
  85 003c 23348100 		sd	s0,8(sp)
  86              		.cfi_offset 8, -8
  87 0040 13040101 		addi	s0,sp,16
  88              		.cfi_def_cfa 8, 0
  23:src/syscall_c.cpp ****     __asm__ volatile("mv a1, %0":: "r"(p));
  89              		.loc 1 23 5
  90              		.loc 1 23 43 is_stmt 0
  91              	#APP
  92              	# 23 "src/syscall_c.cpp" 1
  24              	    __asm__ volatile("li a0, 0x02");
  93              		mv a1, a0
GAS LISTING /tmp/cchBzISt.s 			page 3


  94              	# 0 "" 2
  95              		.loc 1 24 5 is_stmt 1
  96              		.loc 1 24 36 is_stmt 0
  97              	# 24 "src/syscall_c.cpp" 1
  25              	    __asm__ volatile("ecall");
  98              		li a0, 0x02
  99              	# 0 "" 2
 100              		.loc 1 25 5 is_stmt 1
 101              		.loc 1 25 30 is_stmt 0
 102              	# 25 "src/syscall_c.cpp" 1
  26              	
  27:src/syscall_c.cpp ****     int r;
 103              		ecall
 104              	# 0 "" 2
 105              		.loc 1 27 5 is_stmt 1
  28:src/syscall_c.cpp ****     __asm__ volatile("mv %0, a0": "=r"(r));
 106              		.loc 1 28 5
 107              		.loc 1 28 43 is_stmt 0
 108              	# 28 "src/syscall_c.cpp" 1
  29              	    return r;
 109              		mv a0, a0
 110              	# 0 "" 2
 111              	.LVL6:
 112              		.loc 1 29 5 is_stmt 1
  30:src/syscall_c.cpp **** }
 113              		.loc 1 30 1 is_stmt 0
 114              	#NO_APP
 115 0054 1B050500 		sext.w	a0,a0
 116 0058 03348100 		ld	s0,8(sp)
 117              		.cfi_restore 8
 118              		.cfi_def_cfa 2, 16
 119 005c 13010101 		addi	sp,sp,16
 120              		.cfi_def_cfa_offset 0
 121 0060 67800000 		jr	ra
 122              		.cfi_endproc
 123              	.LFE1:
 125              		.align	2
 126              		.globl	_Z15thread_dispatchv
 128              	_Z15thread_dispatchv:
 129              	.LFB2:
  31:src/syscall_c.cpp **** 
  32:src/syscall_c.cpp **** void thread_dispatch() {
 130              		.loc 1 32 24 is_stmt 1
 131              		.cfi_startproc
 132 0064 130101FF 		addi	sp,sp,-16
 133              		.cfi_def_cfa_offset 16
 134 0068 23348100 		sd	s0,8(sp)
 135              		.cfi_offset 8, -8
 136 006c 13040101 		addi	s0,sp,16
 137              		.cfi_def_cfa 8, 0
  33:src/syscall_c.cpp ****     __asm__ volatile("li a0, 0x13");
 138              		.loc 1 33 5
 139              		.loc 1 33 36 is_stmt 0
 140              	#APP
 141              	# 33 "src/syscall_c.cpp" 1
  34              	    __asm__ volatile("ecall");
 142              		li a0, 0x13
GAS LISTING /tmp/cchBzISt.s 			page 4


 143              	# 0 "" 2
 144              		.loc 1 34 5 is_stmt 1
 145              		.loc 1 34 30 is_stmt 0
 146              	# 34 "src/syscall_c.cpp" 1
  35              	}
 147              		ecall
 148              	# 0 "" 2
 149              		.loc 1 35 1
 150              	#NO_APP
 151 0078 03348100 		ld	s0,8(sp)
 152              		.cfi_restore 8
 153              		.cfi_def_cfa 2, 16
 154 007c 13010101 		addi	sp,sp,16
 155              		.cfi_def_cfa_offset 0
 156 0080 67800000 		jr	ra
 157              		.cfi_endproc
 158              	.LFE2:
 160              		.align	2
 161              		.globl	_Z11thread_exitv
 163              	_Z11thread_exitv:
 164              	.LFB3:
  36:src/syscall_c.cpp **** 
  37:src/syscall_c.cpp **** int thread_exit() {
 165              		.loc 1 37 19 is_stmt 1
 166              		.cfi_startproc
 167 0084 130101FF 		addi	sp,sp,-16
 168              		.cfi_def_cfa_offset 16
 169 0088 23348100 		sd	s0,8(sp)
 170              		.cfi_offset 8, -8
 171 008c 13040101 		addi	s0,sp,16
 172              		.cfi_def_cfa 8, 0
  38:src/syscall_c.cpp ****     __asm__ volatile("li a0, 0x12");
 173              		.loc 1 38 5
 174              		.loc 1 38 36 is_stmt 0
 175              	#APP
 176              	# 38 "src/syscall_c.cpp" 1
  39              	    __asm__ volatile("ecall");
 177              		li a0, 0x12
 178              	# 0 "" 2
 179              		.loc 1 39 5 is_stmt 1
 180              		.loc 1 39 30 is_stmt 0
 181              	# 39 "src/syscall_c.cpp" 1
  40              	    int r;
 182              		ecall
 183              	# 0 "" 2
 184              		.loc 1 40 5 is_stmt 1
  41:src/syscall_c.cpp ****     __asm__ volatile("mv %0, a0": "=r"(r));
 185              		.loc 1 41 5
 186              		.loc 1 41 43 is_stmt 0
 187              	# 41 "src/syscall_c.cpp" 1
  42              	    return r;
 188              		mv a0, a0
 189              	# 0 "" 2
 190              	.LVL7:
 191              		.loc 1 42 5 is_stmt 1
  43:src/syscall_c.cpp **** }
 192              		.loc 1 43 1 is_stmt 0
GAS LISTING /tmp/cchBzISt.s 			page 5


 193              	#NO_APP
 194 009c 1B050500 		sext.w	a0,a0
 195 00a0 03348100 		ld	s0,8(sp)
 196              		.cfi_restore 8
 197              		.cfi_def_cfa 2, 16
 198 00a4 13010101 		addi	sp,sp,16
 199              		.cfi_def_cfa_offset 0
 200 00a8 67800000 		jr	ra
 201              		.cfi_endproc
 202              	.LFE3:
 204              		.align	2
 205              		.globl	_Z13thread_createPP3TCBPFvPvES2_
 207              	_Z13thread_createPP3TCBPFvPvES2_:
 208              	.LFB4:
  44:src/syscall_c.cpp **** 
  45:src/syscall_c.cpp **** int thread_create(thread_t *handle, void (*start_routine)(void *), void *arg) {
 209              		.loc 1 45 79 is_stmt 1
 210              		.cfi_startproc
 211              	.LVL8:
 212 00ac 130101FD 		addi	sp,sp,-48
 213              		.cfi_def_cfa_offset 48
 214 00b0 23341102 		sd	ra,40(sp)
 215 00b4 23308102 		sd	s0,32(sp)
 216 00b8 233C9100 		sd	s1,24(sp)
 217 00bc 23382101 		sd	s2,16(sp)
 218 00c0 23343101 		sd	s3,8(sp)
 219              		.cfi_offset 1, -8
 220              		.cfi_offset 8, -16
 221              		.cfi_offset 9, -24
 222              		.cfi_offset 18, -32
 223              		.cfi_offset 19, -40
 224 00c4 13040103 		addi	s0,sp,48
 225              		.cfi_def_cfa 8, 0
 226 00c8 13090500 		mv	s2,a0
 227 00cc 93840500 		mv	s1,a1
 228 00d0 93090600 		mv	s3,a2
  46:src/syscall_c.cpp **** 
  47:src/syscall_c.cpp ****     void* stek;
 229              		.loc 1 47 5
  48:src/syscall_c.cpp ****     stek = start_routine != nullptr ? mem_alloc(DEFAULT_STACK_SIZE) : nullptr;
 230              		.loc 1 48 5
 231              		.loc 1 48 37 is_stmt 0
 232 00d4 63860504 		beqz	a1,.L12
 233              		.loc 1 48 48 discriminator 1
 234 00d8 37150000 		li	a0,4096
 235              	.LVL9:
 236 00dc 97000000 		call	_Z9mem_allocm
 236      E7800000 
 237              	.LVL10:
 238              	.L11:
  49:src/syscall_c.cpp ****     __asm__ volatile("mv a4, %0" :: "r"(stek));
 239              		.loc 1 49 5 is_stmt 1 discriminator 4
 240              		.loc 1 49 47 is_stmt 0 discriminator 4
 241              	#APP
 242              	# 49 "src/syscall_c.cpp" 1
  50              	    __asm__ volatile("mv a3, %0" :: "r"(arg));
 243              		mv a4, a0
GAS LISTING /tmp/cchBzISt.s 			page 6


 244              	# 0 "" 2
 245              		.loc 1 50 5 is_stmt 1 discriminator 4
 246              		.loc 1 50 46 is_stmt 0 discriminator 4
 247              	# 50 "src/syscall_c.cpp" 1
  51              	    __asm__ volatile("mv a2, %0" :: "r"(start_routine));
 248              		mv a3, s3
 249              	# 0 "" 2
 250              		.loc 1 51 5 is_stmt 1 discriminator 4
 251              		.loc 1 51 56 is_stmt 0 discriminator 4
 252              	# 51 "src/syscall_c.cpp" 1
  52              	    __asm__ volatile("mv a1, %0" :: "r"(handle));
 253              		mv a2, s1
 254              	# 0 "" 2
 255              		.loc 1 52 5 is_stmt 1 discriminator 4
 256              		.loc 1 52 49 is_stmt 0 discriminator 4
 257              	# 52 "src/syscall_c.cpp" 1
  53              	    __asm__ volatile("li a0, 0x11");
 258              		mv a1, s2
 259              	# 0 "" 2
 260              		.loc 1 53 5 is_stmt 1 discriminator 4
 261              		.loc 1 53 36 is_stmt 0 discriminator 4
 262              	# 53 "src/syscall_c.cpp" 1
  54              	    __asm__ volatile("ecall");
 263              		li a0, 0x11
 264              	# 0 "" 2
 265              		.loc 1 54 5 is_stmt 1 discriminator 4
 266              		.loc 1 54 30 is_stmt 0 discriminator 4
 267              	# 54 "src/syscall_c.cpp" 1
  55              	    int r;
 268              		ecall
 269              	# 0 "" 2
 270              		.loc 1 55 5 is_stmt 1 discriminator 4
  56:src/syscall_c.cpp ****     __asm__ volatile("mv %0, a0": "=r"(r));
 271              		.loc 1 56 5 discriminator 4
 272              		.loc 1 56 43 is_stmt 0 discriminator 4
 273              	# 56 "src/syscall_c.cpp" 1
  57              	    return r;
 274              		mv a0, a0
 275              	# 0 "" 2
 276              	.LVL11:
 277              		.loc 1 57 5 is_stmt 1 discriminator 4
  58:src/syscall_c.cpp **** }
 278              		.loc 1 58 1 is_stmt 0 discriminator 4
 279              	#NO_APP
 280 0100 1B050500 		sext.w	a0,a0
 281 0104 83308102 		ld	ra,40(sp)
 282              		.cfi_remember_state
 283              		.cfi_restore 1
 284 0108 03340102 		ld	s0,32(sp)
 285              		.cfi_restore 8
 286              		.cfi_def_cfa 2, 48
 287 010c 83348101 		ld	s1,24(sp)
 288              		.cfi_restore 9
 289              	.LVL12:
 290 0110 03390101 		ld	s2,16(sp)
 291              		.cfi_restore 18
 292              	.LVL13:
GAS LISTING /tmp/cchBzISt.s 			page 7


 293 0114 83398100 		ld	s3,8(sp)
 294              		.cfi_restore 19
 295              	.LVL14:
 296 0118 13010103 		addi	sp,sp,48
 297              		.cfi_def_cfa_offset 0
 298 011c 67800000 		jr	ra
 299              	.LVL15:
 300              	.L12:
 301              		.cfi_restore_state
  48:src/syscall_c.cpp ****     __asm__ volatile("mv a4, %0" :: "r"(stek));
 302              		.loc 1 48 37
 303 0120 13050000 		li	a0,0
 304              	.LVL16:
 305 0124 6FF01FFC 		j	.L11
 306              		.cfi_endproc
 307              	.LFE4:
 309              		.align	2
 310              		.globl	_Z8sem_openPP3semj
 312              	_Z8sem_openPP3semj:
 313              	.LFB5:
  59:src/syscall_c.cpp **** 
  60:src/syscall_c.cpp **** int sem_open(sem_t *handle, unsigned int init) {
 314              		.loc 1 60 48 is_stmt 1
 315              		.cfi_startproc
 316              	.LVL17:
 317 0128 130101FF 		addi	sp,sp,-16
 318              		.cfi_def_cfa_offset 16
 319 012c 23348100 		sd	s0,8(sp)
 320              		.cfi_offset 8, -8
 321 0130 13040101 		addi	s0,sp,16
 322              		.cfi_def_cfa 8, 0
  61:src/syscall_c.cpp ****     __asm__ volatile("mv a2, %0" :: "r"(init));
 323              		.loc 1 61 5
 324              		.loc 1 61 47 is_stmt 0
 325              	#APP
 326              	# 61 "src/syscall_c.cpp" 1
  62              	    __asm__ volatile("mv a1, %0" :: "r"(handle));
 327              		mv a2, a1
 328              	# 0 "" 2
 329              		.loc 1 62 5 is_stmt 1
 330              		.loc 1 62 49 is_stmt 0
 331              	# 62 "src/syscall_c.cpp" 1
  63              	    __asm__ volatile("li a0, 0x21");
 332              		mv a1, a0
 333              	# 0 "" 2
 334              		.loc 1 63 5 is_stmt 1
 335              		.loc 1 63 36 is_stmt 0
 336              	# 63 "src/syscall_c.cpp" 1
  64              	    __asm__ volatile("ecall");
 337              		li a0, 0x21
 338              	# 0 "" 2
 339              		.loc 1 64 5 is_stmt 1
 340              		.loc 1 64 30 is_stmt 0
 341              	# 64 "src/syscall_c.cpp" 1
  65              	
  66:src/syscall_c.cpp ****     int r;
 342              		ecall
GAS LISTING /tmp/cchBzISt.s 			page 8


 343              	# 0 "" 2
 344              		.loc 1 66 5 is_stmt 1
  67:src/syscall_c.cpp ****     __asm__ volatile("mv %0, a0": "=r"(r));
 345              		.loc 1 67 5
 346              		.loc 1 67 43 is_stmt 0
 347              	# 67 "src/syscall_c.cpp" 1
  68              	    return (int)r;
 348              		mv a0, a0
 349              	# 0 "" 2
 350              	.LVL18:
 351              		.loc 1 68 5 is_stmt 1
  69:src/syscall_c.cpp **** }
 352              		.loc 1 69 1 is_stmt 0
 353              	#NO_APP
 354 0148 1B050500 		sext.w	a0,a0
 355 014c 03348100 		ld	s0,8(sp)
 356              		.cfi_restore 8
 357              		.cfi_def_cfa 2, 16
 358 0150 13010101 		addi	sp,sp,16
 359              		.cfi_def_cfa_offset 0
 360 0154 67800000 		jr	ra
 361              		.cfi_endproc
 362              	.LFE5:
 364              		.align	2
 365              		.globl	_Z9sem_closeP3sem
 367              	_Z9sem_closeP3sem:
 368              	.LFB6:
  70:src/syscall_c.cpp **** 
  71:src/syscall_c.cpp **** int sem_close(sem_t handle) {
 369              		.loc 1 71 29 is_stmt 1
 370              		.cfi_startproc
 371              	.LVL19:
 372 0158 130101FF 		addi	sp,sp,-16
 373              		.cfi_def_cfa_offset 16
 374 015c 23348100 		sd	s0,8(sp)
 375              		.cfi_offset 8, -8
 376 0160 13040101 		addi	s0,sp,16
 377              		.cfi_def_cfa 8, 0
  72:src/syscall_c.cpp **** 
  73:src/syscall_c.cpp ****     __asm__ volatile("mv a1, %0" :: "r"(handle));
 378              		.loc 1 73 5
 379              		.loc 1 73 49 is_stmt 0
 380              	#APP
 381              	# 73 "src/syscall_c.cpp" 1
  74              	    __asm__ volatile("li a0, 0x22");
 382              		mv a1, a0
 383              	# 0 "" 2
 384              		.loc 1 74 5 is_stmt 1
 385              		.loc 1 74 36 is_stmt 0
 386              	# 74 "src/syscall_c.cpp" 1
  75              	    __asm__ volatile("ecall");
 387              		li a0, 0x22
 388              	# 0 "" 2
 389              		.loc 1 75 5 is_stmt 1
 390              		.loc 1 75 30 is_stmt 0
 391              	# 75 "src/syscall_c.cpp" 1
  76              	    int r;
GAS LISTING /tmp/cchBzISt.s 			page 9


 392              		ecall
 393              	# 0 "" 2
 394              		.loc 1 76 5 is_stmt 1
  77:src/syscall_c.cpp ****     __asm__ volatile("mv %0, a0": "=r"(r));
 395              		.loc 1 77 5
 396              		.loc 1 77 43 is_stmt 0
 397              	# 77 "src/syscall_c.cpp" 1
  78              	    return r;
 398              		mv a0, a0
 399              	# 0 "" 2
 400              	.LVL20:
 401              		.loc 1 78 5 is_stmt 1
  79:src/syscall_c.cpp **** }
 402              		.loc 1 79 1 is_stmt 0
 403              	#NO_APP
 404 0174 1B050500 		sext.w	a0,a0
 405 0178 03348100 		ld	s0,8(sp)
 406              		.cfi_restore 8
 407              		.cfi_def_cfa 2, 16
 408 017c 13010101 		addi	sp,sp,16
 409              		.cfi_def_cfa_offset 0
 410 0180 67800000 		jr	ra
 411              		.cfi_endproc
 412              	.LFE6:
 414              		.align	2
 415              		.globl	_Z8sem_waitP3sem
 417              	_Z8sem_waitP3sem:
 418              	.LFB7:
  80:src/syscall_c.cpp **** 
  81:src/syscall_c.cpp **** int sem_wait(sem_t id) {
 419              		.loc 1 81 24 is_stmt 1
 420              		.cfi_startproc
 421              	.LVL21:
 422 0184 130101FF 		addi	sp,sp,-16
 423              		.cfi_def_cfa_offset 16
 424 0188 23348100 		sd	s0,8(sp)
 425              		.cfi_offset 8, -8
 426 018c 13040101 		addi	s0,sp,16
 427              		.cfi_def_cfa 8, 0
  82:src/syscall_c.cpp ****     __asm__ volatile("mv a1, %0" :: "r"(id));
 428              		.loc 1 82 5
 429              		.loc 1 82 45 is_stmt 0
 430              	#APP
 431              	# 82 "src/syscall_c.cpp" 1
  83              	    __asm__ volatile("li a0, 0x23");
 432              		mv a1, a0
 433              	# 0 "" 2
 434              		.loc 1 83 5 is_stmt 1
 435              		.loc 1 83 36 is_stmt 0
 436              	# 83 "src/syscall_c.cpp" 1
  84              	    __asm__ volatile("ecall");
 437              		li a0, 0x23
 438              	# 0 "" 2
 439              		.loc 1 84 5 is_stmt 1
 440              		.loc 1 84 30 is_stmt 0
 441              	# 84 "src/syscall_c.cpp" 1
  85              	
GAS LISTING /tmp/cchBzISt.s 			page 10


  86:src/syscall_c.cpp ****     int r;
 442              		ecall
 443              	# 0 "" 2
 444              		.loc 1 86 5 is_stmt 1
  87:src/syscall_c.cpp ****     __asm__ volatile("mv %0, a0": "=r"(r));
 445              		.loc 1 87 5
 446              		.loc 1 87 43 is_stmt 0
 447              	# 87 "src/syscall_c.cpp" 1
  88              	    return r;
 448              		mv a0, a0
 449              	# 0 "" 2
 450              	.LVL22:
 451              		.loc 1 88 5 is_stmt 1
  89:src/syscall_c.cpp **** }
 452              		.loc 1 89 1 is_stmt 0
 453              	#NO_APP
 454 01a0 1B050500 		sext.w	a0,a0
 455 01a4 03348100 		ld	s0,8(sp)
 456              		.cfi_restore 8
 457              		.cfi_def_cfa 2, 16
 458 01a8 13010101 		addi	sp,sp,16
 459              		.cfi_def_cfa_offset 0
 460 01ac 67800000 		jr	ra
 461              		.cfi_endproc
 462              	.LFE7:
 464              		.align	2
 465              		.globl	_Z10sem_signalP3sem
 467              	_Z10sem_signalP3sem:
 468              	.LFB8:
  90:src/syscall_c.cpp **** 
  91:src/syscall_c.cpp **** int sem_signal(sem_t id) {
 469              		.loc 1 91 26 is_stmt 1
 470              		.cfi_startproc
 471              	.LVL23:
 472 01b0 130101FF 		addi	sp,sp,-16
 473              		.cfi_def_cfa_offset 16
 474 01b4 23348100 		sd	s0,8(sp)
 475              		.cfi_offset 8, -8
 476 01b8 13040101 		addi	s0,sp,16
 477              		.cfi_def_cfa 8, 0
  92:src/syscall_c.cpp ****     __asm__ volatile("mv a1, %0" :: "r"(id));
 478              		.loc 1 92 5
 479              		.loc 1 92 45 is_stmt 0
 480              	#APP
 481              	# 92 "src/syscall_c.cpp" 1
  93              	    __asm__ volatile("li a0, 0x24");
 482              		mv a1, a0
 483              	# 0 "" 2
 484              		.loc 1 93 5 is_stmt 1
 485              		.loc 1 93 36 is_stmt 0
 486              	# 93 "src/syscall_c.cpp" 1
  94              	    __asm__ volatile("ecall");
 487              		li a0, 0x24
 488              	# 0 "" 2
 489              		.loc 1 94 5 is_stmt 1
 490              		.loc 1 94 30 is_stmt 0
 491              	# 94 "src/syscall_c.cpp" 1
GAS LISTING /tmp/cchBzISt.s 			page 11


  95              	
  96:src/syscall_c.cpp ****     int r;
 492              		ecall
 493              	# 0 "" 2
 494              		.loc 1 96 5 is_stmt 1
  97:src/syscall_c.cpp ****     __asm__ volatile("mv %0, a0": "=r"(r));
 495              		.loc 1 97 5
 496              		.loc 1 97 43 is_stmt 0
 497              	# 97 "src/syscall_c.cpp" 1
  98              	    return r;
 498              		mv a0, a0
 499              	# 0 "" 2
 500              	.LVL24:
 501              		.loc 1 98 5 is_stmt 1
  99:src/syscall_c.cpp **** }
 502              		.loc 1 99 1 is_stmt 0
 503              	#NO_APP
 504 01cc 1B050500 		sext.w	a0,a0
 505 01d0 03348100 		ld	s0,8(sp)
 506              		.cfi_restore 8
 507              		.cfi_def_cfa 2, 16
 508 01d4 13010101 		addi	sp,sp,16
 509              		.cfi_def_cfa_offset 0
 510 01d8 67800000 		jr	ra
 511              		.cfi_endproc
 512              	.LFE8:
 514              		.align	2
 515              		.globl	_Z11sem_trywaitP3sem
 517              	_Z11sem_trywaitP3sem:
 518              	.LFB9:
 100:src/syscall_c.cpp **** 
 101:src/syscall_c.cpp **** int sem_trywait(sem_t id) {
 519              		.loc 1 101 27 is_stmt 1
 520              		.cfi_startproc
 521              	.LVL25:
 522 01dc 130101FF 		addi	sp,sp,-16
 523              		.cfi_def_cfa_offset 16
 524 01e0 23348100 		sd	s0,8(sp)
 525              		.cfi_offset 8, -8
 526 01e4 13040101 		addi	s0,sp,16
 527              		.cfi_def_cfa 8, 0
 102:src/syscall_c.cpp **** 
 103:src/syscall_c.cpp ****     __asm__ volatile("mv a1, %0" :: "r"(id));
 528              		.loc 1 103 5
 529              		.loc 1 103 45 is_stmt 0
 530              	#APP
 531              	# 103 "src/syscall_c.cpp" 1
 104              	    __asm__ volatile("li a0, 0x26");
 532              		mv a1, a0
 533              	# 0 "" 2
 534              		.loc 1 104 5 is_stmt 1
 535              		.loc 1 104 36 is_stmt 0
 536              	# 104 "src/syscall_c.cpp" 1
 105              	    __asm__ volatile("ecall");
 537              		li a0, 0x26
 538              	# 0 "" 2
 539              		.loc 1 105 5 is_stmt 1
GAS LISTING /tmp/cchBzISt.s 			page 12


 540              		.loc 1 105 30 is_stmt 0
 541              	# 105 "src/syscall_c.cpp" 1
 106              	
 107:src/syscall_c.cpp ****     int r;
 542              		ecall
 543              	# 0 "" 2
 544              		.loc 1 107 5 is_stmt 1
 108:src/syscall_c.cpp ****     __asm__ volatile("mv %0, a0": "=r"(r));
 545              		.loc 1 108 5
 546              		.loc 1 108 43 is_stmt 0
 547              	# 108 "src/syscall_c.cpp" 1
 109              	    return r;
 548              		mv a0, a0
 549              	# 0 "" 2
 550              	.LVL26:
 551              		.loc 1 109 5 is_stmt 1
 110:src/syscall_c.cpp **** }
 552              		.loc 1 110 1 is_stmt 0
 553              	#NO_APP
 554 01f8 1B050500 		sext.w	a0,a0
 555 01fc 03348100 		ld	s0,8(sp)
 556              		.cfi_restore 8
 557              		.cfi_def_cfa 2, 16
 558 0200 13010101 		addi	sp,sp,16
 559              		.cfi_def_cfa_offset 0
 560 0204 67800000 		jr	ra
 561              		.cfi_endproc
 562              	.LFE9:
 564              		.align	2
 565              		.globl	_Z4getcv
 567              	_Z4getcv:
 568              	.LFB10:
 111:src/syscall_c.cpp **** 
 112:src/syscall_c.cpp **** char getc() {
 569              		.loc 1 112 13 is_stmt 1
 570              		.cfi_startproc
 571 0208 130101FF 		addi	sp,sp,-16
 572              		.cfi_def_cfa_offset 16
 573 020c 23341100 		sd	ra,8(sp)
 574 0210 23308100 		sd	s0,0(sp)
 575              		.cfi_offset 1, -8
 576              		.cfi_offset 8, -16
 577 0214 13040101 		addi	s0,sp,16
 578              		.cfi_def_cfa 8, 0
 113:src/syscall_c.cpp ****     return __getc();
 579              		.loc 1 113 5
 580              		.loc 1 113 18 is_stmt 0
 581 0218 97000000 		call	__getc@plt
 581      E7800000 
 582              	.LVL27:
 114:src/syscall_c.cpp **** }
 583              		.loc 1 114 1
 584 0220 83308100 		ld	ra,8(sp)
 585              		.cfi_restore 1
 586 0224 03340100 		ld	s0,0(sp)
 587              		.cfi_restore 8
 588              		.cfi_def_cfa 2, 16
GAS LISTING /tmp/cchBzISt.s 			page 13


 589 0228 13010101 		addi	sp,sp,16
 590              		.cfi_def_cfa_offset 0
 591 022c 67800000 		jr	ra
 592              		.cfi_endproc
 593              	.LFE10:
 595              		.align	2
 596              		.globl	_Z4putcc
 598              	_Z4putcc:
 599              	.LFB11:
 115:src/syscall_c.cpp **** 
 116:src/syscall_c.cpp **** void putc(char a) {
 600              		.loc 1 116 19 is_stmt 1
 601              		.cfi_startproc
 602              	.LVL28:
 603 0230 130101FF 		addi	sp,sp,-16
 604              		.cfi_def_cfa_offset 16
 605 0234 23341100 		sd	ra,8(sp)
 606 0238 23308100 		sd	s0,0(sp)
 607              		.cfi_offset 1, -8
 608              		.cfi_offset 8, -16
 609 023c 13040101 		addi	s0,sp,16
 610              		.cfi_def_cfa 8, 0
 117:src/syscall_c.cpp ****     __putc(a);
 611              		.loc 1 117 5
 612              		.loc 1 117 11 is_stmt 0
 613 0240 97000000 		call	__putc@plt
 613      E7800000 
 614              	.LVL29:
 118:src/syscall_c.cpp **** }
 615              		.loc 1 118 1
 616 0248 83308100 		ld	ra,8(sp)
 617              		.cfi_restore 1
 618 024c 03340100 		ld	s0,0(sp)
 619              		.cfi_restore 8
 620              		.cfi_def_cfa 2, 16
 621 0250 13010101 		addi	sp,sp,16
 622              		.cfi_def_cfa_offset 0
 623 0254 67800000 		jr	ra
 624              		.cfi_endproc
 625              	.LFE11:
 627              		.align	2
 628              		.globl	_Z13sem_timedwaitP3semm
 630              	_Z13sem_timedwaitP3semm:
 631              	.LFB12:
 119:src/syscall_c.cpp **** 
 120:src/syscall_c.cpp **** int sem_timedwait(sem_t id, time_t timeout) {
 632              		.loc 1 120 45 is_stmt 1
 633              		.cfi_startproc
 634              	.LVL30:
 635 0258 130101FF 		addi	sp,sp,-16
 636              		.cfi_def_cfa_offset 16
 637 025c 23348100 		sd	s0,8(sp)
 638              		.cfi_offset 8, -8
 639 0260 13040101 		addi	s0,sp,16
 640              		.cfi_def_cfa 8, 0
 121:src/syscall_c.cpp ****     return 0;
 641              		.loc 1 121 5
GAS LISTING /tmp/cchBzISt.s 			page 14


 122:src/syscall_c.cpp **** }
 642              		.loc 1 122 1 is_stmt 0
 643 0264 13050000 		li	a0,0
 644              	.LVL31:
 645 0268 03348100 		ld	s0,8(sp)
 646              		.cfi_restore 8
 647              		.cfi_def_cfa 2, 16
 648 026c 13010101 		addi	sp,sp,16
 649              		.cfi_def_cfa_offset 0
 650 0270 67800000 		jr	ra
 651              		.cfi_endproc
 652              	.LFE12:
 654              		.align	2
 655              		.globl	_Z10time_sleepm
 657              	_Z10time_sleepm:
 658              	.LFB13:
 123:src/syscall_c.cpp **** 
 124:src/syscall_c.cpp **** int time_sleep(time_t) {
 659              		.loc 1 124 24 is_stmt 1
 660              		.cfi_startproc
 661 0274 130101FF 		addi	sp,sp,-16
 662              		.cfi_def_cfa_offset 16
 663 0278 23348100 		sd	s0,8(sp)
 664              		.cfi_offset 8, -8
 665 027c 13040101 		addi	s0,sp,16
 666              		.cfi_def_cfa 8, 0
 125:src/syscall_c.cpp ****     return 0;
 667              		.loc 1 125 5
 126:src/syscall_c.cpp **** }
 668              		.loc 1 126 1 is_stmt 0
 669 0280 13050000 		li	a0,0
 670 0284 03348100 		ld	s0,8(sp)
 671              		.cfi_restore 8
 672              		.cfi_def_cfa 2, 16
 673 0288 13010101 		addi	sp,sp,16
 674              		.cfi_def_cfa_offset 0
 675 028c 67800000 		jr	ra
 676              		.cfi_endproc
 677              	.LFE13:
 679              	.Letext0:
 680              		.file 2 "src/../h/../lib/hw.h"
 681              		.file 3 "src/../h/syscall_c.hpp"
 682              		.file 4 "src/../h/../lib/console.h"
GAS LISTING /tmp/cchBzISt.s 			page 15


DEFINED SYMBOLS
                            *ABS*:0000000000000000 syscall_c.cpp
     /tmp/cchBzISt.s:9      .text:0000000000000000 _Z9mem_allocm
     /tmp/cchBzISt.s:13     .text:0000000000000000 .L0 
     /tmp/cchBzISt.s:15     .text:0000000000000000 .L0 
     /tmp/cchBzISt.s:16     .text:0000000000000004 .L0 
     /tmp/cchBzISt.s:18     .text:0000000000000008 .L0 
     /tmp/cchBzISt.s:20     .text:000000000000000c .L0 
     /tmp/cchBzISt.s:22     .text:000000000000000c .L0 
     /tmp/cchBzISt.s:24     .text:000000000000000c .L0 
     /tmp/cchBzISt.s:25     .text:000000000000000c .L0 
     /tmp/cchBzISt.s:27     .text:0000000000000010 .L0 
     /tmp/cchBzISt.s:31     .text:0000000000000014 .L0 
     /tmp/cchBzISt.s:32     .text:0000000000000014 .L0 
     /tmp/cchBzISt.s:33     .text:0000000000000014 .L0 
     /tmp/cchBzISt.s:41     .text:000000000000001c .L0 
   src/syscall_c.cpp:15     .text:000000000000001c .L0 
     /tmp/cchBzISt.s:47     .text:0000000000000020 .L0 
   src/syscall_c.cpp:16     .text:0000000000000020 .L0 
     /tmp/cchBzISt.s:52     .text:0000000000000024 .L0 
   src/syscall_c.cpp:17     .text:0000000000000024 .L0 
     /tmp/cchBzISt.s:57     .text:0000000000000028 .L0 
     /tmp/cchBzISt.s:58     .text:0000000000000028 .L0 
   src/syscall_c.cpp:19     .text:0000000000000028 .L0 
     /tmp/cchBzISt.s:64     .text:000000000000002c .L0 
     /tmp/cchBzISt.s:66     .text:000000000000002c .L0 
     /tmp/cchBzISt.s:67     .text:0000000000000030 .L0 
     /tmp/cchBzISt.s:68     .text:0000000000000030 .L0 
     /tmp/cchBzISt.s:70     .text:0000000000000034 .L0 
     /tmp/cchBzISt.s:72     .text:0000000000000038 .L0 
     /tmp/cchBzISt.s:78     .text:0000000000000038 _Z8mem_freePv
     /tmp/cchBzISt.s:81     .text:0000000000000038 .L0 
     /tmp/cchBzISt.s:83     .text:0000000000000038 .L0 
     /tmp/cchBzISt.s:84     .text:000000000000003c .L0 
     /tmp/cchBzISt.s:86     .text:0000000000000040 .L0 
     /tmp/cchBzISt.s:88     .text:0000000000000044 .L0 
     /tmp/cchBzISt.s:90     .text:0000000000000044 .L0 
   src/syscall_c.cpp:23     .text:0000000000000044 .L0 
     /tmp/cchBzISt.s:96     .text:0000000000000048 .L0 
   src/syscall_c.cpp:24     .text:0000000000000048 .L0 
     /tmp/cchBzISt.s:101    .text:000000000000004c .L0 
   src/syscall_c.cpp:25     .text:000000000000004c .L0 
     /tmp/cchBzISt.s:106    .text:0000000000000050 .L0 
     /tmp/cchBzISt.s:107    .text:0000000000000050 .L0 
   src/syscall_c.cpp:28     .text:0000000000000050 .L0 
     /tmp/cchBzISt.s:113    .text:0000000000000054 .L0 
     /tmp/cchBzISt.s:115    .text:0000000000000054 .L0 
     /tmp/cchBzISt.s:117    .text:000000000000005c .L0 
     /tmp/cchBzISt.s:118    .text:000000000000005c .L0 
     /tmp/cchBzISt.s:120    .text:0000000000000060 .L0 
     /tmp/cchBzISt.s:122    .text:0000000000000064 .L0 
     /tmp/cchBzISt.s:128    .text:0000000000000064 _Z15thread_dispatchv
     /tmp/cchBzISt.s:131    .text:0000000000000064 .L0 
     /tmp/cchBzISt.s:132    .text:0000000000000064 .L0 
     /tmp/cchBzISt.s:133    .text:0000000000000068 .L0 
     /tmp/cchBzISt.s:135    .text:000000000000006c .L0 
     /tmp/cchBzISt.s:137    .text:0000000000000070 .L0 
GAS LISTING /tmp/cchBzISt.s 			page 16


     /tmp/cchBzISt.s:139    .text:0000000000000070 .L0 
   src/syscall_c.cpp:33     .text:0000000000000070 .L0 
     /tmp/cchBzISt.s:145    .text:0000000000000074 .L0 
   src/syscall_c.cpp:34     .text:0000000000000074 .L0 
     /tmp/cchBzISt.s:151    .text:0000000000000078 .L0 
     /tmp/cchBzISt.s:152    .text:000000000000007c .L0 
     /tmp/cchBzISt.s:153    .text:000000000000007c .L0 
     /tmp/cchBzISt.s:155    .text:0000000000000080 .L0 
     /tmp/cchBzISt.s:157    .text:0000000000000084 .L0 
     /tmp/cchBzISt.s:163    .text:0000000000000084 _Z11thread_exitv
     /tmp/cchBzISt.s:166    .text:0000000000000084 .L0 
     /tmp/cchBzISt.s:167    .text:0000000000000084 .L0 
     /tmp/cchBzISt.s:168    .text:0000000000000088 .L0 
     /tmp/cchBzISt.s:170    .text:000000000000008c .L0 
     /tmp/cchBzISt.s:172    .text:0000000000000090 .L0 
     /tmp/cchBzISt.s:174    .text:0000000000000090 .L0 
   src/syscall_c.cpp:38     .text:0000000000000090 .L0 
     /tmp/cchBzISt.s:180    .text:0000000000000094 .L0 
   src/syscall_c.cpp:39     .text:0000000000000094 .L0 
     /tmp/cchBzISt.s:185    .text:0000000000000098 .L0 
     /tmp/cchBzISt.s:186    .text:0000000000000098 .L0 
   src/syscall_c.cpp:41     .text:0000000000000098 .L0 
     /tmp/cchBzISt.s:192    .text:000000000000009c .L0 
     /tmp/cchBzISt.s:194    .text:000000000000009c .L0 
     /tmp/cchBzISt.s:196    .text:00000000000000a4 .L0 
     /tmp/cchBzISt.s:197    .text:00000000000000a4 .L0 
     /tmp/cchBzISt.s:199    .text:00000000000000a8 .L0 
     /tmp/cchBzISt.s:201    .text:00000000000000ac .L0 
     /tmp/cchBzISt.s:207    .text:00000000000000ac _Z13thread_createPP3TCBPFvPvES2_
     /tmp/cchBzISt.s:210    .text:00000000000000ac .L0 
     /tmp/cchBzISt.s:212    .text:00000000000000ac .L0 
     /tmp/cchBzISt.s:213    .text:00000000000000b0 .L0 
     /tmp/cchBzISt.s:219    .text:00000000000000c4 .L0 
     /tmp/cchBzISt.s:220    .text:00000000000000c4 .L0 
     /tmp/cchBzISt.s:221    .text:00000000000000c4 .L0 
     /tmp/cchBzISt.s:222    .text:00000000000000c4 .L0 
     /tmp/cchBzISt.s:223    .text:00000000000000c4 .L0 
     /tmp/cchBzISt.s:225    .text:00000000000000c8 .L0 
     /tmp/cchBzISt.s:230    .text:00000000000000d4 .L0 
     /tmp/cchBzISt.s:231    .text:00000000000000d4 .L0 
     /tmp/cchBzISt.s:232    .text:00000000000000d4 .L0 
     /tmp/cchBzISt.s:234    .text:00000000000000d8 .L0 
     /tmp/cchBzISt.s:240    .text:00000000000000e4 .L0 
   src/syscall_c.cpp:49     .text:00000000000000e4 .L0 
     /tmp/cchBzISt.s:246    .text:00000000000000e8 .L0 
   src/syscall_c.cpp:50     .text:00000000000000e8 .L0 
     /tmp/cchBzISt.s:251    .text:00000000000000ec .L0 
   src/syscall_c.cpp:51     .text:00000000000000ec .L0 
     /tmp/cchBzISt.s:256    .text:00000000000000f0 .L0 
   src/syscall_c.cpp:52     .text:00000000000000f0 .L0 
     /tmp/cchBzISt.s:261    .text:00000000000000f4 .L0 
   src/syscall_c.cpp:53     .text:00000000000000f4 .L0 
     /tmp/cchBzISt.s:266    .text:00000000000000f8 .L0 
   src/syscall_c.cpp:54     .text:00000000000000f8 .L0 
     /tmp/cchBzISt.s:271    .text:00000000000000fc .L0 
     /tmp/cchBzISt.s:272    .text:00000000000000fc .L0 
   src/syscall_c.cpp:56     .text:00000000000000fc .L0 
GAS LISTING /tmp/cchBzISt.s 			page 17


     /tmp/cchBzISt.s:278    .text:0000000000000100 .L0 
     /tmp/cchBzISt.s:280    .text:0000000000000100 .L0 
     /tmp/cchBzISt.s:282    .text:0000000000000108 .L0 
     /tmp/cchBzISt.s:283    .text:0000000000000108 .L0 
     /tmp/cchBzISt.s:285    .text:000000000000010c .L0 
     /tmp/cchBzISt.s:286    .text:000000000000010c .L0 
     /tmp/cchBzISt.s:288    .text:0000000000000110 .L0 
     /tmp/cchBzISt.s:291    .text:0000000000000114 .L0 
     /tmp/cchBzISt.s:294    .text:0000000000000118 .L0 
     /tmp/cchBzISt.s:297    .text:000000000000011c .L0 
     /tmp/cchBzISt.s:301    .text:0000000000000120 .L0 
     /tmp/cchBzISt.s:303    .text:0000000000000120 .L0 
     /tmp/cchBzISt.s:306    .text:0000000000000128 .L0 
     /tmp/cchBzISt.s:312    .text:0000000000000128 _Z8sem_openPP3semj
     /tmp/cchBzISt.s:315    .text:0000000000000128 .L0 
     /tmp/cchBzISt.s:317    .text:0000000000000128 .L0 
     /tmp/cchBzISt.s:318    .text:000000000000012c .L0 
     /tmp/cchBzISt.s:320    .text:0000000000000130 .L0 
     /tmp/cchBzISt.s:322    .text:0000000000000134 .L0 
     /tmp/cchBzISt.s:324    .text:0000000000000134 .L0 
   src/syscall_c.cpp:61     .text:0000000000000134 .L0 
     /tmp/cchBzISt.s:330    .text:0000000000000138 .L0 
   src/syscall_c.cpp:62     .text:0000000000000138 .L0 
     /tmp/cchBzISt.s:335    .text:000000000000013c .L0 
   src/syscall_c.cpp:63     .text:000000000000013c .L0 
     /tmp/cchBzISt.s:340    .text:0000000000000140 .L0 
   src/syscall_c.cpp:64     .text:0000000000000140 .L0 
     /tmp/cchBzISt.s:345    .text:0000000000000144 .L0 
     /tmp/cchBzISt.s:346    .text:0000000000000144 .L0 
   src/syscall_c.cpp:67     .text:0000000000000144 .L0 
     /tmp/cchBzISt.s:352    .text:0000000000000148 .L0 
     /tmp/cchBzISt.s:354    .text:0000000000000148 .L0 
     /tmp/cchBzISt.s:356    .text:0000000000000150 .L0 
     /tmp/cchBzISt.s:357    .text:0000000000000150 .L0 
     /tmp/cchBzISt.s:359    .text:0000000000000154 .L0 
     /tmp/cchBzISt.s:361    .text:0000000000000158 .L0 
     /tmp/cchBzISt.s:367    .text:0000000000000158 _Z9sem_closeP3sem
     /tmp/cchBzISt.s:370    .text:0000000000000158 .L0 
     /tmp/cchBzISt.s:372    .text:0000000000000158 .L0 
     /tmp/cchBzISt.s:373    .text:000000000000015c .L0 
     /tmp/cchBzISt.s:375    .text:0000000000000160 .L0 
     /tmp/cchBzISt.s:377    .text:0000000000000164 .L0 
     /tmp/cchBzISt.s:379    .text:0000000000000164 .L0 
   src/syscall_c.cpp:73     .text:0000000000000164 .L0 
     /tmp/cchBzISt.s:385    .text:0000000000000168 .L0 
   src/syscall_c.cpp:74     .text:0000000000000168 .L0 
     /tmp/cchBzISt.s:390    .text:000000000000016c .L0 
   src/syscall_c.cpp:75     .text:000000000000016c .L0 
     /tmp/cchBzISt.s:395    .text:0000000000000170 .L0 
     /tmp/cchBzISt.s:396    .text:0000000000000170 .L0 
   src/syscall_c.cpp:77     .text:0000000000000170 .L0 
     /tmp/cchBzISt.s:402    .text:0000000000000174 .L0 
     /tmp/cchBzISt.s:404    .text:0000000000000174 .L0 
     /tmp/cchBzISt.s:406    .text:000000000000017c .L0 
     /tmp/cchBzISt.s:407    .text:000000000000017c .L0 
     /tmp/cchBzISt.s:409    .text:0000000000000180 .L0 
     /tmp/cchBzISt.s:411    .text:0000000000000184 .L0 
GAS LISTING /tmp/cchBzISt.s 			page 18


     /tmp/cchBzISt.s:417    .text:0000000000000184 _Z8sem_waitP3sem
     /tmp/cchBzISt.s:420    .text:0000000000000184 .L0 
     /tmp/cchBzISt.s:422    .text:0000000000000184 .L0 
     /tmp/cchBzISt.s:423    .text:0000000000000188 .L0 
     /tmp/cchBzISt.s:425    .text:000000000000018c .L0 
     /tmp/cchBzISt.s:427    .text:0000000000000190 .L0 
     /tmp/cchBzISt.s:429    .text:0000000000000190 .L0 
   src/syscall_c.cpp:82     .text:0000000000000190 .L0 
     /tmp/cchBzISt.s:435    .text:0000000000000194 .L0 
   src/syscall_c.cpp:83     .text:0000000000000194 .L0 
     /tmp/cchBzISt.s:440    .text:0000000000000198 .L0 
   src/syscall_c.cpp:84     .text:0000000000000198 .L0 
     /tmp/cchBzISt.s:445    .text:000000000000019c .L0 
     /tmp/cchBzISt.s:446    .text:000000000000019c .L0 
   src/syscall_c.cpp:87     .text:000000000000019c .L0 
     /tmp/cchBzISt.s:452    .text:00000000000001a0 .L0 
     /tmp/cchBzISt.s:454    .text:00000000000001a0 .L0 
     /tmp/cchBzISt.s:456    .text:00000000000001a8 .L0 
     /tmp/cchBzISt.s:457    .text:00000000000001a8 .L0 
     /tmp/cchBzISt.s:459    .text:00000000000001ac .L0 
     /tmp/cchBzISt.s:461    .text:00000000000001b0 .L0 
     /tmp/cchBzISt.s:467    .text:00000000000001b0 _Z10sem_signalP3sem
     /tmp/cchBzISt.s:470    .text:00000000000001b0 .L0 
     /tmp/cchBzISt.s:472    .text:00000000000001b0 .L0 
     /tmp/cchBzISt.s:473    .text:00000000000001b4 .L0 
     /tmp/cchBzISt.s:475    .text:00000000000001b8 .L0 
     /tmp/cchBzISt.s:477    .text:00000000000001bc .L0 
     /tmp/cchBzISt.s:479    .text:00000000000001bc .L0 
   src/syscall_c.cpp:92     .text:00000000000001bc .L0 
     /tmp/cchBzISt.s:485    .text:00000000000001c0 .L0 
   src/syscall_c.cpp:93     .text:00000000000001c0 .L0 
     /tmp/cchBzISt.s:490    .text:00000000000001c4 .L0 
   src/syscall_c.cpp:94     .text:00000000000001c4 .L0 
     /tmp/cchBzISt.s:495    .text:00000000000001c8 .L0 
     /tmp/cchBzISt.s:496    .text:00000000000001c8 .L0 
   src/syscall_c.cpp:97     .text:00000000000001c8 .L0 
     /tmp/cchBzISt.s:502    .text:00000000000001cc .L0 
     /tmp/cchBzISt.s:504    .text:00000000000001cc .L0 
     /tmp/cchBzISt.s:506    .text:00000000000001d4 .L0 
     /tmp/cchBzISt.s:507    .text:00000000000001d4 .L0 
     /tmp/cchBzISt.s:509    .text:00000000000001d8 .L0 
     /tmp/cchBzISt.s:511    .text:00000000000001dc .L0 
     /tmp/cchBzISt.s:517    .text:00000000000001dc _Z11sem_trywaitP3sem
     /tmp/cchBzISt.s:520    .text:00000000000001dc .L0 
     /tmp/cchBzISt.s:522    .text:00000000000001dc .L0 
     /tmp/cchBzISt.s:523    .text:00000000000001e0 .L0 
     /tmp/cchBzISt.s:525    .text:00000000000001e4 .L0 
     /tmp/cchBzISt.s:527    .text:00000000000001e8 .L0 
     /tmp/cchBzISt.s:529    .text:00000000000001e8 .L0 
   src/syscall_c.cpp:103    .text:00000000000001e8 .L0 
     /tmp/cchBzISt.s:535    .text:00000000000001ec .L0 
   src/syscall_c.cpp:104    .text:00000000000001ec .L0 
     /tmp/cchBzISt.s:540    .text:00000000000001f0 .L0 
   src/syscall_c.cpp:105    .text:00000000000001f0 .L0 
     /tmp/cchBzISt.s:545    .text:00000000000001f4 .L0 
     /tmp/cchBzISt.s:546    .text:00000000000001f4 .L0 
   src/syscall_c.cpp:108    .text:00000000000001f4 .L0 
GAS LISTING /tmp/cchBzISt.s 			page 19


     /tmp/cchBzISt.s:552    .text:00000000000001f8 .L0 
     /tmp/cchBzISt.s:554    .text:00000000000001f8 .L0 
     /tmp/cchBzISt.s:556    .text:0000000000000200 .L0 
     /tmp/cchBzISt.s:557    .text:0000000000000200 .L0 
     /tmp/cchBzISt.s:559    .text:0000000000000204 .L0 
     /tmp/cchBzISt.s:561    .text:0000000000000208 .L0 
     /tmp/cchBzISt.s:567    .text:0000000000000208 _Z4getcv
     /tmp/cchBzISt.s:570    .text:0000000000000208 .L0 
     /tmp/cchBzISt.s:571    .text:0000000000000208 .L0 
     /tmp/cchBzISt.s:572    .text:000000000000020c .L0 
     /tmp/cchBzISt.s:575    .text:0000000000000214 .L0 
     /tmp/cchBzISt.s:576    .text:0000000000000214 .L0 
     /tmp/cchBzISt.s:578    .text:0000000000000218 .L0 
     /tmp/cchBzISt.s:580    .text:0000000000000218 .L0 
     /tmp/cchBzISt.s:581    .text:0000000000000218 .L0 
     /tmp/cchBzISt.s:584    .text:0000000000000220 .L0 
     /tmp/cchBzISt.s:585    .text:0000000000000224 .L0 
     /tmp/cchBzISt.s:587    .text:0000000000000228 .L0 
     /tmp/cchBzISt.s:588    .text:0000000000000228 .L0 
     /tmp/cchBzISt.s:590    .text:000000000000022c .L0 
     /tmp/cchBzISt.s:592    .text:0000000000000230 .L0 
     /tmp/cchBzISt.s:598    .text:0000000000000230 _Z4putcc
     /tmp/cchBzISt.s:601    .text:0000000000000230 .L0 
     /tmp/cchBzISt.s:603    .text:0000000000000230 .L0 
     /tmp/cchBzISt.s:604    .text:0000000000000234 .L0 
     /tmp/cchBzISt.s:607    .text:000000000000023c .L0 
     /tmp/cchBzISt.s:608    .text:000000000000023c .L0 
     /tmp/cchBzISt.s:610    .text:0000000000000240 .L0 
     /tmp/cchBzISt.s:612    .text:0000000000000240 .L0 
     /tmp/cchBzISt.s:613    .text:0000000000000240 .L0 
     /tmp/cchBzISt.s:616    .text:0000000000000248 .L0 
     /tmp/cchBzISt.s:617    .text:000000000000024c .L0 
     /tmp/cchBzISt.s:619    .text:0000000000000250 .L0 
     /tmp/cchBzISt.s:620    .text:0000000000000250 .L0 
     /tmp/cchBzISt.s:622    .text:0000000000000254 .L0 
     /tmp/cchBzISt.s:624    .text:0000000000000258 .L0 
     /tmp/cchBzISt.s:630    .text:0000000000000258 _Z13sem_timedwaitP3semm
     /tmp/cchBzISt.s:633    .text:0000000000000258 .L0 
     /tmp/cchBzISt.s:635    .text:0000000000000258 .L0 
     /tmp/cchBzISt.s:636    .text:000000000000025c .L0 
     /tmp/cchBzISt.s:638    .text:0000000000000260 .L0 
     /tmp/cchBzISt.s:640    .text:0000000000000264 .L0 
     /tmp/cchBzISt.s:642    .text:0000000000000264 .L0 
     /tmp/cchBzISt.s:643    .text:0000000000000264 .L0 
     /tmp/cchBzISt.s:646    .text:000000000000026c .L0 
     /tmp/cchBzISt.s:647    .text:000000000000026c .L0 
     /tmp/cchBzISt.s:649    .text:0000000000000270 .L0 
     /tmp/cchBzISt.s:651    .text:0000000000000274 .L0 
     /tmp/cchBzISt.s:657    .text:0000000000000274 _Z10time_sleepm
     /tmp/cchBzISt.s:660    .text:0000000000000274 .L0 
     /tmp/cchBzISt.s:661    .text:0000000000000274 .L0 
     /tmp/cchBzISt.s:662    .text:0000000000000278 .L0 
     /tmp/cchBzISt.s:664    .text:000000000000027c .L0 
     /tmp/cchBzISt.s:666    .text:0000000000000280 .L0 
     /tmp/cchBzISt.s:668    .text:0000000000000280 .L0 
     /tmp/cchBzISt.s:669    .text:0000000000000280 .L0 
     /tmp/cchBzISt.s:671    .text:0000000000000288 .L0 
GAS LISTING /tmp/cchBzISt.s 			page 20


     /tmp/cchBzISt.s:672    .text:0000000000000288 .L0 
     /tmp/cchBzISt.s:674    .text:000000000000028c .L0 
     /tmp/cchBzISt.s:676    .text:0000000000000290 .L0 
     /tmp/cchBzISt.s:683    .text:0000000000000290 .L0 
     /tmp/cchBzISt.s:37     .text:000000000000001c .L2
     /tmp/cchBzISt.s:300    .text:0000000000000120 .L12
     /tmp/cchBzISt.s:238    .text:00000000000000e4 .L11
     /tmp/cchBzISt.s:1274   .debug_abbrev:0000000000000000 .Ldebug_abbrev0
     /tmp/cchBzISt.s:1953   .debug_str:000000000000003e .LASF54
     /tmp/cchBzISt.s:2059   .debug_str:00000000000003c4 .LASF55
     /tmp/cchBzISt.s:1969   .debug_str:0000000000000162 .LASF56
     /tmp/cchBzISt.s:5      .text:0000000000000000 .Ltext0
     /tmp/cchBzISt.s:679    .text:0000000000000290 .Letext0
     /tmp/cchBzISt.s:1939   .debug_line:0000000000000000 .Ldebug_line0
     /tmp/cchBzISt.s:2007   .debug_str:000000000000027e .LASF0
     /tmp/cchBzISt.s:1989   .debug_str:000000000000020c .LASF1
     /tmp/cchBzISt.s:1981   .debug_str:00000000000001dd .LASF2
     /tmp/cchBzISt.s:1959   .debug_str:0000000000000125 .LASF4
     /tmp/cchBzISt.s:1987   .debug_str:00000000000001fa .LASF3
     /tmp/cchBzISt.s:1943   .debug_str:0000000000000013 .LASF5
     /tmp/cchBzISt.s:2015   .debug_str:00000000000002a0 .LASF6
     /tmp/cchBzISt.s:1941   .debug_str:0000000000000000 .LASF7
     /tmp/cchBzISt.s:1975   .debug_str:00000000000001ad .LASF8
     /tmp/cchBzISt.s:2019   .debug_str:00000000000002b8 .LASF9
     /tmp/cchBzISt.s:1955   .debug_str:0000000000000102 .LASF10
     /tmp/cchBzISt.s:2061   .debug_str:00000000000003d6 .LASF11
     /tmp/cchBzISt.s:1979   .debug_str:00000000000001ce .LASF12
     /tmp/cchBzISt.s:2047   .debug_str:0000000000000384 .LASF13
     /tmp/cchBzISt.s:2025   .debug_str:00000000000002e7 .LASF14
     /tmp/cchBzISt.s:1993   .debug_str:0000000000000228 .LASF15
     /tmp/cchBzISt.s:1967   .debug_str:000000000000014c .LASF16
     /tmp/cchBzISt.s:2021   .debug_str:00000000000002c8 .LASF17
     /tmp/cchBzISt.s:2023   .debug_str:00000000000002de .LASF18
     /tmp/cchBzISt.s:1947   .debug_str:0000000000000021 .LASF19
     /tmp/cchBzISt.s:2011   .debug_str:0000000000000290 .LASF20
     /tmp/cchBzISt.s:2041   .debug_str:0000000000000355 .LASF22
     /tmp/cchBzISt.s:658    .text:0000000000000274 .LFB13
     /tmp/cchBzISt.s:677    .text:0000000000000290 .LFE13
     /tmp/cchBzISt.s:2031   .debug_str:0000000000000310 .LASF21
     /tmp/cchBzISt.s:1973   .debug_str:0000000000000195 .LASF23
     /tmp/cchBzISt.s:631    .text:0000000000000258 .LFB12
     /tmp/cchBzISt.s:652    .text:0000000000000274 .LFE12
     /tmp/cchBzISt.s:1702   .debug_loc:0000000000000000 .LLST15
     /tmp/cchBzISt.s:2033   .debug_str:000000000000031e .LASF24
     /tmp/cchBzISt.s:2037   .debug_str:0000000000000347 .LASF57
     /tmp/cchBzISt.s:1991   .debug_str:000000000000021f .LASF58
     /tmp/cchBzISt.s:599    .text:0000000000000230 .LFB11
     /tmp/cchBzISt.s:625    .text:0000000000000258 .LFE11
     /tmp/cchBzISt.s:1716   .debug_loc:0000000000000039 .LLST14
     /tmp/cchBzISt.s:614    .text:0000000000000248 .LVL29
     /tmp/cchBzISt.s:2013   .debug_str:000000000000029b .LASF25
     /tmp/cchBzISt.s:1983   .debug_str:00000000000001eb .LASF26
     /tmp/cchBzISt.s:2053   .debug_str:00000000000003aa .LASF27
     /tmp/cchBzISt.s:568    .text:0000000000000208 .LFB10
     /tmp/cchBzISt.s:593    .text:0000000000000230 .LFE10
     /tmp/cchBzISt.s:582    .text:0000000000000220 .LVL27
     /tmp/cchBzISt.s:2057   .debug_str:00000000000003b8 .LASF28
GAS LISTING /tmp/cchBzISt.s 			page 21


     /tmp/cchBzISt.s:1957   .debug_str:0000000000000110 .LASF29
     /tmp/cchBzISt.s:518    .text:00000000000001dc .LFB9
     /tmp/cchBzISt.s:562    .text:0000000000000208 .LFE9
     /tmp/cchBzISt.s:1730   .debug_loc:0000000000000072 .LLST13
     /tmp/cchBzISt.s:1997   .debug_str:000000000000023b .LASF30
     /tmp/cchBzISt.s:1963   .debug_str:0000000000000133 .LASF31
     /tmp/cchBzISt.s:468    .text:00000000000001b0 .LFB8
     /tmp/cchBzISt.s:512    .text:00000000000001dc .LFE8
     /tmp/cchBzISt.s:1744   .debug_loc:00000000000000ab .LLST12
     /tmp/cchBzISt.s:2003   .debug_str:0000000000000267 .LASF32
     /tmp/cchBzISt.s:2017   .debug_str:00000000000002a7 .LASF33
     /tmp/cchBzISt.s:418    .text:0000000000000184 .LFB7
     /tmp/cchBzISt.s:462    .text:00000000000001b0 .LFE7
     /tmp/cchBzISt.s:1758   .debug_loc:00000000000000e4 .LLST11
     /tmp/cchBzISt.s:1985   .debug_str:00000000000001f0 .LASF34
     /tmp/cchBzISt.s:1951   .debug_str:000000000000002c .LASF35
     /tmp/cchBzISt.s:368    .text:0000000000000158 .LFB6
     /tmp/cchBzISt.s:412    .text:0000000000000184 .LFE6
     /tmp/cchBzISt.s:1995   .debug_str:0000000000000234 .LASF36
     /tmp/cchBzISt.s:1772   .debug_loc:000000000000011d .LLST10
     /tmp/cchBzISt.s:2039   .debug_str:000000000000034c .LASF37
     /tmp/cchBzISt.s:2001   .debug_str:0000000000000254 .LASF38
     /tmp/cchBzISt.s:313    .text:0000000000000128 .LFB5
     /tmp/cchBzISt.s:362    .text:0000000000000158 .LFE5
     /tmp/cchBzISt.s:1786   .debug_loc:0000000000000156 .LLST9
     /tmp/cchBzISt.s:1965   .debug_str:0000000000000147 .LASF39
     /tmp/cchBzISt.s:2043   .debug_str:0000000000000365 .LASF40
     /tmp/cchBzISt.s:2035   .debug_str:0000000000000326 .LASF41
     /tmp/cchBzISt.s:208    .text:00000000000000ac .LFB4
     /tmp/cchBzISt.s:307    .text:0000000000000128 .LFE4
     /tmp/cchBzISt.s:1800   .debug_loc:000000000000018f .LLST4
     /tmp/cchBzISt.s:1999   .debug_str:0000000000000246 .LASF42
     /tmp/cchBzISt.s:1826   .debug_loc:0000000000000201 .LLST5
     /tmp/cchBzISt.s:1848   .debug_loc:0000000000000260 .LLST6
     /tmp/cchBzISt.s:1949   .debug_str:0000000000000027 .LASF43
     /tmp/cchBzISt.s:1870   .debug_loc:00000000000002bf .LLST7
     /tmp/cchBzISt.s:1877   .debug_loc:00000000000002e2 .LLST8
     /tmp/cchBzISt.s:237    .text:00000000000000e4 .LVL10
     /tmp/cchBzISt.s:2049   .debug_str:0000000000000394 .LASF44
     /tmp/cchBzISt.s:2045   .debug_str:0000000000000373 .LASF45
     /tmp/cchBzISt.s:164    .text:0000000000000084 .LFB3
     /tmp/cchBzISt.s:202    .text:00000000000000ac .LFE3
     /tmp/cchBzISt.s:2029   .debug_str:0000000000000300 .LASF59
     /tmp/cchBzISt.s:1971   .debug_str:0000000000000180 .LASF60
     /tmp/cchBzISt.s:129    .text:0000000000000064 .LFB2
     /tmp/cchBzISt.s:158    .text:0000000000000084 .LFE2
     /tmp/cchBzISt.s:2027   .debug_str:00000000000002f7 .LASF46
     /tmp/cchBzISt.s:1977   .debug_str:00000000000001c0 .LASF47
     /tmp/cchBzISt.s:79     .text:0000000000000038 .LFB1
     /tmp/cchBzISt.s:123    .text:0000000000000064 .LFE1
     /tmp/cchBzISt.s:1884   .debug_loc:0000000000000305 .LLST3
     /tmp/cchBzISt.s:2051   .debug_str:00000000000003a0 .LASF48
     /tmp/cchBzISt.s:2005   .debug_str:0000000000000270 .LASF49
     /tmp/cchBzISt.s:10     .text:0000000000000000 .LFB0
     /tmp/cchBzISt.s:73     .text:0000000000000038 .LFE0
     /tmp/cchBzISt.s:2055   .debug_str:00000000000003b3 .LASF50
     /tmp/cchBzISt.s:1898   .debug_loc:000000000000033e .LLST0
GAS LISTING /tmp/cchBzISt.s 			page 22


     /tmp/cchBzISt.s:2009   .debug_str:000000000000028b .LASF51
     /tmp/cchBzISt.s:1912   .debug_loc:0000000000000377 .LLST1
     /tmp/cchBzISt.s:28     .text:0000000000000014 .LBB3
     /tmp/cchBzISt.s:38     .text:000000000000001c .LBE3
     /tmp/cchBzISt.s:1919   .debug_loc:000000000000039a .LLST2
     /tmp/cchBzISt.s:1945   .debug_str:000000000000001a .LASF52
     /tmp/cchBzISt.s:1961   .debug_str:000000000000012c .LASF53
     /tmp/cchBzISt.s:634    .text:0000000000000258 .LVL30
     /tmp/cchBzISt.s:644    .text:0000000000000268 .LVL31
     /tmp/cchBzISt.s:602    .text:0000000000000230 .LVL28
     /tmp/cchBzISt.s:521    .text:00000000000001dc .LVL25
     /tmp/cchBzISt.s:550    .text:00000000000001f8 .LVL26
     /tmp/cchBzISt.s:471    .text:00000000000001b0 .LVL23
     /tmp/cchBzISt.s:500    .text:00000000000001cc .LVL24
     /tmp/cchBzISt.s:421    .text:0000000000000184 .LVL21
     /tmp/cchBzISt.s:450    .text:00000000000001a0 .LVL22
     /tmp/cchBzISt.s:371    .text:0000000000000158 .LVL19
     /tmp/cchBzISt.s:400    .text:0000000000000174 .LVL20
     /tmp/cchBzISt.s:316    .text:0000000000000128 .LVL17
     /tmp/cchBzISt.s:350    .text:0000000000000148 .LVL18
     /tmp/cchBzISt.s:211    .text:00000000000000ac .LVL8
     /tmp/cchBzISt.s:235    .text:00000000000000dc .LVL9
     /tmp/cchBzISt.s:292    .text:0000000000000114 .LVL13
     /tmp/cchBzISt.s:299    .text:0000000000000120 .LVL15
     /tmp/cchBzISt.s:304    .text:0000000000000124 .LVL16
     /tmp/cchBzISt.s:289    .text:0000000000000110 .LVL12
     /tmp/cchBzISt.s:295    .text:0000000000000118 .LVL14
     /tmp/cchBzISt.s:276    .text:0000000000000100 .LVL11
     /tmp/cchBzISt.s:82     .text:0000000000000038 .LVL5
     /tmp/cchBzISt.s:111    .text:0000000000000054 .LVL6
     /tmp/cchBzISt.s:14     .text:0000000000000000 .LVL0
     /tmp/cchBzISt.s:34     .text:0000000000000018 .LVL2
     /tmp/cchBzISt.s:36     .text:000000000000001c .LVL3
     /tmp/cchBzISt.s:62     .text:000000000000002c .LVL4
     /tmp/cchBzISt.s:30     .text:0000000000000014 .LVL1
     /tmp/cchBzISt.s:684    .debug_info:0000000000000000 .Ldebug_info0

UNDEFINED SYMBOLS
__getc
__putc
