GAS LISTING /tmp/ccek0nvw.s 			page 1


   1              		.file	"syscall_c.cpp"
   2              		.option pic
   3              		.option norelax
   4              		.text
   5              	.Ltext0:
   6              		.align	2
   7              		.globl	_Z9mem_allocm
   9              	_Z9mem_allocm:
  10              	.LFB43:
  11              		.file 1 "src/syscall_c.cpp"
   1:src/syscall_c.cpp **** //
   2:src/syscall_c.cpp **** // Created by os on 5/18/24.
   3:src/syscall_c.cpp **** //
   4:src/syscall_c.cpp **** 
   5:src/syscall_c.cpp **** #include "../h/syscall_c.hpp"
   6:src/syscall_c.cpp **** 
   7:src/syscall_c.cpp **** void* mem_alloc (size_t size){
  12              		.loc 1 7 30
  13              		.cfi_startproc
  14              	.LVL0:
  15 0000 130101FF 		addi	sp,sp,-16
  16              		.cfi_def_cfa_offset 16
  17 0004 23348100 		sd	s0,8(sp)
  18              		.cfi_offset 8, -8
  19 0008 13040101 		addi	s0,sp,16
  20              		.cfi_def_cfa 8, 0
   8:src/syscall_c.cpp ****     size_t real;
  21              		.loc 1 8 5
   9:src/syscall_c.cpp ****     if(size % MEM_BLOCK_SIZE == 0)  real = size;
  22              		.loc 1 9 5
  23              	.LBB2:
  24              		.loc 1 9 13 is_stmt 0
  25 000c 9377F503 		andi	a5,a0,63
  26              		.loc 1 9 5
  27 0010 63860700 		beqz	a5,.L2
  28              	.LBB3:
  10:src/syscall_c.cpp ****     else {
  11:src/syscall_c.cpp ****         size_t rem = size % MEM_BLOCK_SIZE;
  29              		.loc 1 11 9 is_stmt 1
  30              	.LVL1:
  12:src/syscall_c.cpp ****         real = size - rem + MEM_BLOCK_SIZE;
  31              		.loc 1 12 9
  32              		.loc 1 12 14 is_stmt 0
  33 0014 137505FC 		andi	a0,a0,-64
  34              	.LVL2:
  35 0018 13050504 		addi	a0,a0,64
  36              	.LVL3:
  37              	.L2:
  38              	.LBE3:
  39              	.LBE2:
  13:src/syscall_c.cpp ****     }
  14:src/syscall_c.cpp **** 
  15:src/syscall_c.cpp ****     __asm__ volatile("mv a1, %0" :: "r"(real));
  40              		.loc 1 15 5 is_stmt 1
  41              		.loc 1 15 47 is_stmt 0
  42              	#APP
  43              	# 15 "src/syscall_c.cpp" 1
GAS LISTING /tmp/ccek0nvw.s 			page 2


  16              	    __asm__ volatile("li a0, 0x01");
  44              		mv a1, a0
  45              	# 0 "" 2
  46              		.loc 1 16 5 is_stmt 1
  47              		.loc 1 16 36 is_stmt 0
  48              	# 16 "src/syscall_c.cpp" 1
  17              	    __asm__ volatile("ecall");
  49              		li a0, 0x01
  50              	# 0 "" 2
  51              		.loc 1 17 5 is_stmt 1
  52              		.loc 1 17 30 is_stmt 0
  53              	# 17 "src/syscall_c.cpp" 1
  18              	    void* r;
  54              		ecall
  55              	# 0 "" 2
  56              		.loc 1 18 5 is_stmt 1
  19:src/syscall_c.cpp ****     __asm__ volatile("mv %0,a0":"=r"(r));
  57              		.loc 1 19 5
  58              		.loc 1 19 41 is_stmt 0
  59              	# 19 "src/syscall_c.cpp" 1
  20              	    return  r;
  60              		mv a0,a0
  61              	# 0 "" 2
  62              	.LVL4:
  63              		.loc 1 20 5 is_stmt 1
  21:src/syscall_c.cpp **** }
  64              		.loc 1 21 1 is_stmt 0
  65              	#NO_APP
  66 002c 03348100 		ld	s0,8(sp)
  67              		.cfi_restore 8
  68              		.cfi_def_cfa 2, 16
  69 0030 13010101 		addi	sp,sp,16
  70              		.cfi_def_cfa_offset 0
  71 0034 67800000 		jr	ra
  72              		.cfi_endproc
  73              	.LFE43:
  75              		.align	2
  76              		.globl	_Z8mem_freePv
  78              	_Z8mem_freePv:
  79              	.LFB44:
  22:src/syscall_c.cpp **** int mem_free (void* p){
  80              		.loc 1 22 23 is_stmt 1
  81              		.cfi_startproc
  82              	.LVL5:
  83 0038 130101FF 		addi	sp,sp,-16
  84              		.cfi_def_cfa_offset 16
  85 003c 23348100 		sd	s0,8(sp)
  86              		.cfi_offset 8, -8
  87 0040 13040101 		addi	s0,sp,16
  88              		.cfi_def_cfa 8, 0
  23:src/syscall_c.cpp ****     __asm__ volatile("mv a1, %0":: "r"(p));
  89              		.loc 1 23 5
  90              		.loc 1 23 43 is_stmt 0
  91              	#APP
  92              	# 23 "src/syscall_c.cpp" 1
  24              	    __asm__ volatile("li a0, 0x02");
  93              		mv a1, a0
GAS LISTING /tmp/ccek0nvw.s 			page 3


  94              	# 0 "" 2
  95              		.loc 1 24 5 is_stmt 1
  96              		.loc 1 24 36 is_stmt 0
  97              	# 24 "src/syscall_c.cpp" 1
  25              	    __asm__ volatile("ecall");
  98              		li a0, 0x02
  99              	# 0 "" 2
 100              		.loc 1 25 5 is_stmt 1
 101              		.loc 1 25 30 is_stmt 0
 102              	# 25 "src/syscall_c.cpp" 1
  26              	
  27:src/syscall_c.cpp ****     int r;
 103              		ecall
 104              	# 0 "" 2
 105              		.loc 1 27 5 is_stmt 1
  28:src/syscall_c.cpp ****     __asm__ volatile("mv %0, a0": "=r"(r));
 106              		.loc 1 28 5
 107              		.loc 1 28 43 is_stmt 0
 108              	# 28 "src/syscall_c.cpp" 1
  29              	    return r;
 109              		mv a0, a0
 110              	# 0 "" 2
 111              	.LVL6:
 112              		.loc 1 29 5 is_stmt 1
  30:src/syscall_c.cpp **** }
 113              		.loc 1 30 1 is_stmt 0
 114              	#NO_APP
 115 0054 1B050500 		sext.w	a0,a0
 116 0058 03348100 		ld	s0,8(sp)
 117              		.cfi_restore 8
 118              		.cfi_def_cfa 2, 16
 119 005c 13010101 		addi	sp,sp,16
 120              		.cfi_def_cfa_offset 0
 121 0060 67800000 		jr	ra
 122              		.cfi_endproc
 123              	.LFE44:
 125              		.align	2
 126              		.globl	_Z15thread_dispatchv
 128              	_Z15thread_dispatchv:
 129              	.LFB45:
  31:src/syscall_c.cpp **** 
  32:src/syscall_c.cpp **** void thread_dispatch() {
 130              		.loc 1 32 24 is_stmt 1
 131              		.cfi_startproc
 132 0064 130101FF 		addi	sp,sp,-16
 133              		.cfi_def_cfa_offset 16
 134 0068 23348100 		sd	s0,8(sp)
 135              		.cfi_offset 8, -8
 136 006c 13040101 		addi	s0,sp,16
 137              		.cfi_def_cfa 8, 0
  33:src/syscall_c.cpp ****     __asm__ volatile("li a0, 0x13");
 138              		.loc 1 33 5
 139              		.loc 1 33 36 is_stmt 0
 140              	#APP
 141              	# 33 "src/syscall_c.cpp" 1
  34              	    __asm__ volatile("ecall");
 142              		li a0, 0x13
GAS LISTING /tmp/ccek0nvw.s 			page 4


 143              	# 0 "" 2
 144              		.loc 1 34 5 is_stmt 1
 145              		.loc 1 34 30 is_stmt 0
 146              	# 34 "src/syscall_c.cpp" 1
  35              	}
 147              		ecall
 148              	# 0 "" 2
 149              		.loc 1 35 1
 150              	#NO_APP
 151 0078 03348100 		ld	s0,8(sp)
 152              		.cfi_restore 8
 153              		.cfi_def_cfa 2, 16
 154 007c 13010101 		addi	sp,sp,16
 155              		.cfi_def_cfa_offset 0
 156 0080 67800000 		jr	ra
 157              		.cfi_endproc
 158              	.LFE45:
 160              		.align	2
 161              		.globl	_Z11thread_exitv
 163              	_Z11thread_exitv:
 164              	.LFB46:
  36:src/syscall_c.cpp **** 
  37:src/syscall_c.cpp **** int thread_exit() {
 165              		.loc 1 37 19 is_stmt 1
 166              		.cfi_startproc
 167 0084 130101FF 		addi	sp,sp,-16
 168              		.cfi_def_cfa_offset 16
 169 0088 23348100 		sd	s0,8(sp)
 170              		.cfi_offset 8, -8
 171 008c 13040101 		addi	s0,sp,16
 172              		.cfi_def_cfa 8, 0
  38:src/syscall_c.cpp ****     __asm__ volatile("li a0, 0x12");
 173              		.loc 1 38 5
 174              		.loc 1 38 36 is_stmt 0
 175              	#APP
 176              	# 38 "src/syscall_c.cpp" 1
  39              	    __asm__ volatile("ecall");
 177              		li a0, 0x12
 178              	# 0 "" 2
 179              		.loc 1 39 5 is_stmt 1
 180              		.loc 1 39 30 is_stmt 0
 181              	# 39 "src/syscall_c.cpp" 1
  40              	    int r;
 182              		ecall
 183              	# 0 "" 2
 184              		.loc 1 40 5 is_stmt 1
  41:src/syscall_c.cpp ****     __asm__ volatile("mv %0, a0": "=r"(r));
 185              		.loc 1 41 5
 186              		.loc 1 41 43 is_stmt 0
 187              	# 41 "src/syscall_c.cpp" 1
  42              	    return r;
 188              		mv a0, a0
 189              	# 0 "" 2
 190              	.LVL7:
 191              		.loc 1 42 5 is_stmt 1
  43:src/syscall_c.cpp **** }
 192              		.loc 1 43 1 is_stmt 0
GAS LISTING /tmp/ccek0nvw.s 			page 5


 193              	#NO_APP
 194 009c 1B050500 		sext.w	a0,a0
 195 00a0 03348100 		ld	s0,8(sp)
 196              		.cfi_restore 8
 197              		.cfi_def_cfa 2, 16
 198 00a4 13010101 		addi	sp,sp,16
 199              		.cfi_def_cfa_offset 0
 200 00a8 67800000 		jr	ra
 201              		.cfi_endproc
 202              	.LFE46:
 204              		.align	2
 205              		.globl	_Z13thread_createPP3TCBPFvPvES2_
 207              	_Z13thread_createPP3TCBPFvPvES2_:
 208              	.LFB47:
  44:src/syscall_c.cpp **** 
  45:src/syscall_c.cpp **** int thread_create(thread_t *handle, void (*start_routine)(void *), void *arg) {
 209              		.loc 1 45 79 is_stmt 1
 210              		.cfi_startproc
 211              	.LVL8:
 212 00ac 130101FD 		addi	sp,sp,-48
 213              		.cfi_def_cfa_offset 48
 214 00b0 23341102 		sd	ra,40(sp)
 215 00b4 23308102 		sd	s0,32(sp)
 216 00b8 233C9100 		sd	s1,24(sp)
 217 00bc 23382101 		sd	s2,16(sp)
 218 00c0 23343101 		sd	s3,8(sp)
 219              		.cfi_offset 1, -8
 220              		.cfi_offset 8, -16
 221              		.cfi_offset 9, -24
 222              		.cfi_offset 18, -32
 223              		.cfi_offset 19, -40
 224 00c4 13040103 		addi	s0,sp,48
 225              		.cfi_def_cfa 8, 0
 226 00c8 13090500 		mv	s2,a0
 227 00cc 93840500 		mv	s1,a1
 228 00d0 93090600 		mv	s3,a2
  46:src/syscall_c.cpp **** 
  47:src/syscall_c.cpp ****     void* stek;
 229              		.loc 1 47 5
  48:src/syscall_c.cpp ****     stek = start_routine != nullptr ? mem_alloc(DEFAULT_STACK_SIZE) : nullptr;
 230              		.loc 1 48 5
 231              		.loc 1 48 37 is_stmt 0
 232 00d4 63860504 		beqz	a1,.L12
 233              		.loc 1 48 48 discriminator 1
 234 00d8 37150000 		li	a0,4096
 235              	.LVL9:
 236 00dc 97000000 		call	_Z9mem_allocm
 236      E7800000 
 237              	.LVL10:
 238              	.L11:
  49:src/syscall_c.cpp ****     __asm__ volatile("mv a4, %0" :: "r"(stek));
 239              		.loc 1 49 5 is_stmt 1 discriminator 4
 240              		.loc 1 49 47 is_stmt 0 discriminator 4
 241              	#APP
 242              	# 49 "src/syscall_c.cpp" 1
  50              	    __asm__ volatile("mv a3, %0" :: "r"(arg));
 243              		mv a4, a0
GAS LISTING /tmp/ccek0nvw.s 			page 6


 244              	# 0 "" 2
 245              		.loc 1 50 5 is_stmt 1 discriminator 4
 246              		.loc 1 50 46 is_stmt 0 discriminator 4
 247              	# 50 "src/syscall_c.cpp" 1
  51              	    __asm__ volatile("mv a2, %0" :: "r"(start_routine));
 248              		mv a3, s3
 249              	# 0 "" 2
 250              		.loc 1 51 5 is_stmt 1 discriminator 4
 251              		.loc 1 51 56 is_stmt 0 discriminator 4
 252              	# 51 "src/syscall_c.cpp" 1
  52              	    __asm__ volatile("mv a1, %0" :: "r"(handle));
 253              		mv a2, s1
 254              	# 0 "" 2
 255              		.loc 1 52 5 is_stmt 1 discriminator 4
 256              		.loc 1 52 49 is_stmt 0 discriminator 4
 257              	# 52 "src/syscall_c.cpp" 1
  53              	    __asm__ volatile("li a0, 0x11");
 258              		mv a1, s2
 259              	# 0 "" 2
 260              		.loc 1 53 5 is_stmt 1 discriminator 4
 261              		.loc 1 53 36 is_stmt 0 discriminator 4
 262              	# 53 "src/syscall_c.cpp" 1
  54              	    __asm__ volatile("ecall");
 263              		li a0, 0x11
 264              	# 0 "" 2
 265              		.loc 1 54 5 is_stmt 1 discriminator 4
 266              		.loc 1 54 30 is_stmt 0 discriminator 4
 267              	# 54 "src/syscall_c.cpp" 1
  55              	    int r;
 268              		ecall
 269              	# 0 "" 2
 270              		.loc 1 55 5 is_stmt 1 discriminator 4
  56:src/syscall_c.cpp ****     __asm__ volatile("mv %0, a0": "=r"(r));
 271              		.loc 1 56 5 discriminator 4
 272              		.loc 1 56 43 is_stmt 0 discriminator 4
 273              	# 56 "src/syscall_c.cpp" 1
  57              	    return r;
 274              		mv a0, a0
 275              	# 0 "" 2
 276              	.LVL11:
 277              		.loc 1 57 5 is_stmt 1 discriminator 4
  58:src/syscall_c.cpp **** }
 278              		.loc 1 58 1 is_stmt 0 discriminator 4
 279              	#NO_APP
 280 0100 1B050500 		sext.w	a0,a0
 281 0104 83308102 		ld	ra,40(sp)
 282              		.cfi_remember_state
 283              		.cfi_restore 1
 284 0108 03340102 		ld	s0,32(sp)
 285              		.cfi_restore 8
 286              		.cfi_def_cfa 2, 48
 287 010c 83348101 		ld	s1,24(sp)
 288              		.cfi_restore 9
 289              	.LVL12:
 290 0110 03390101 		ld	s2,16(sp)
 291              		.cfi_restore 18
 292              	.LVL13:
GAS LISTING /tmp/ccek0nvw.s 			page 7


 293 0114 83398100 		ld	s3,8(sp)
 294              		.cfi_restore 19
 295              	.LVL14:
 296 0118 13010103 		addi	sp,sp,48
 297              		.cfi_def_cfa_offset 0
 298 011c 67800000 		jr	ra
 299              	.LVL15:
 300              	.L12:
 301              		.cfi_restore_state
  48:src/syscall_c.cpp ****     __asm__ volatile("mv a4, %0" :: "r"(stek));
 302              		.loc 1 48 37
 303 0120 13050000 		li	a0,0
 304              	.LVL16:
 305 0124 6FF01FFC 		j	.L11
 306              		.cfi_endproc
 307              	.LFE47:
 309              		.align	2
 310              		.globl	_Z8sem_openPP3semj
 312              	_Z8sem_openPP3semj:
 313              	.LFB48:
  59:src/syscall_c.cpp **** 
  60:src/syscall_c.cpp **** int sem_open(sem_t *handle, unsigned int init) {
 314              		.loc 1 60 48 is_stmt 1
 315              		.cfi_startproc
 316              	.LVL17:
 317 0128 130101FF 		addi	sp,sp,-16
 318              		.cfi_def_cfa_offset 16
 319 012c 23348100 		sd	s0,8(sp)
 320              		.cfi_offset 8, -8
 321 0130 13040101 		addi	s0,sp,16
 322              		.cfi_def_cfa 8, 0
  61:src/syscall_c.cpp ****     __asm__ volatile("mv a2, %0" :: "r"(init));
 323              		.loc 1 61 5
 324              		.loc 1 61 47 is_stmt 0
 325              	#APP
 326              	# 61 "src/syscall_c.cpp" 1
  62              	    __asm__ volatile("mv a1, %0" :: "r"(handle));
 327              		mv a2, a1
 328              	# 0 "" 2
 329              		.loc 1 62 5 is_stmt 1
 330              		.loc 1 62 49 is_stmt 0
 331              	# 62 "src/syscall_c.cpp" 1
  63              	    __asm__ volatile("li a0, 0x21");
 332              		mv a1, a0
 333              	# 0 "" 2
 334              		.loc 1 63 5 is_stmt 1
 335              		.loc 1 63 36 is_stmt 0
 336              	# 63 "src/syscall_c.cpp" 1
  64              	    __asm__ volatile("ecall");
 337              		li a0, 0x21
 338              	# 0 "" 2
 339              		.loc 1 64 5 is_stmt 1
 340              		.loc 1 64 30 is_stmt 0
 341              	# 64 "src/syscall_c.cpp" 1
  65              	
  66:src/syscall_c.cpp ****     int r;
 342              		ecall
GAS LISTING /tmp/ccek0nvw.s 			page 8


 343              	# 0 "" 2
 344              		.loc 1 66 5 is_stmt 1
  67:src/syscall_c.cpp ****     __asm__ volatile("mv %0, a0": "=r"(r));
 345              		.loc 1 67 5
 346              		.loc 1 67 43 is_stmt 0
 347              	# 67 "src/syscall_c.cpp" 1
  68              	    return (int)r;
 348              		mv a0, a0
 349              	# 0 "" 2
 350              	.LVL18:
 351              		.loc 1 68 5 is_stmt 1
  69:src/syscall_c.cpp **** }
 352              		.loc 1 69 1 is_stmt 0
 353              	#NO_APP
 354 0148 1B050500 		sext.w	a0,a0
 355 014c 03348100 		ld	s0,8(sp)
 356              		.cfi_restore 8
 357              		.cfi_def_cfa 2, 16
 358 0150 13010101 		addi	sp,sp,16
 359              		.cfi_def_cfa_offset 0
 360 0154 67800000 		jr	ra
 361              		.cfi_endproc
 362              	.LFE48:
 364              		.align	2
 365              		.globl	_Z9sem_closeP3sem
 367              	_Z9sem_closeP3sem:
 368              	.LFB49:
  70:src/syscall_c.cpp **** 
  71:src/syscall_c.cpp **** int sem_close(sem_t handle) {
 369              		.loc 1 71 29 is_stmt 1
 370              		.cfi_startproc
 371              	.LVL19:
 372 0158 130101FF 		addi	sp,sp,-16
 373              		.cfi_def_cfa_offset 16
 374 015c 23348100 		sd	s0,8(sp)
 375              		.cfi_offset 8, -8
 376 0160 13040101 		addi	s0,sp,16
 377              		.cfi_def_cfa 8, 0
  72:src/syscall_c.cpp **** 
  73:src/syscall_c.cpp ****     __asm__ volatile("mv a1, %0" :: "r"(handle));
 378              		.loc 1 73 5
 379              		.loc 1 73 49 is_stmt 0
 380              	#APP
 381              	# 73 "src/syscall_c.cpp" 1
  74              	    __asm__ volatile("li a0, 0x22");
 382              		mv a1, a0
 383              	# 0 "" 2
 384              		.loc 1 74 5 is_stmt 1
 385              		.loc 1 74 36 is_stmt 0
 386              	# 74 "src/syscall_c.cpp" 1
  75              	    __asm__ volatile("ecall");
 387              		li a0, 0x22
 388              	# 0 "" 2
 389              		.loc 1 75 5 is_stmt 1
 390              		.loc 1 75 30 is_stmt 0
 391              	# 75 "src/syscall_c.cpp" 1
  76              	
GAS LISTING /tmp/ccek0nvw.s 			page 9


  77:src/syscall_c.cpp ****     int r;
 392              		ecall
 393              	# 0 "" 2
 394              		.loc 1 77 5 is_stmt 1
  78:src/syscall_c.cpp ****     __asm__ volatile("mv %0, a0": "=r"(r));
 395              		.loc 1 78 5
 396              		.loc 1 78 43 is_stmt 0
 397              	# 78 "src/syscall_c.cpp" 1
  79              	    return r;
 398              		mv a0, a0
 399              	# 0 "" 2
 400              	.LVL20:
 401              		.loc 1 79 5 is_stmt 1
  80:src/syscall_c.cpp **** }
 402              		.loc 1 80 1 is_stmt 0
 403              	#NO_APP
 404 0174 1B050500 		sext.w	a0,a0
 405 0178 03348100 		ld	s0,8(sp)
 406              		.cfi_restore 8
 407              		.cfi_def_cfa 2, 16
 408 017c 13010101 		addi	sp,sp,16
 409              		.cfi_def_cfa_offset 0
 410 0180 67800000 		jr	ra
 411              		.cfi_endproc
 412              	.LFE49:
 414              		.align	2
 415              		.globl	_Z8sem_waitP3sem
 417              	_Z8sem_waitP3sem:
 418              	.LFB50:
  81:src/syscall_c.cpp **** 
  82:src/syscall_c.cpp **** int sem_wait(sem_t id) {
 419              		.loc 1 82 24 is_stmt 1
 420              		.cfi_startproc
 421              	.LVL21:
 422 0184 130101FF 		addi	sp,sp,-16
 423              		.cfi_def_cfa_offset 16
 424 0188 23348100 		sd	s0,8(sp)
 425              		.cfi_offset 8, -8
 426 018c 13040101 		addi	s0,sp,16
 427              		.cfi_def_cfa 8, 0
  83:src/syscall_c.cpp ****     __asm__ volatile("mv a1, %0" :: "r"(id));
 428              		.loc 1 83 5
 429              		.loc 1 83 45 is_stmt 0
 430              	#APP
 431              	# 83 "src/syscall_c.cpp" 1
  84              	    __asm__ volatile("li a0, 0x23");
 432              		mv a1, a0
 433              	# 0 "" 2
 434              		.loc 1 84 5 is_stmt 1
 435              		.loc 1 84 36 is_stmt 0
 436              	# 84 "src/syscall_c.cpp" 1
  85              	    __asm__ volatile("ecall");
 437              		li a0, 0x23
 438              	# 0 "" 2
 439              		.loc 1 85 5 is_stmt 1
 440              		.loc 1 85 30 is_stmt 0
 441              	# 85 "src/syscall_c.cpp" 1
GAS LISTING /tmp/ccek0nvw.s 			page 10


  86              	
  87:src/syscall_c.cpp ****     int r;
 442              		ecall
 443              	# 0 "" 2
 444              		.loc 1 87 5 is_stmt 1
  88:src/syscall_c.cpp ****     __asm__ volatile("mv %0, a0": "=r"(r));
 445              		.loc 1 88 5
 446              		.loc 1 88 43 is_stmt 0
 447              	# 88 "src/syscall_c.cpp" 1
  89              	    return r;
 448              		mv a0, a0
 449              	# 0 "" 2
 450              	.LVL22:
 451              		.loc 1 89 5 is_stmt 1
  90:src/syscall_c.cpp **** }
 452              		.loc 1 90 1 is_stmt 0
 453              	#NO_APP
 454 01a0 1B050500 		sext.w	a0,a0
 455 01a4 03348100 		ld	s0,8(sp)
 456              		.cfi_restore 8
 457              		.cfi_def_cfa 2, 16
 458 01a8 13010101 		addi	sp,sp,16
 459              		.cfi_def_cfa_offset 0
 460 01ac 67800000 		jr	ra
 461              		.cfi_endproc
 462              	.LFE50:
 464              		.align	2
 465              		.globl	_Z10sem_signalP3sem
 467              	_Z10sem_signalP3sem:
 468              	.LFB51:
  91:src/syscall_c.cpp **** 
  92:src/syscall_c.cpp **** int sem_signal(sem_t id) {
 469              		.loc 1 92 26 is_stmt 1
 470              		.cfi_startproc
 471              	.LVL23:
 472 01b0 130101FF 		addi	sp,sp,-16
 473              		.cfi_def_cfa_offset 16
 474 01b4 23348100 		sd	s0,8(sp)
 475              		.cfi_offset 8, -8
 476 01b8 13040101 		addi	s0,sp,16
 477              		.cfi_def_cfa 8, 0
  93:src/syscall_c.cpp ****     __asm__ volatile("mv a1, %0" :: "r"(id));
 478              		.loc 1 93 5
 479              		.loc 1 93 45 is_stmt 0
 480              	#APP
 481              	# 93 "src/syscall_c.cpp" 1
  94              	    __asm__ volatile("li a0, 0x24");
 482              		mv a1, a0
 483              	# 0 "" 2
 484              		.loc 1 94 5 is_stmt 1
 485              		.loc 1 94 36 is_stmt 0
 486              	# 94 "src/syscall_c.cpp" 1
  95              	    __asm__ volatile("ecall");
 487              		li a0, 0x24
 488              	# 0 "" 2
 489              		.loc 1 95 5 is_stmt 1
 490              		.loc 1 95 30 is_stmt 0
GAS LISTING /tmp/ccek0nvw.s 			page 11


 491              	# 95 "src/syscall_c.cpp" 1
  96              	
  97:src/syscall_c.cpp ****     int r;
 492              		ecall
 493              	# 0 "" 2
 494              		.loc 1 97 5 is_stmt 1
  98:src/syscall_c.cpp ****     __asm__ volatile("mv %0, a0": "=r"(r));
 495              		.loc 1 98 5
 496              		.loc 1 98 43 is_stmt 0
 497              	# 98 "src/syscall_c.cpp" 1
  99              	    return r;
 498              		mv a0, a0
 499              	# 0 "" 2
 500              	.LVL24:
 501              		.loc 1 99 5 is_stmt 1
 100:src/syscall_c.cpp **** }
 502              		.loc 1 100 1 is_stmt 0
 503              	#NO_APP
 504 01cc 1B050500 		sext.w	a0,a0
 505 01d0 03348100 		ld	s0,8(sp)
 506              		.cfi_restore 8
 507              		.cfi_def_cfa 2, 16
 508 01d4 13010101 		addi	sp,sp,16
 509              		.cfi_def_cfa_offset 0
 510 01d8 67800000 		jr	ra
 511              		.cfi_endproc
 512              	.LFE51:
 514              		.align	2
 515              		.globl	_Z11sem_trywaitP3sem
 517              	_Z11sem_trywaitP3sem:
 518              	.LFB52:
 101:src/syscall_c.cpp **** 
 102:src/syscall_c.cpp **** int sem_trywait(sem_t id) {
 519              		.loc 1 102 27 is_stmt 1
 520              		.cfi_startproc
 521              	.LVL25:
 522 01dc 130101FF 		addi	sp,sp,-16
 523              		.cfi_def_cfa_offset 16
 524 01e0 23348100 		sd	s0,8(sp)
 525              		.cfi_offset 8, -8
 526 01e4 13040101 		addi	s0,sp,16
 527              		.cfi_def_cfa 8, 0
 103:src/syscall_c.cpp **** 
 104:src/syscall_c.cpp ****     __asm__ volatile("mv a1, %0" :: "r"(id));
 528              		.loc 1 104 5
 529              		.loc 1 104 45 is_stmt 0
 530              	#APP
 531              	# 104 "src/syscall_c.cpp" 1
 105              	    __asm__ volatile("li a0, 0x26");
 532              		mv a1, a0
 533              	# 0 "" 2
 534              		.loc 1 105 5 is_stmt 1
 535              		.loc 1 105 36 is_stmt 0
 536              	# 105 "src/syscall_c.cpp" 1
 106              	    __asm__ volatile("ecall");
 537              		li a0, 0x26
 538              	# 0 "" 2
GAS LISTING /tmp/ccek0nvw.s 			page 12


 539              		.loc 1 106 5 is_stmt 1
 540              		.loc 1 106 30 is_stmt 0
 541              	# 106 "src/syscall_c.cpp" 1
 107              	
 108:src/syscall_c.cpp ****     int r;
 542              		ecall
 543              	# 0 "" 2
 544              		.loc 1 108 5 is_stmt 1
 109:src/syscall_c.cpp ****     __asm__ volatile("mv %0, a0": "=r"(r));
 545              		.loc 1 109 5
 546              		.loc 1 109 43 is_stmt 0
 547              	# 109 "src/syscall_c.cpp" 1
 110              	    return r;
 548              		mv a0, a0
 549              	# 0 "" 2
 550              	.LVL26:
 551              		.loc 1 110 5 is_stmt 1
 111:src/syscall_c.cpp **** }
 552              		.loc 1 111 1 is_stmt 0
 553              	#NO_APP
 554 01f8 1B050500 		sext.w	a0,a0
 555 01fc 03348100 		ld	s0,8(sp)
 556              		.cfi_restore 8
 557              		.cfi_def_cfa 2, 16
 558 0200 13010101 		addi	sp,sp,16
 559              		.cfi_def_cfa_offset 0
 560 0204 67800000 		jr	ra
 561              		.cfi_endproc
 562              	.LFE52:
 564              	.Letext0:
 565              		.file 2 "src/../h/../lib/hw.h"
 566              		.file 3 "src/../h/list.hpp"
 567              		.file 4 "src/../h/tcb.hpp"
 568              		.file 5 "src/../h/semaphore.hpp"
 569              		.file 6 "src/../h/syscall_c.hpp"
GAS LISTING /tmp/ccek0nvw.s 			page 13


DEFINED SYMBOLS
                            *ABS*:0000000000000000 syscall_c.cpp
     /tmp/ccek0nvw.s:9      .text:0000000000000000 _Z9mem_allocm
     /tmp/ccek0nvw.s:13     .text:0000000000000000 .L0 
     /tmp/ccek0nvw.s:15     .text:0000000000000000 .L0 
     /tmp/ccek0nvw.s:16     .text:0000000000000004 .L0 
     /tmp/ccek0nvw.s:18     .text:0000000000000008 .L0 
     /tmp/ccek0nvw.s:20     .text:000000000000000c .L0 
     /tmp/ccek0nvw.s:22     .text:000000000000000c .L0 
     /tmp/ccek0nvw.s:24     .text:000000000000000c .L0 
     /tmp/ccek0nvw.s:25     .text:000000000000000c .L0 
     /tmp/ccek0nvw.s:27     .text:0000000000000010 .L0 
     /tmp/ccek0nvw.s:31     .text:0000000000000014 .L0 
     /tmp/ccek0nvw.s:32     .text:0000000000000014 .L0 
     /tmp/ccek0nvw.s:33     .text:0000000000000014 .L0 
     /tmp/ccek0nvw.s:41     .text:000000000000001c .L0 
   src/syscall_c.cpp:15     .text:000000000000001c .L0 
     /tmp/ccek0nvw.s:47     .text:0000000000000020 .L0 
   src/syscall_c.cpp:16     .text:0000000000000020 .L0 
     /tmp/ccek0nvw.s:52     .text:0000000000000024 .L0 
   src/syscall_c.cpp:17     .text:0000000000000024 .L0 
     /tmp/ccek0nvw.s:57     .text:0000000000000028 .L0 
     /tmp/ccek0nvw.s:58     .text:0000000000000028 .L0 
   src/syscall_c.cpp:19     .text:0000000000000028 .L0 
     /tmp/ccek0nvw.s:64     .text:000000000000002c .L0 
     /tmp/ccek0nvw.s:66     .text:000000000000002c .L0 
     /tmp/ccek0nvw.s:67     .text:0000000000000030 .L0 
     /tmp/ccek0nvw.s:68     .text:0000000000000030 .L0 
     /tmp/ccek0nvw.s:70     .text:0000000000000034 .L0 
     /tmp/ccek0nvw.s:72     .text:0000000000000038 .L0 
     /tmp/ccek0nvw.s:78     .text:0000000000000038 _Z8mem_freePv
     /tmp/ccek0nvw.s:81     .text:0000000000000038 .L0 
     /tmp/ccek0nvw.s:83     .text:0000000000000038 .L0 
     /tmp/ccek0nvw.s:84     .text:000000000000003c .L0 
     /tmp/ccek0nvw.s:86     .text:0000000000000040 .L0 
     /tmp/ccek0nvw.s:88     .text:0000000000000044 .L0 
     /tmp/ccek0nvw.s:90     .text:0000000000000044 .L0 
   src/syscall_c.cpp:23     .text:0000000000000044 .L0 
     /tmp/ccek0nvw.s:96     .text:0000000000000048 .L0 
   src/syscall_c.cpp:24     .text:0000000000000048 .L0 
     /tmp/ccek0nvw.s:101    .text:000000000000004c .L0 
   src/syscall_c.cpp:25     .text:000000000000004c .L0 
     /tmp/ccek0nvw.s:106    .text:0000000000000050 .L0 
     /tmp/ccek0nvw.s:107    .text:0000000000000050 .L0 
   src/syscall_c.cpp:28     .text:0000000000000050 .L0 
     /tmp/ccek0nvw.s:113    .text:0000000000000054 .L0 
     /tmp/ccek0nvw.s:115    .text:0000000000000054 .L0 
     /tmp/ccek0nvw.s:117    .text:000000000000005c .L0 
     /tmp/ccek0nvw.s:118    .text:000000000000005c .L0 
     /tmp/ccek0nvw.s:120    .text:0000000000000060 .L0 
     /tmp/ccek0nvw.s:122    .text:0000000000000064 .L0 
     /tmp/ccek0nvw.s:128    .text:0000000000000064 _Z15thread_dispatchv
     /tmp/ccek0nvw.s:131    .text:0000000000000064 .L0 
     /tmp/ccek0nvw.s:132    .text:0000000000000064 .L0 
     /tmp/ccek0nvw.s:133    .text:0000000000000068 .L0 
     /tmp/ccek0nvw.s:135    .text:000000000000006c .L0 
     /tmp/ccek0nvw.s:137    .text:0000000000000070 .L0 
GAS LISTING /tmp/ccek0nvw.s 			page 14


     /tmp/ccek0nvw.s:139    .text:0000000000000070 .L0 
   src/syscall_c.cpp:33     .text:0000000000000070 .L0 
     /tmp/ccek0nvw.s:145    .text:0000000000000074 .L0 
   src/syscall_c.cpp:34     .text:0000000000000074 .L0 
     /tmp/ccek0nvw.s:151    .text:0000000000000078 .L0 
     /tmp/ccek0nvw.s:152    .text:000000000000007c .L0 
     /tmp/ccek0nvw.s:153    .text:000000000000007c .L0 
     /tmp/ccek0nvw.s:155    .text:0000000000000080 .L0 
     /tmp/ccek0nvw.s:157    .text:0000000000000084 .L0 
     /tmp/ccek0nvw.s:163    .text:0000000000000084 _Z11thread_exitv
     /tmp/ccek0nvw.s:166    .text:0000000000000084 .L0 
     /tmp/ccek0nvw.s:167    .text:0000000000000084 .L0 
     /tmp/ccek0nvw.s:168    .text:0000000000000088 .L0 
     /tmp/ccek0nvw.s:170    .text:000000000000008c .L0 
     /tmp/ccek0nvw.s:172    .text:0000000000000090 .L0 
     /tmp/ccek0nvw.s:174    .text:0000000000000090 .L0 
   src/syscall_c.cpp:38     .text:0000000000000090 .L0 
     /tmp/ccek0nvw.s:180    .text:0000000000000094 .L0 
   src/syscall_c.cpp:39     .text:0000000000000094 .L0 
     /tmp/ccek0nvw.s:185    .text:0000000000000098 .L0 
     /tmp/ccek0nvw.s:186    .text:0000000000000098 .L0 
   src/syscall_c.cpp:41     .text:0000000000000098 .L0 
     /tmp/ccek0nvw.s:192    .text:000000000000009c .L0 
     /tmp/ccek0nvw.s:194    .text:000000000000009c .L0 
     /tmp/ccek0nvw.s:196    .text:00000000000000a4 .L0 
     /tmp/ccek0nvw.s:197    .text:00000000000000a4 .L0 
     /tmp/ccek0nvw.s:199    .text:00000000000000a8 .L0 
     /tmp/ccek0nvw.s:201    .text:00000000000000ac .L0 
     /tmp/ccek0nvw.s:207    .text:00000000000000ac _Z13thread_createPP3TCBPFvPvES2_
     /tmp/ccek0nvw.s:210    .text:00000000000000ac .L0 
     /tmp/ccek0nvw.s:212    .text:00000000000000ac .L0 
     /tmp/ccek0nvw.s:213    .text:00000000000000b0 .L0 
     /tmp/ccek0nvw.s:219    .text:00000000000000c4 .L0 
     /tmp/ccek0nvw.s:220    .text:00000000000000c4 .L0 
     /tmp/ccek0nvw.s:221    .text:00000000000000c4 .L0 
     /tmp/ccek0nvw.s:222    .text:00000000000000c4 .L0 
     /tmp/ccek0nvw.s:223    .text:00000000000000c4 .L0 
     /tmp/ccek0nvw.s:225    .text:00000000000000c8 .L0 
     /tmp/ccek0nvw.s:230    .text:00000000000000d4 .L0 
     /tmp/ccek0nvw.s:231    .text:00000000000000d4 .L0 
     /tmp/ccek0nvw.s:232    .text:00000000000000d4 .L0 
     /tmp/ccek0nvw.s:234    .text:00000000000000d8 .L0 
     /tmp/ccek0nvw.s:240    .text:00000000000000e4 .L0 
   src/syscall_c.cpp:49     .text:00000000000000e4 .L0 
     /tmp/ccek0nvw.s:246    .text:00000000000000e8 .L0 
   src/syscall_c.cpp:50     .text:00000000000000e8 .L0 
     /tmp/ccek0nvw.s:251    .text:00000000000000ec .L0 
   src/syscall_c.cpp:51     .text:00000000000000ec .L0 
     /tmp/ccek0nvw.s:256    .text:00000000000000f0 .L0 
   src/syscall_c.cpp:52     .text:00000000000000f0 .L0 
     /tmp/ccek0nvw.s:261    .text:00000000000000f4 .L0 
   src/syscall_c.cpp:53     .text:00000000000000f4 .L0 
     /tmp/ccek0nvw.s:266    .text:00000000000000f8 .L0 
   src/syscall_c.cpp:54     .text:00000000000000f8 .L0 
     /tmp/ccek0nvw.s:271    .text:00000000000000fc .L0 
     /tmp/ccek0nvw.s:272    .text:00000000000000fc .L0 
   src/syscall_c.cpp:56     .text:00000000000000fc .L0 
GAS LISTING /tmp/ccek0nvw.s 			page 15


     /tmp/ccek0nvw.s:278    .text:0000000000000100 .L0 
     /tmp/ccek0nvw.s:280    .text:0000000000000100 .L0 
     /tmp/ccek0nvw.s:282    .text:0000000000000108 .L0 
     /tmp/ccek0nvw.s:283    .text:0000000000000108 .L0 
     /tmp/ccek0nvw.s:285    .text:000000000000010c .L0 
     /tmp/ccek0nvw.s:286    .text:000000000000010c .L0 
     /tmp/ccek0nvw.s:288    .text:0000000000000110 .L0 
     /tmp/ccek0nvw.s:291    .text:0000000000000114 .L0 
     /tmp/ccek0nvw.s:294    .text:0000000000000118 .L0 
     /tmp/ccek0nvw.s:297    .text:000000000000011c .L0 
     /tmp/ccek0nvw.s:301    .text:0000000000000120 .L0 
     /tmp/ccek0nvw.s:303    .text:0000000000000120 .L0 
     /tmp/ccek0nvw.s:306    .text:0000000000000128 .L0 
     /tmp/ccek0nvw.s:312    .text:0000000000000128 _Z8sem_openPP3semj
     /tmp/ccek0nvw.s:315    .text:0000000000000128 .L0 
     /tmp/ccek0nvw.s:317    .text:0000000000000128 .L0 
     /tmp/ccek0nvw.s:318    .text:000000000000012c .L0 
     /tmp/ccek0nvw.s:320    .text:0000000000000130 .L0 
     /tmp/ccek0nvw.s:322    .text:0000000000000134 .L0 
     /tmp/ccek0nvw.s:324    .text:0000000000000134 .L0 
   src/syscall_c.cpp:61     .text:0000000000000134 .L0 
     /tmp/ccek0nvw.s:330    .text:0000000000000138 .L0 
   src/syscall_c.cpp:62     .text:0000000000000138 .L0 
     /tmp/ccek0nvw.s:335    .text:000000000000013c .L0 
   src/syscall_c.cpp:63     .text:000000000000013c .L0 
     /tmp/ccek0nvw.s:340    .text:0000000000000140 .L0 
   src/syscall_c.cpp:64     .text:0000000000000140 .L0 
     /tmp/ccek0nvw.s:345    .text:0000000000000144 .L0 
     /tmp/ccek0nvw.s:346    .text:0000000000000144 .L0 
   src/syscall_c.cpp:67     .text:0000000000000144 .L0 
     /tmp/ccek0nvw.s:352    .text:0000000000000148 .L0 
     /tmp/ccek0nvw.s:354    .text:0000000000000148 .L0 
     /tmp/ccek0nvw.s:356    .text:0000000000000150 .L0 
     /tmp/ccek0nvw.s:357    .text:0000000000000150 .L0 
     /tmp/ccek0nvw.s:359    .text:0000000000000154 .L0 
     /tmp/ccek0nvw.s:361    .text:0000000000000158 .L0 
     /tmp/ccek0nvw.s:367    .text:0000000000000158 _Z9sem_closeP3sem
     /tmp/ccek0nvw.s:370    .text:0000000000000158 .L0 
     /tmp/ccek0nvw.s:372    .text:0000000000000158 .L0 
     /tmp/ccek0nvw.s:373    .text:000000000000015c .L0 
     /tmp/ccek0nvw.s:375    .text:0000000000000160 .L0 
     /tmp/ccek0nvw.s:377    .text:0000000000000164 .L0 
     /tmp/ccek0nvw.s:379    .text:0000000000000164 .L0 
   src/syscall_c.cpp:73     .text:0000000000000164 .L0 
     /tmp/ccek0nvw.s:385    .text:0000000000000168 .L0 
   src/syscall_c.cpp:74     .text:0000000000000168 .L0 
     /tmp/ccek0nvw.s:390    .text:000000000000016c .L0 
   src/syscall_c.cpp:75     .text:000000000000016c .L0 
     /tmp/ccek0nvw.s:395    .text:0000000000000170 .L0 
     /tmp/ccek0nvw.s:396    .text:0000000000000170 .L0 
   src/syscall_c.cpp:78     .text:0000000000000170 .L0 
     /tmp/ccek0nvw.s:402    .text:0000000000000174 .L0 
     /tmp/ccek0nvw.s:404    .text:0000000000000174 .L0 
     /tmp/ccek0nvw.s:406    .text:000000000000017c .L0 
     /tmp/ccek0nvw.s:407    .text:000000000000017c .L0 
     /tmp/ccek0nvw.s:409    .text:0000000000000180 .L0 
     /tmp/ccek0nvw.s:411    .text:0000000000000184 .L0 
GAS LISTING /tmp/ccek0nvw.s 			page 16


     /tmp/ccek0nvw.s:417    .text:0000000000000184 _Z8sem_waitP3sem
     /tmp/ccek0nvw.s:420    .text:0000000000000184 .L0 
     /tmp/ccek0nvw.s:422    .text:0000000000000184 .L0 
     /tmp/ccek0nvw.s:423    .text:0000000000000188 .L0 
     /tmp/ccek0nvw.s:425    .text:000000000000018c .L0 
     /tmp/ccek0nvw.s:427    .text:0000000000000190 .L0 
     /tmp/ccek0nvw.s:429    .text:0000000000000190 .L0 
   src/syscall_c.cpp:83     .text:0000000000000190 .L0 
     /tmp/ccek0nvw.s:435    .text:0000000000000194 .L0 
   src/syscall_c.cpp:84     .text:0000000000000194 .L0 
     /tmp/ccek0nvw.s:440    .text:0000000000000198 .L0 
   src/syscall_c.cpp:85     .text:0000000000000198 .L0 
     /tmp/ccek0nvw.s:445    .text:000000000000019c .L0 
     /tmp/ccek0nvw.s:446    .text:000000000000019c .L0 
   src/syscall_c.cpp:88     .text:000000000000019c .L0 
     /tmp/ccek0nvw.s:452    .text:00000000000001a0 .L0 
     /tmp/ccek0nvw.s:454    .text:00000000000001a0 .L0 
     /tmp/ccek0nvw.s:456    .text:00000000000001a8 .L0 
     /tmp/ccek0nvw.s:457    .text:00000000000001a8 .L0 
     /tmp/ccek0nvw.s:459    .text:00000000000001ac .L0 
     /tmp/ccek0nvw.s:461    .text:00000000000001b0 .L0 
     /tmp/ccek0nvw.s:467    .text:00000000000001b0 _Z10sem_signalP3sem
     /tmp/ccek0nvw.s:470    .text:00000000000001b0 .L0 
     /tmp/ccek0nvw.s:472    .text:00000000000001b0 .L0 
     /tmp/ccek0nvw.s:473    .text:00000000000001b4 .L0 
     /tmp/ccek0nvw.s:475    .text:00000000000001b8 .L0 
     /tmp/ccek0nvw.s:477    .text:00000000000001bc .L0 
     /tmp/ccek0nvw.s:479    .text:00000000000001bc .L0 
   src/syscall_c.cpp:93     .text:00000000000001bc .L0 
     /tmp/ccek0nvw.s:485    .text:00000000000001c0 .L0 
   src/syscall_c.cpp:94     .text:00000000000001c0 .L0 
     /tmp/ccek0nvw.s:490    .text:00000000000001c4 .L0 
   src/syscall_c.cpp:95     .text:00000000000001c4 .L0 
     /tmp/ccek0nvw.s:495    .text:00000000000001c8 .L0 
     /tmp/ccek0nvw.s:496    .text:00000000000001c8 .L0 
   src/syscall_c.cpp:98     .text:00000000000001c8 .L0 
     /tmp/ccek0nvw.s:502    .text:00000000000001cc .L0 
     /tmp/ccek0nvw.s:504    .text:00000000000001cc .L0 
     /tmp/ccek0nvw.s:506    .text:00000000000001d4 .L0 
     /tmp/ccek0nvw.s:507    .text:00000000000001d4 .L0 
     /tmp/ccek0nvw.s:509    .text:00000000000001d8 .L0 
     /tmp/ccek0nvw.s:511    .text:00000000000001dc .L0 
     /tmp/ccek0nvw.s:517    .text:00000000000001dc _Z11sem_trywaitP3sem
     /tmp/ccek0nvw.s:520    .text:00000000000001dc .L0 
     /tmp/ccek0nvw.s:522    .text:00000000000001dc .L0 
     /tmp/ccek0nvw.s:523    .text:00000000000001e0 .L0 
     /tmp/ccek0nvw.s:525    .text:00000000000001e4 .L0 
     /tmp/ccek0nvw.s:527    .text:00000000000001e8 .L0 
     /tmp/ccek0nvw.s:529    .text:00000000000001e8 .L0 
   src/syscall_c.cpp:104    .text:00000000000001e8 .L0 
     /tmp/ccek0nvw.s:535    .text:00000000000001ec .L0 
   src/syscall_c.cpp:105    .text:00000000000001ec .L0 
     /tmp/ccek0nvw.s:540    .text:00000000000001f0 .L0 
   src/syscall_c.cpp:106    .text:00000000000001f0 .L0 
     /tmp/ccek0nvw.s:545    .text:00000000000001f4 .L0 
     /tmp/ccek0nvw.s:546    .text:00000000000001f4 .L0 
   src/syscall_c.cpp:109    .text:00000000000001f4 .L0 
GAS LISTING /tmp/ccek0nvw.s 			page 17


     /tmp/ccek0nvw.s:552    .text:00000000000001f8 .L0 
     /tmp/ccek0nvw.s:554    .text:00000000000001f8 .L0 
     /tmp/ccek0nvw.s:556    .text:0000000000000200 .L0 
     /tmp/ccek0nvw.s:557    .text:0000000000000200 .L0 
     /tmp/ccek0nvw.s:559    .text:0000000000000204 .L0 
     /tmp/ccek0nvw.s:561    .text:0000000000000208 .L0 
     /tmp/ccek0nvw.s:570    .text:0000000000000208 .L0 
     /tmp/ccek0nvw.s:37     .text:000000000000001c .L2
     /tmp/ccek0nvw.s:300    .text:0000000000000120 .L12
     /tmp/ccek0nvw.s:238    .text:00000000000000e4 .L11
     /tmp/ccek0nvw.s:1745   .debug_abbrev:0000000000000000 .Ldebug_abbrev0
     /tmp/ccek0nvw.s:3079   .debug_str:0000000000000625 .LASF125
     /tmp/ccek0nvw.s:2997   .debug_str:00000000000003b3 .LASF126
     /tmp/ccek0nvw.s:3133   .debug_str:0000000000000844 .LASF127
     /tmp/ccek0nvw.s:5      .text:0000000000000000 .Ltext0
     /tmp/ccek0nvw.s:564    .text:0000000000000208 .Letext0
     /tmp/ccek0nvw.s:2865   .debug_line:0000000000000000 .Ldebug_line0
     /tmp/ccek0nvw.s:2955   .debug_str:000000000000027f .LASF0
     /tmp/ccek0nvw.s:2979   .debug_str:0000000000000339 .LASF1
     /tmp/ccek0nvw.s:3051   .debug_str:000000000000054a .LASF2
     /tmp/ccek0nvw.s:3061   .debug_str:0000000000000599 .LASF4
     /tmp/ccek0nvw.s:2965   .debug_str:00000000000002ca .LASF3
     /tmp/ccek0nvw.s:2881   .debug_str:0000000000000076 .LASF5
     /tmp/ccek0nvw.s:3025   .debug_str:0000000000000484 .LASF6
     /tmp/ccek0nvw.s:2971   .debug_str:0000000000000302 .LASF7
     /tmp/ccek0nvw.s:2933   .debug_str:00000000000001e6 .LASF8
     /tmp/ccek0nvw.s:2939   .debug_str:0000000000000214 .LASF9
     /tmp/ccek0nvw.s:2899   .debug_str:00000000000000f0 .LASF10
     /tmp/ccek0nvw.s:2925   .debug_str:00000000000001b3 .LASF11
     /tmp/ccek0nvw.s:2905   .debug_str:0000000000000128 .LASF12
     /tmp/ccek0nvw.s:2897   .debug_str:00000000000000e0 .LASF13
     /tmp/ccek0nvw.s:3083   .debug_str:00000000000006f6 .LASF14
     /tmp/ccek0nvw.s:2917   .debug_str:0000000000000165 .LASF15
     /tmp/ccek0nvw.s:3075   .debug_str:00000000000005fb .LASF16
     /tmp/ccek0nvw.s:2991   .debug_str:000000000000038e .LASF17
     /tmp/ccek0nvw.s:3119   .debug_str:00000000000007da .LASF43
     /tmp/ccek0nvw.s:3141   .debug_str:0000000000000898 .LASF18
     /tmp/ccek0nvw.s:3111   .debug_str:0000000000000798 .LASF20
     /tmp/ccek0nvw.s:2893   .debug_str:00000000000000b3 .LASF19
     /tmp/ccek0nvw.s:3109   .debug_str:0000000000000785 .LASF21
     /tmp/ccek0nvw.s:2871   .debug_str:0000000000000010 .LASF22
     /tmp/ccek0nvw.s:3009   .debug_str:0000000000000405 .LASF24
     /tmp/ccek0nvw.s:3073   .debug_str:00000000000005e8 .LASF23
     /tmp/ccek0nvw.s:3077   .debug_str:0000000000000611 .LASF25
     /tmp/ccek0nvw.s:2907   .debug_str:0000000000000138 .LASF128
     /tmp/ccek0nvw.s:2923   .debug_str:00000000000001ae .LASF26
     /tmp/ccek0nvw.s:3007   .debug_str:0000000000000400 .LASF27
     /tmp/ccek0nvw.s:3003   .debug_str:00000000000003e4 .LASF28
     /tmp/ccek0nvw.s:3087   .debug_str:0000000000000709 .LASF30
     /tmp/ccek0nvw.s:2921   .debug_str:0000000000000197 .LASF35
     /tmp/ccek0nvw.s:3055   .debug_str:0000000000000565 .LASF99
     /tmp/ccek0nvw.s:3047   .debug_str:000000000000052e .LASF101
     /tmp/ccek0nvw.s:2973   .debug_str:0000000000000315 .LASF29
     /tmp/ccek0nvw.s:2895   .debug_str:00000000000000c3 .LASF31
     /tmp/ccek0nvw.s:2989   .debug_str:0000000000000386 .LASF32
     /tmp/ccek0nvw.s:2919   .debug_str:000000000000017b .LASF33
     /tmp/ccek0nvw.s:3023   .debug_str:0000000000000478 .LASF34
GAS LISTING /tmp/ccek0nvw.s 			page 18


     /tmp/ccek0nvw.s:3121   .debug_str:00000000000007e4 .LASF36
     /tmp/ccek0nvw.s:3147   .debug_str:00000000000008b9 .LASF37
     /tmp/ccek0nvw.s:3139   .debug_str:000000000000087d .LASF38
     /tmp/ccek0nvw.s:3067   .debug_str:00000000000005b6 .LASF39
     /tmp/ccek0nvw.s:2969   .debug_str:00000000000002e5 .LASF40
     /tmp/ccek0nvw.s:3041   .debug_str:000000000000050c .LASF41
     /tmp/ccek0nvw.s:2875   .debug_str:0000000000000028 .LASF42
     /tmp/ccek0nvw.s:3091   .debug_str:0000000000000725 .LASF129
     /tmp/ccek0nvw.s:2935   .debug_str:00000000000001f6 .LASF44
     /tmp/ccek0nvw.s:2927   .debug_str:00000000000001c2 .LASF45
     /tmp/ccek0nvw.s:3011   .debug_str:0000000000000419 .LASF46
     /tmp/ccek0nvw.s:3053   .debug_str:0000000000000558 .LASF47
     /tmp/ccek0nvw.s:3063   .debug_str:00000000000005a0 .LASF48
     /tmp/ccek0nvw.s:2879   .debug_str:000000000000006a .LASF49
     /tmp/ccek0nvw.s:3093   .debug_str:000000000000072d .LASF50
     /tmp/ccek0nvw.s:3005   .debug_str:00000000000003e9 .LASF51
     /tmp/ccek0nvw.s:2889   .debug_str:0000000000000099 .LASF52
     /tmp/ccek0nvw.s:3015   .debug_str:000000000000042e .LASF53
     /tmp/ccek0nvw.s:2985   .debug_str:0000000000000360 .LASF54
     /tmp/ccek0nvw.s:3115   .debug_str:00000000000007b9 .LASF55
     /tmp/ccek0nvw.s:3097   .debug_str:0000000000000743 .LASF130
     /tmp/ccek0nvw.s:3081   .debug_str:00000000000006e9 .LASF56
     /tmp/ccek0nvw.s:2943   .debug_str:0000000000000230 .LASF57
     /tmp/ccek0nvw.s:3019   .debug_str:0000000000000466 .LASF131
     /tmp/ccek0nvw.s:2977   .debug_str:000000000000032c .LASF58
     /tmp/ccek0nvw.s:2995   .debug_str:0000000000000399 .LASF59
     /tmp/ccek0nvw.s:3143   .debug_str:00000000000008a5 .LASF132
     /tmp/ccek0nvw.s:3027   .debug_str:0000000000000497 .LASF133
     /tmp/ccek0nvw.s:2981   .debug_str:000000000000034c .LASF134
     /tmp/ccek0nvw.s:3103   .debug_str:0000000000000763 .LASF135
     /tmp/ccek0nvw.s:3095   .debug_str:0000000000000738 .LASF60
     /tmp/ccek0nvw.s:2903   .debug_str:0000000000000112 .LASF61
     /tmp/ccek0nvw.s:3069   .debug_str:00000000000005c1 .LASF89
     /tmp/ccek0nvw.s:2869   .debug_str:000000000000000b .LASF62
     /tmp/ccek0nvw.s:2967   .debug_str:00000000000002dc .LASF63
     /tmp/ccek0nvw.s:2993   .debug_str:0000000000000393 .LASF64
     /tmp/ccek0nvw.s:3107   .debug_str:000000000000077d .LASF65
     /tmp/ccek0nvw.s:3105   .debug_str:0000000000000773 .LASF66
     /tmp/ccek0nvw.s:3089   .debug_str:000000000000071c .LASF67
     /tmp/ccek0nvw.s:3013   .debug_str:0000000000000426 .LASF68
     /tmp/ccek0nvw.s:3065   .debug_str:00000000000005a5 .LASF136
     /tmp/ccek0nvw.s:2891   .debug_str:00000000000000a5 .LASF69
     /tmp/ccek0nvw.s:2987   .debug_str:000000000000036d .LASF71
     /tmp/ccek0nvw.s:2913   .debug_str:0000000000000157 .LASF70
     /tmp/ccek0nvw.s:2901   .debug_str:00000000000000ff .LASF72
     /tmp/ccek0nvw.s:2909   .debug_str:000000000000013d .LASF137
     /tmp/ccek0nvw.s:2877   .debug_str:0000000000000042 .LASF138
     /tmp/ccek0nvw.s:2961   .debug_str:00000000000002b2 .LASF73
     /tmp/ccek0nvw.s:2947   .debug_str:0000000000000259 .LASF74
     /tmp/ccek0nvw.s:3021   .debug_str:000000000000046b .LASF75
     /tmp/ccek0nvw.s:3135   .debug_str:0000000000000862 .LASF76
     /tmp/ccek0nvw.s:2983   .debug_str:0000000000000352 .LASF77
     /tmp/ccek0nvw.s:3057   .debug_str:000000000000056f .LASF78
     /tmp/ccek0nvw.s:3101   .debug_str:0000000000000754 .LASF79
     /tmp/ccek0nvw.s:3129   .debug_str:0000000000000816 .LASF80
     /tmp/ccek0nvw.s:2915   .debug_str:0000000000000160 .LASF81
     /tmp/ccek0nvw.s:3071   .debug_str:00000000000005d9 .LASF82
GAS LISTING /tmp/ccek0nvw.s 			page 19


     /tmp/ccek0nvw.s:3085   .debug_str:0000000000000702 .LASF83
     /tmp/ccek0nvw.s:3031   .debug_str:00000000000004b9 .LASF84
     /tmp/ccek0nvw.s:3117   .debug_str:00000000000007d2 .LASF85
     /tmp/ccek0nvw.s:2937   .debug_str:0000000000000202 .LASF86
     /tmp/ccek0nvw.s:2951   .debug_str:000000000000026e .LASF87
     /tmp/ccek0nvw.s:3035   .debug_str:00000000000004da .LASF88
     /tmp/ccek0nvw.s:2911   .debug_str:000000000000014b .LASF90
     /tmp/ccek0nvw.s:2945   .debug_str:0000000000000253 .LASF91
     /tmp/ccek0nvw.s:3123   .debug_str:0000000000000802 .LASF92
     /tmp/ccek0nvw.s:2953   .debug_str:0000000000000279 .LASF93
     /tmp/ccek0nvw.s:3033   .debug_str:00000000000004ca .LASF94
     /tmp/ccek0nvw.s:2873   .debug_str:0000000000000020 .LASF95
     /tmp/ccek0nvw.s:2883   .debug_str:000000000000007d .LASF96
     /tmp/ccek0nvw.s:3099   .debug_str:000000000000074b .LASF97
     /tmp/ccek0nvw.s:3127   .debug_str:0000000000000810 .LASF98
     /tmp/ccek0nvw.s:3029   .debug_str:00000000000004ad .LASF100
     /tmp/ccek0nvw.s:2959   .debug_str:000000000000029d .LASF102
     /tmp/ccek0nvw.s:518    .text:00000000000001dc .LFB52
     /tmp/ccek0nvw.s:562    .text:0000000000000208 .LFE52
     /tmp/ccek0nvw.s:2656   .debug_loc:0000000000000000 .LLST13
     /tmp/ccek0nvw.s:2867   .debug_str:0000000000000000 .LASF103
     /tmp/ccek0nvw.s:3131   .debug_str:0000000000000830 .LASF104
     /tmp/ccek0nvw.s:468    .text:00000000000001b0 .LFB51
     /tmp/ccek0nvw.s:512    .text:00000000000001dc .LFE51
     /tmp/ccek0nvw.s:2670   .debug_loc:0000000000000039 .LLST12
     /tmp/ccek0nvw.s:3145   .debug_str:00000000000008b0 .LASF105
     /tmp/ccek0nvw.s:3059   .debug_str:0000000000000588 .LASF106
     /tmp/ccek0nvw.s:418    .text:0000000000000184 .LFB50
     /tmp/ccek0nvw.s:462    .text:00000000000001b0 .LFE50
     /tmp/ccek0nvw.s:2684   .debug_loc:0000000000000072 .LLST11
     /tmp/ccek0nvw.s:3039   .debug_str:0000000000000502 .LASF107
     /tmp/ccek0nvw.s:3037   .debug_str:00000000000004f0 .LASF108
     /tmp/ccek0nvw.s:368    .text:0000000000000158 .LFB49
     /tmp/ccek0nvw.s:412    .text:0000000000000184 .LFE49
     /tmp/ccek0nvw.s:3125   .debug_str:0000000000000809 .LASF109
     /tmp/ccek0nvw.s:2698   .debug_loc:00000000000000ab .LLST10
     /tmp/ccek0nvw.s:3045   .debug_str:0000000000000525 .LASF110
     /tmp/ccek0nvw.s:2929   .debug_str:00000000000001ce .LASF111
     /tmp/ccek0nvw.s:313    .text:0000000000000128 .LFB48
     /tmp/ccek0nvw.s:362    .text:0000000000000158 .LFE48
     /tmp/ccek0nvw.s:2712   .debug_loc:00000000000000e4 .LLST9
     /tmp/ccek0nvw.s:2887   .debug_str:0000000000000094 .LASF112
     /tmp/ccek0nvw.s:3113   .debug_str:00000000000007ab .LASF113
     /tmp/ccek0nvw.s:3017   .debug_str:0000000000000445 .LASF114
     /tmp/ccek0nvw.s:208    .text:00000000000000ac .LFB47
     /tmp/ccek0nvw.s:307    .text:0000000000000128 .LFE47
     /tmp/ccek0nvw.s:2726   .debug_loc:000000000000011d .LLST4
     /tmp/ccek0nvw.s:2975   .debug_str:000000000000031e .LASF115
     /tmp/ccek0nvw.s:2752   .debug_loc:000000000000018f .LLST5
     /tmp/ccek0nvw.s:2774   .debug_loc:00000000000001ee .LLST6
     /tmp/ccek0nvw.s:2885   .debug_str:000000000000008f .LASF116
     /tmp/ccek0nvw.s:2796   .debug_loc:000000000000024d .LLST7
     /tmp/ccek0nvw.s:2803   .debug_loc:0000000000000270 .LLST8
     /tmp/ccek0nvw.s:237    .text:00000000000000e4 .LVL10
     /tmp/ccek0nvw.s:2963   .debug_str:00000000000002be .LASF117
     /tmp/ccek0nvw.s:2957   .debug_str:000000000000028c .LASF118
     /tmp/ccek0nvw.s:164    .text:0000000000000084 .LFB46
GAS LISTING /tmp/ccek0nvw.s 			page 20


     /tmp/ccek0nvw.s:202    .text:00000000000000ac .LFE46
     /tmp/ccek0nvw.s:3043   .debug_str:0000000000000515 .LASF139
     /tmp/ccek0nvw.s:3001   .debug_str:00000000000003cf .LASF140
     /tmp/ccek0nvw.s:129    .text:0000000000000064 .LFB45
     /tmp/ccek0nvw.s:158    .text:0000000000000084 .LFE45
     /tmp/ccek0nvw.s:2949   .debug_str:0000000000000265 .LASF119
     /tmp/ccek0nvw.s:3137   .debug_str:000000000000086f .LASF120
     /tmp/ccek0nvw.s:79     .text:0000000000000038 .LFB44
     /tmp/ccek0nvw.s:123    .text:0000000000000064 .LFE44
     /tmp/ccek0nvw.s:2810   .debug_loc:0000000000000293 .LLST3
     /tmp/ccek0nvw.s:2999   .debug_str:00000000000003c5 .LASF121
     /tmp/ccek0nvw.s:2941   .debug_str:0000000000000222 .LASF122
     /tmp/ccek0nvw.s:10     .text:0000000000000000 .LFB43
     /tmp/ccek0nvw.s:73     .text:0000000000000038 .LFE43
     /tmp/ccek0nvw.s:2931   .debug_str:00000000000001e1 .LASF123
     /tmp/ccek0nvw.s:2824   .debug_loc:00000000000002cc .LLST0
     /tmp/ccek0nvw.s:3049   .debug_str:0000000000000545 .LASF124
     /tmp/ccek0nvw.s:2838   .debug_loc:0000000000000305 .LLST1
     /tmp/ccek0nvw.s:28     .text:0000000000000014 .LBB3
     /tmp/ccek0nvw.s:38     .text:000000000000001c .LBE3
     /tmp/ccek0nvw.s:2845   .debug_loc:0000000000000328 .LLST2
     /tmp/ccek0nvw.s:521    .text:00000000000001dc .LVL25
     /tmp/ccek0nvw.s:550    .text:00000000000001f8 .LVL26
     /tmp/ccek0nvw.s:471    .text:00000000000001b0 .LVL23
     /tmp/ccek0nvw.s:500    .text:00000000000001cc .LVL24
     /tmp/ccek0nvw.s:421    .text:0000000000000184 .LVL21
     /tmp/ccek0nvw.s:450    .text:00000000000001a0 .LVL22
     /tmp/ccek0nvw.s:371    .text:0000000000000158 .LVL19
     /tmp/ccek0nvw.s:400    .text:0000000000000174 .LVL20
     /tmp/ccek0nvw.s:316    .text:0000000000000128 .LVL17
     /tmp/ccek0nvw.s:350    .text:0000000000000148 .LVL18
     /tmp/ccek0nvw.s:211    .text:00000000000000ac .LVL8
     /tmp/ccek0nvw.s:235    .text:00000000000000dc .LVL9
     /tmp/ccek0nvw.s:292    .text:0000000000000114 .LVL13
     /tmp/ccek0nvw.s:299    .text:0000000000000120 .LVL15
     /tmp/ccek0nvw.s:304    .text:0000000000000124 .LVL16
     /tmp/ccek0nvw.s:289    .text:0000000000000110 .LVL12
     /tmp/ccek0nvw.s:295    .text:0000000000000118 .LVL14
     /tmp/ccek0nvw.s:276    .text:0000000000000100 .LVL11
     /tmp/ccek0nvw.s:82     .text:0000000000000038 .LVL5
     /tmp/ccek0nvw.s:111    .text:0000000000000054 .LVL6
     /tmp/ccek0nvw.s:14     .text:0000000000000000 .LVL0
     /tmp/ccek0nvw.s:34     .text:0000000000000018 .LVL2
     /tmp/ccek0nvw.s:36     .text:000000000000001c .LVL3
     /tmp/ccek0nvw.s:62     .text:000000000000002c .LVL4
     /tmp/ccek0nvw.s:30     .text:0000000000000014 .LVL1
     /tmp/ccek0nvw.s:571    .debug_info:0000000000000000 .Ldebug_info0

NO UNDEFINED SYMBOLS
