GAS LISTING /tmp/ccAApnS4.s 			page 1


   1              		.file	"syscall_c.cpp"
   2              		.option pic
   3              		.option norelax
   4              		.text
   5              	.Ltext0:
   6              		.align	2
   7              		.globl	_Z9mem_allocm
   9              	_Z9mem_allocm:
  10              	.LFB40:
  11              		.file 1 "src/syscall_c.cpp"
   1:src/syscall_c.cpp **** //
   2:src/syscall_c.cpp **** // Created by os on 5/18/24.
   3:src/syscall_c.cpp **** //
   4:src/syscall_c.cpp **** 
   5:src/syscall_c.cpp **** #include "../h/syscall_c.hpp"
   6:src/syscall_c.cpp **** 
   7:src/syscall_c.cpp **** void* mem_alloc (size_t size){
  12              		.loc 1 7 30
  13              		.cfi_startproc
  14              	.LVL0:
  15 0000 130101FF 		addi	sp,sp,-16
  16              		.cfi_def_cfa_offset 16
  17 0004 23348100 		sd	s0,8(sp)
  18              		.cfi_offset 8, -8
  19 0008 13040101 		addi	s0,sp,16
  20              		.cfi_def_cfa 8, 0
   8:src/syscall_c.cpp ****     size_t real;
  21              		.loc 1 8 5
   9:src/syscall_c.cpp ****     if(size % MEM_BLOCK_SIZE == 0)  real = size;
  22              		.loc 1 9 5
  23              	.LBB2:
  24              		.loc 1 9 13 is_stmt 0
  25 000c 9377F503 		andi	a5,a0,63
  26              		.loc 1 9 5
  27 0010 63860700 		beqz	a5,.L2
  28              	.LBB3:
  10:src/syscall_c.cpp ****     else {
  11:src/syscall_c.cpp ****         size_t rem = size % MEM_BLOCK_SIZE;
  29              		.loc 1 11 9 is_stmt 1
  30              	.LVL1:
  12:src/syscall_c.cpp ****         real = size - rem + MEM_BLOCK_SIZE;
  31              		.loc 1 12 9
  32              		.loc 1 12 14 is_stmt 0
  33 0014 137505FC 		andi	a0,a0,-64
  34              	.LVL2:
  35 0018 13050504 		addi	a0,a0,64
  36              	.LVL3:
  37              	.L2:
  38              	.LBE3:
  39              	.LBE2:
  13:src/syscall_c.cpp ****     }
  14:src/syscall_c.cpp **** 
  15:src/syscall_c.cpp ****     __asm__ volatile("mv a1, %0" :: "r"(real));
  40              		.loc 1 15 5 is_stmt 1
  41              		.loc 1 15 47 is_stmt 0
  42              	#APP
  43              	# 15 "src/syscall_c.cpp" 1
GAS LISTING /tmp/ccAApnS4.s 			page 2


  16              	    __asm__ volatile("li a0, 0x01");
  44              		mv a1, a0
  45              	# 0 "" 2
  46              		.loc 1 16 5 is_stmt 1
  47              		.loc 1 16 36 is_stmt 0
  48              	# 16 "src/syscall_c.cpp" 1
  17              	    __asm__ volatile("ecall");
  49              		li a0, 0x01
  50              	# 0 "" 2
  51              		.loc 1 17 5 is_stmt 1
  52              		.loc 1 17 30 is_stmt 0
  53              	# 17 "src/syscall_c.cpp" 1
  18              	    void* r;
  54              		ecall
  55              	# 0 "" 2
  56              		.loc 1 18 5 is_stmt 1
  19:src/syscall_c.cpp ****     __asm__ volatile("mv %0,a0":"=r"(r));
  57              		.loc 1 19 5
  58              		.loc 1 19 41 is_stmt 0
  59              	# 19 "src/syscall_c.cpp" 1
  20              	    return  r;
  60              		mv a0,a0
  61              	# 0 "" 2
  62              	.LVL4:
  63              		.loc 1 20 5 is_stmt 1
  21:src/syscall_c.cpp **** }
  64              		.loc 1 21 1 is_stmt 0
  65              	#NO_APP
  66 002c 03348100 		ld	s0,8(sp)
  67              		.cfi_restore 8
  68              		.cfi_def_cfa 2, 16
  69 0030 13010101 		addi	sp,sp,16
  70              		.cfi_def_cfa_offset 0
  71 0034 67800000 		jr	ra
  72              		.cfi_endproc
  73              	.LFE40:
  75              		.align	2
  76              		.globl	_Z8mem_freePv
  78              	_Z8mem_freePv:
  79              	.LFB41:
  22:src/syscall_c.cpp **** int mem_free (void* p){
  80              		.loc 1 22 23 is_stmt 1
  81              		.cfi_startproc
  82              	.LVL5:
  83 0038 130101FF 		addi	sp,sp,-16
  84              		.cfi_def_cfa_offset 16
  85 003c 23348100 		sd	s0,8(sp)
  86              		.cfi_offset 8, -8
  87 0040 13040101 		addi	s0,sp,16
  88              		.cfi_def_cfa 8, 0
  23:src/syscall_c.cpp ****     __asm__ volatile("mv a1, %0":: "r"(p));
  89              		.loc 1 23 5
  90              		.loc 1 23 43 is_stmt 0
  91              	#APP
  92              	# 23 "src/syscall_c.cpp" 1
  24              	    __asm__ volatile("li a0, 0x02");
  93              		mv a1, a0
GAS LISTING /tmp/ccAApnS4.s 			page 3


  94              	# 0 "" 2
  95              		.loc 1 24 5 is_stmt 1
  96              		.loc 1 24 36 is_stmt 0
  97              	# 24 "src/syscall_c.cpp" 1
  25              	    __asm__ volatile("ecall");
  98              		li a0, 0x02
  99              	# 0 "" 2
 100              		.loc 1 25 5 is_stmt 1
 101              		.loc 1 25 30 is_stmt 0
 102              	# 25 "src/syscall_c.cpp" 1
  26              	
  27:src/syscall_c.cpp ****     uint64 r;//
 103              		ecall
 104              	# 0 "" 2
 105              		.loc 1 27 5 is_stmt 1
  28:src/syscall_c.cpp ****     __asm__ volatile("mv %0, a0": "=r"(r));
 106              		.loc 1 28 5
 107              		.loc 1 28 43 is_stmt 0
 108              	# 28 "src/syscall_c.cpp" 1
  29              	    return (int)r;
 109              		mv a0, a0
 110              	# 0 "" 2
 111              	.LVL6:
 112              		.loc 1 29 5 is_stmt 1
  30:src/syscall_c.cpp **** }
 113              		.loc 1 30 1 is_stmt 0
 114              	#NO_APP
 115 0054 1B050500 		sext.w	a0,a0
 116              	.LVL7:
 117 0058 03348100 		ld	s0,8(sp)
 118              		.cfi_restore 8
 119              		.cfi_def_cfa 2, 16
 120 005c 13010101 		addi	sp,sp,16
 121              		.cfi_def_cfa_offset 0
 122 0060 67800000 		jr	ra
 123              		.cfi_endproc
 124              	.LFE41:
 126              		.align	2
 127              		.globl	_Z15thread_dispatchv
 129              	_Z15thread_dispatchv:
 130              	.LFB42:
  31:src/syscall_c.cpp **** 
  32:src/syscall_c.cpp **** void thread_dispatch() {
 131              		.loc 1 32 24 is_stmt 1
 132              		.cfi_startproc
 133 0064 130101FF 		addi	sp,sp,-16
 134              		.cfi_def_cfa_offset 16
 135 0068 23348100 		sd	s0,8(sp)
 136              		.cfi_offset 8, -8
 137 006c 13040101 		addi	s0,sp,16
 138              		.cfi_def_cfa 8, 0
  33:src/syscall_c.cpp ****     __asm__ volatile("li a0, 0x13");
 139              		.loc 1 33 5
 140              		.loc 1 33 36 is_stmt 0
 141              	#APP
 142              	# 33 "src/syscall_c.cpp" 1
  34              	    __asm__ volatile("ecall");
GAS LISTING /tmp/ccAApnS4.s 			page 4


 143              		li a0, 0x13
 144              	# 0 "" 2
 145              		.loc 1 34 5 is_stmt 1
 146              		.loc 1 34 30 is_stmt 0
 147              	# 34 "src/syscall_c.cpp" 1
  35              	}
 148              		ecall
 149              	# 0 "" 2
 150              		.loc 1 35 1
 151              	#NO_APP
 152 0078 03348100 		ld	s0,8(sp)
 153              		.cfi_restore 8
 154              		.cfi_def_cfa 2, 16
 155 007c 13010101 		addi	sp,sp,16
 156              		.cfi_def_cfa_offset 0
 157 0080 67800000 		jr	ra
 158              		.cfi_endproc
 159              	.LFE42:
 161              		.align	2
 162              		.globl	_Z11thread_exitv
 164              	_Z11thread_exitv:
 165              	.LFB43:
  36:src/syscall_c.cpp **** 
  37:src/syscall_c.cpp **** int thread_exit() {
 166              		.loc 1 37 19 is_stmt 1
 167              		.cfi_startproc
 168 0084 130101FF 		addi	sp,sp,-16
 169              		.cfi_def_cfa_offset 16
 170 0088 23348100 		sd	s0,8(sp)
 171              		.cfi_offset 8, -8
 172 008c 13040101 		addi	s0,sp,16
 173              		.cfi_def_cfa 8, 0
  38:src/syscall_c.cpp ****     __asm__ volatile("li a0, 0x12");
 174              		.loc 1 38 5
 175              		.loc 1 38 36 is_stmt 0
 176              	#APP
 177              	# 38 "src/syscall_c.cpp" 1
  39              	    __asm__ volatile("ecall");
 178              		li a0, 0x12
 179              	# 0 "" 2
 180              		.loc 1 39 5 is_stmt 1
 181              		.loc 1 39 30 is_stmt 0
 182              	# 39 "src/syscall_c.cpp" 1
  40              	    uint64 r;//
 183              		ecall
 184              	# 0 "" 2
 185              		.loc 1 40 5 is_stmt 1
  41:src/syscall_c.cpp ****     __asm__ volatile("mv %0, a0": "=r"(r));
 186              		.loc 1 41 5
 187              		.loc 1 41 43 is_stmt 0
 188              	# 41 "src/syscall_c.cpp" 1
  42              	    return (int)r;
 189              		mv a0, a0
 190              	# 0 "" 2
 191              	.LVL8:
 192              		.loc 1 42 5 is_stmt 1
  43:src/syscall_c.cpp **** }
GAS LISTING /tmp/ccAApnS4.s 			page 5


 193              		.loc 1 43 1 is_stmt 0
 194              	#NO_APP
 195 009c 1B050500 		sext.w	a0,a0
 196              	.LVL9:
 197 00a0 03348100 		ld	s0,8(sp)
 198              		.cfi_restore 8
 199              		.cfi_def_cfa 2, 16
 200 00a4 13010101 		addi	sp,sp,16
 201              		.cfi_def_cfa_offset 0
 202 00a8 67800000 		jr	ra
 203              		.cfi_endproc
 204              	.LFE43:
 206              		.align	2
 207              		.globl	_Z13thread_createP3TCBPFvPvES1_
 209              	_Z13thread_createP3TCBPFvPvES1_:
 210              	.LFB44:
  44:src/syscall_c.cpp **** 
  45:src/syscall_c.cpp **** int thread_create(TCB *handle, void (*start_routine)(void *), void *arg) {
 211              		.loc 1 45 74 is_stmt 1
 212              		.cfi_startproc
 213              	.LVL10:
 214 00ac 130101FF 		addi	sp,sp,-16
 215              		.cfi_def_cfa_offset 16
 216 00b0 23348100 		sd	s0,8(sp)
 217              		.cfi_offset 8, -8
 218 00b4 13040101 		addi	s0,sp,16
 219              		.cfi_def_cfa 8, 0
  46:src/syscall_c.cpp **** 
  47:src/syscall_c.cpp ****     __asm__ volatile("mv a3, %0" :: "r"(arg));
 220              		.loc 1 47 5
 221              		.loc 1 47 46 is_stmt 0
 222              	#APP
 223              	# 47 "src/syscall_c.cpp" 1
  48              	    __asm__ volatile("mv a2, %0" :: "r"(start_routine));
 224              		mv a3, a2
 225              	# 0 "" 2
 226              		.loc 1 48 5 is_stmt 1
 227              		.loc 1 48 56 is_stmt 0
 228              	# 48 "src/syscall_c.cpp" 1
  49              	    __asm__ volatile("mv a1, %0" :: "r"(handle));
 229              		mv a2, a1
 230              	# 0 "" 2
 231              		.loc 1 49 5 is_stmt 1
 232              		.loc 1 49 49 is_stmt 0
 233              	# 49 "src/syscall_c.cpp" 1
  50              	    __asm__ volatile("li a0, 0x11");
 234              		mv a1, a0
 235              	# 0 "" 2
 236              		.loc 1 50 5 is_stmt 1
 237              		.loc 1 50 36 is_stmt 0
 238              	# 50 "src/syscall_c.cpp" 1
  51              	    __asm__ volatile("ecall");
 239              		li a0, 0x11
 240              	# 0 "" 2
 241              		.loc 1 51 5 is_stmt 1
 242              		.loc 1 51 30 is_stmt 0
 243              	# 51 "src/syscall_c.cpp" 1
GAS LISTING /tmp/ccAApnS4.s 			page 6


  52              	    uint64 r;//
 244              		ecall
 245              	# 0 "" 2
 246              		.loc 1 52 5 is_stmt 1
  53:src/syscall_c.cpp ****     __asm__ volatile("mv %0, a0": "=r"(r));
 247              		.loc 1 53 5
 248              		.loc 1 53 43 is_stmt 0
 249              	# 53 "src/syscall_c.cpp" 1
  54              	    __asm__ volatile("mv %0, a2":"=r"(handle));
 250              		mv a0, a0
 251              	# 0 "" 2
 252              	.LVL11:
 253              		.loc 1 54 5 is_stmt 1
 254              		.loc 1 54 47 is_stmt 0
 255              	# 54 "src/syscall_c.cpp" 1
  55              	    return (int)r;
 256              		mv a5, a2
 257              	# 0 "" 2
 258              	.LVL12:
 259              		.loc 1 55 5 is_stmt 1
  56:src/syscall_c.cpp **** }
 260              		.loc 1 56 1 is_stmt 0
 261              	#NO_APP
 262 00d4 1B050500 		sext.w	a0,a0
 263              	.LVL13:
 264 00d8 03348100 		ld	s0,8(sp)
 265              		.cfi_restore 8
 266              		.cfi_def_cfa 2, 16
 267 00dc 13010101 		addi	sp,sp,16
 268              		.cfi_def_cfa_offset 0
 269 00e0 67800000 		jr	ra
 270              		.cfi_endproc
 271              	.LFE44:
 273              	.Letext0:
 274              		.file 2 "src/../h/../lib/hw.h"
 275              		.file 3 "src/../h/tcb.hpp"
 276              		.file 4 "src/../h/syscall_c.hpp"
GAS LISTING /tmp/ccAApnS4.s 			page 7


DEFINED SYMBOLS
                            *ABS*:0000000000000000 syscall_c.cpp
     /tmp/ccAApnS4.s:9      .text:0000000000000000 _Z9mem_allocm
     /tmp/ccAApnS4.s:13     .text:0000000000000000 .L0 
     /tmp/ccAApnS4.s:15     .text:0000000000000000 .L0 
     /tmp/ccAApnS4.s:16     .text:0000000000000004 .L0 
     /tmp/ccAApnS4.s:18     .text:0000000000000008 .L0 
     /tmp/ccAApnS4.s:20     .text:000000000000000c .L0 
     /tmp/ccAApnS4.s:22     .text:000000000000000c .L0 
     /tmp/ccAApnS4.s:24     .text:000000000000000c .L0 
     /tmp/ccAApnS4.s:25     .text:000000000000000c .L0 
     /tmp/ccAApnS4.s:27     .text:0000000000000010 .L0 
     /tmp/ccAApnS4.s:31     .text:0000000000000014 .L0 
     /tmp/ccAApnS4.s:32     .text:0000000000000014 .L0 
     /tmp/ccAApnS4.s:33     .text:0000000000000014 .L0 
     /tmp/ccAApnS4.s:41     .text:000000000000001c .L0 
   src/syscall_c.cpp:15     .text:000000000000001c .L0 
     /tmp/ccAApnS4.s:47     .text:0000000000000020 .L0 
   src/syscall_c.cpp:16     .text:0000000000000020 .L0 
     /tmp/ccAApnS4.s:52     .text:0000000000000024 .L0 
   src/syscall_c.cpp:17     .text:0000000000000024 .L0 
     /tmp/ccAApnS4.s:57     .text:0000000000000028 .L0 
     /tmp/ccAApnS4.s:58     .text:0000000000000028 .L0 
   src/syscall_c.cpp:19     .text:0000000000000028 .L0 
     /tmp/ccAApnS4.s:64     .text:000000000000002c .L0 
     /tmp/ccAApnS4.s:66     .text:000000000000002c .L0 
     /tmp/ccAApnS4.s:67     .text:0000000000000030 .L0 
     /tmp/ccAApnS4.s:68     .text:0000000000000030 .L0 
     /tmp/ccAApnS4.s:70     .text:0000000000000034 .L0 
     /tmp/ccAApnS4.s:72     .text:0000000000000038 .L0 
     /tmp/ccAApnS4.s:78     .text:0000000000000038 _Z8mem_freePv
     /tmp/ccAApnS4.s:81     .text:0000000000000038 .L0 
     /tmp/ccAApnS4.s:83     .text:0000000000000038 .L0 
     /tmp/ccAApnS4.s:84     .text:000000000000003c .L0 
     /tmp/ccAApnS4.s:86     .text:0000000000000040 .L0 
     /tmp/ccAApnS4.s:88     .text:0000000000000044 .L0 
     /tmp/ccAApnS4.s:90     .text:0000000000000044 .L0 
   src/syscall_c.cpp:23     .text:0000000000000044 .L0 
     /tmp/ccAApnS4.s:96     .text:0000000000000048 .L0 
   src/syscall_c.cpp:24     .text:0000000000000048 .L0 
     /tmp/ccAApnS4.s:101    .text:000000000000004c .L0 
   src/syscall_c.cpp:25     .text:000000000000004c .L0 
     /tmp/ccAApnS4.s:106    .text:0000000000000050 .L0 
     /tmp/ccAApnS4.s:107    .text:0000000000000050 .L0 
   src/syscall_c.cpp:28     .text:0000000000000050 .L0 
     /tmp/ccAApnS4.s:113    .text:0000000000000054 .L0 
     /tmp/ccAApnS4.s:115    .text:0000000000000054 .L0 
     /tmp/ccAApnS4.s:118    .text:000000000000005c .L0 
     /tmp/ccAApnS4.s:119    .text:000000000000005c .L0 
     /tmp/ccAApnS4.s:121    .text:0000000000000060 .L0 
     /tmp/ccAApnS4.s:123    .text:0000000000000064 .L0 
     /tmp/ccAApnS4.s:129    .text:0000000000000064 _Z15thread_dispatchv
     /tmp/ccAApnS4.s:132    .text:0000000000000064 .L0 
     /tmp/ccAApnS4.s:133    .text:0000000000000064 .L0 
     /tmp/ccAApnS4.s:134    .text:0000000000000068 .L0 
     /tmp/ccAApnS4.s:136    .text:000000000000006c .L0 
     /tmp/ccAApnS4.s:138    .text:0000000000000070 .L0 
GAS LISTING /tmp/ccAApnS4.s 			page 8


     /tmp/ccAApnS4.s:140    .text:0000000000000070 .L0 
   src/syscall_c.cpp:33     .text:0000000000000070 .L0 
     /tmp/ccAApnS4.s:146    .text:0000000000000074 .L0 
   src/syscall_c.cpp:34     .text:0000000000000074 .L0 
     /tmp/ccAApnS4.s:152    .text:0000000000000078 .L0 
     /tmp/ccAApnS4.s:153    .text:000000000000007c .L0 
     /tmp/ccAApnS4.s:154    .text:000000000000007c .L0 
     /tmp/ccAApnS4.s:156    .text:0000000000000080 .L0 
     /tmp/ccAApnS4.s:158    .text:0000000000000084 .L0 
     /tmp/ccAApnS4.s:164    .text:0000000000000084 _Z11thread_exitv
     /tmp/ccAApnS4.s:167    .text:0000000000000084 .L0 
     /tmp/ccAApnS4.s:168    .text:0000000000000084 .L0 
     /tmp/ccAApnS4.s:169    .text:0000000000000088 .L0 
     /tmp/ccAApnS4.s:171    .text:000000000000008c .L0 
     /tmp/ccAApnS4.s:173    .text:0000000000000090 .L0 
     /tmp/ccAApnS4.s:175    .text:0000000000000090 .L0 
   src/syscall_c.cpp:38     .text:0000000000000090 .L0 
     /tmp/ccAApnS4.s:181    .text:0000000000000094 .L0 
   src/syscall_c.cpp:39     .text:0000000000000094 .L0 
     /tmp/ccAApnS4.s:186    .text:0000000000000098 .L0 
     /tmp/ccAApnS4.s:187    .text:0000000000000098 .L0 
   src/syscall_c.cpp:41     .text:0000000000000098 .L0 
     /tmp/ccAApnS4.s:193    .text:000000000000009c .L0 
     /tmp/ccAApnS4.s:195    .text:000000000000009c .L0 
     /tmp/ccAApnS4.s:198    .text:00000000000000a4 .L0 
     /tmp/ccAApnS4.s:199    .text:00000000000000a4 .L0 
     /tmp/ccAApnS4.s:201    .text:00000000000000a8 .L0 
     /tmp/ccAApnS4.s:203    .text:00000000000000ac .L0 
     /tmp/ccAApnS4.s:209    .text:00000000000000ac _Z13thread_createP3TCBPFvPvES1_
     /tmp/ccAApnS4.s:212    .text:00000000000000ac .L0 
     /tmp/ccAApnS4.s:214    .text:00000000000000ac .L0 
     /tmp/ccAApnS4.s:215    .text:00000000000000b0 .L0 
     /tmp/ccAApnS4.s:217    .text:00000000000000b4 .L0 
     /tmp/ccAApnS4.s:219    .text:00000000000000b8 .L0 
     /tmp/ccAApnS4.s:221    .text:00000000000000b8 .L0 
   src/syscall_c.cpp:47     .text:00000000000000b8 .L0 
     /tmp/ccAApnS4.s:227    .text:00000000000000bc .L0 
   src/syscall_c.cpp:48     .text:00000000000000bc .L0 
     /tmp/ccAApnS4.s:232    .text:00000000000000c0 .L0 
   src/syscall_c.cpp:49     .text:00000000000000c0 .L0 
     /tmp/ccAApnS4.s:237    .text:00000000000000c4 .L0 
   src/syscall_c.cpp:50     .text:00000000000000c4 .L0 
     /tmp/ccAApnS4.s:242    .text:00000000000000c8 .L0 
   src/syscall_c.cpp:51     .text:00000000000000c8 .L0 
     /tmp/ccAApnS4.s:247    .text:00000000000000cc .L0 
     /tmp/ccAApnS4.s:248    .text:00000000000000cc .L0 
   src/syscall_c.cpp:53     .text:00000000000000cc .L0 
     /tmp/ccAApnS4.s:254    .text:00000000000000d0 .L0 
   src/syscall_c.cpp:54     .text:00000000000000d0 .L0 
     /tmp/ccAApnS4.s:260    .text:00000000000000d4 .L0 
     /tmp/ccAApnS4.s:262    .text:00000000000000d4 .L0 
     /tmp/ccAApnS4.s:265    .text:00000000000000dc .L0 
     /tmp/ccAApnS4.s:266    .text:00000000000000dc .L0 
     /tmp/ccAApnS4.s:268    .text:00000000000000e0 .L0 
     /tmp/ccAApnS4.s:270    .text:00000000000000e4 .L0 
     /tmp/ccAApnS4.s:277    .text:00000000000000e4 .L0 
     /tmp/ccAApnS4.s:37     .text:000000000000001c .L2
GAS LISTING /tmp/ccAApnS4.s 			page 9


     /tmp/ccAApnS4.s:869    .debug_abbrev:0000000000000000 .Ldebug_abbrev0
     /tmp/ccAApnS4.s:1783   .debug_str:0000000000000057 .LASF62
     /tmp/ccAApnS4.s:1833   .debug_str:0000000000000285 .LASF63
     /tmp/ccAApnS4.s:1851   .debug_str:00000000000002ee .LASF64
     /tmp/ccAApnS4.s:5      .text:0000000000000000 .Ltext0
     /tmp/ccAApnS4.s:273    .text:00000000000000e4 .Letext0
     /tmp/ccAApnS4.s:1771   .debug_line:0000000000000000 .Ldebug_line0
     /tmp/ccAApnS4.s:1861   .debug_str:0000000000000340 .LASF0
     /tmp/ccAApnS4.s:1873   .debug_str:000000000000038f .LASF1
     /tmp/ccAApnS4.s:1847   .debug_str:00000000000002d7 .LASF2
     /tmp/ccAApnS4.s:1831   .debug_str:000000000000027e .LASF4
     /tmp/ccAApnS4.s:1903   .debug_str:0000000000000472 .LASF3
     /tmp/ccAApnS4.s:1785   .debug_str:000000000000011b .LASF5
     /tmp/ccAApnS4.s:1877   .debug_str:00000000000003b3 .LASF6
     /tmp/ccAApnS4.s:1859   .debug_str:000000000000032d .LASF7
     /tmp/ccAApnS4.s:1921   .debug_str:00000000000004f1 .LASF8
     /tmp/ccAApnS4.s:1817   .debug_str:00000000000001fc .LASF9
     /tmp/ccAApnS4.s:1883   .debug_str:00000000000003df .LASF10
     /tmp/ccAApnS4.s:1919   .debug_str:00000000000004e2 .LASF11
     /tmp/ccAApnS4.s:1787   .debug_str:0000000000000122 .LASF12
     /tmp/ccAApnS4.s:1773   .debug_str:0000000000000000 .LASF13
     /tmp/ccAApnS4.s:1789   .debug_str:0000000000000132 .LASF14
     /tmp/ccAApnS4.s:1897   .debug_str:0000000000000436 .LASF15
     /tmp/ccAApnS4.s:1797   .debug_str:0000000000000169 .LASF16
     /tmp/ccAApnS4.s:1807   .debug_str:00000000000001ad .LASF17
     /tmp/ccAApnS4.s:1777   .debug_str:000000000000002a .LASF65
     /tmp/ccAApnS4.s:1927   .debug_str:0000000000000524 .LASF18
     /tmp/ccAApnS4.s:1915   .debug_str:00000000000004c9 .LASF20
     /tmp/ccAApnS4.s:1813   .debug_str:00000000000001d5 .LASF19
     /tmp/ccAApnS4.s:1819   .debug_str:000000000000020a .LASF21
     /tmp/ccAApnS4.s:1909   .debug_str:000000000000049f .LASF22
     /tmp/ccAApnS4.s:1895   .debug_str:0000000000000429 .LASF24
     /tmp/ccAApnS4.s:1911   .debug_str:00000000000004af .LASF23
     /tmp/ccAApnS4.s:1917   .debug_str:00000000000004d5 .LASF25
     /tmp/ccAApnS4.s:1801   .debug_str:000000000000018d .LASF26
     /tmp/ccAApnS4.s:1889   .debug_str:0000000000000402 .LASF28
     /tmp/ccAApnS4.s:1879   .debug_str:00000000000003c6 .LASF30
     /tmp/ccAApnS4.s:1815   .debug_str:00000000000001e5 .LASF32
     /tmp/ccAApnS4.s:1853   .debug_str:000000000000030c .LASF27
     /tmp/ccAApnS4.s:1827   .debug_str:000000000000023f .LASF29
     /tmp/ccAApnS4.s:1845   .debug_str:00000000000002ca .LASF31
     /tmp/ccAApnS4.s:1781   .debug_str:000000000000003e .LASF33
     /tmp/ccAApnS4.s:1803   .debug_str:0000000000000192 .LASF66
     /tmp/ccAApnS4.s:1839   .debug_str:00000000000002a4 .LASF34
     /tmp/ccAApnS4.s:1871   .debug_str:000000000000036f .LASF35
     /tmp/ccAApnS4.s:1891   .debug_str:000000000000040e .LASF67
     /tmp/ccAApnS4.s:1791   .debug_str:000000000000013e .LASF36
     /tmp/ccAApnS4.s:1775   .debug_str:0000000000000010 .LASF37
     /tmp/ccAApnS4.s:1885   .debug_str:00000000000003ee .LASF68
     /tmp/ccAApnS4.s:1893   .debug_str:0000000000000413 .LASF69
     /tmp/ccAApnS4.s:1899   .debug_str:000000000000044c .LASF70
     /tmp/ccAApnS4.s:1855   .debug_str:0000000000000318 .LASF71
     /tmp/ccAApnS4.s:1923   .debug_str:0000000000000501 .LASF72
     /tmp/ccAApnS4.s:1835   .debug_str:0000000000000297 .LASF38
     /tmp/ccAApnS4.s:1867   .debug_str:000000000000035c .LASF39
     /tmp/ccAApnS4.s:1865   .debug_str:0000000000000356 .LASF40
     /tmp/ccAApnS4.s:1837   .debug_str:000000000000029c .LASF41
GAS LISTING /tmp/ccAApnS4.s 			page 10


     /tmp/ccAApnS4.s:1869   .debug_str:0000000000000365 .LASF42
     /tmp/ccAApnS4.s:1849   .debug_str:00000000000002e5 .LASF43
     /tmp/ccAApnS4.s:1905   .debug_str:0000000000000484 .LASF73
     /tmp/ccAApnS4.s:1841   .debug_str:00000000000002b1 .LASF44
     /tmp/ccAApnS4.s:1825   .debug_str:0000000000000234 .LASF45
     /tmp/ccAApnS4.s:1843   .debug_str:00000000000002bc .LASF46
     /tmp/ccAApnS4.s:1821   .debug_str:0000000000000216 .LASF48
     /tmp/ccAApnS4.s:1863   .debug_str:000000000000034d .LASF47
     /tmp/ccAApnS4.s:1805   .debug_str:000000000000019a .LASF49
     /tmp/ccAApnS4.s:1925   .debug_str:0000000000000516 .LASF74
     /tmp/ccAApnS4.s:1829   .debug_str:0000000000000256 .LASF75
     /tmp/ccAApnS4.s:1799   .debug_str:000000000000017f .LASF52
     /tmp/ccAApnS4.s:1901   .debug_str:0000000000000452 .LASF54
     /tmp/ccAApnS4.s:210    .text:00000000000000ac .LFB44
     /tmp/ccAApnS4.s:271    .text:00000000000000e4 .LFE44
     /tmp/ccAApnS4.s:1913   .debug_str:00000000000004c2 .LASF50
     /tmp/ccAApnS4.s:1681   .debug_loc:0000000000000000 .LLST6
     /tmp/ccAApnS4.s:1811   .debug_str:00000000000001c7 .LASF51
     /tmp/ccAApnS4.s:1695   .debug_loc:0000000000000039 .LLST7
     /tmp/ccAApnS4.s:1779   .debug_str:0000000000000032 .LASF53
     /tmp/ccAApnS4.s:1875   .debug_str:00000000000003a2 .LASF55
     /tmp/ccAApnS4.s:165    .text:0000000000000084 .LFB43
     /tmp/ccAApnS4.s:204    .text:00000000000000ac .LFE43
     /tmp/ccAApnS4.s:1702   .debug_loc:000000000000005c .LLST5
     /tmp/ccAApnS4.s:1793   .debug_str:000000000000014b .LASF76
     /tmp/ccAApnS4.s:1809   .debug_str:00000000000001b2 .LASF77
     /tmp/ccAApnS4.s:130    .text:0000000000000064 .LFB42
     /tmp/ccAApnS4.s:159    .text:0000000000000084 .LFE42
     /tmp/ccAApnS4.s:1887   .debug_str:00000000000003f9 .LASF56
     /tmp/ccAApnS4.s:1881   .debug_str:00000000000003d1 .LASF57
     /tmp/ccAApnS4.s:79     .text:0000000000000038 .LFB41
     /tmp/ccAApnS4.s:124    .text:0000000000000064 .LFE41
     /tmp/ccAApnS4.s:1709   .debug_loc:000000000000007f .LLST3
     /tmp/ccAApnS4.s:1723   .debug_loc:00000000000000b8 .LLST4
     /tmp/ccAApnS4.s:1907   .debug_str:0000000000000495 .LASF58
     /tmp/ccAApnS4.s:1795   .debug_str:000000000000015b .LASF59
     /tmp/ccAApnS4.s:10     .text:0000000000000000 .LFB40
     /tmp/ccAApnS4.s:73     .text:0000000000000038 .LFE40
     /tmp/ccAApnS4.s:1857   .debug_str:0000000000000328 .LASF60
     /tmp/ccAApnS4.s:1730   .debug_loc:00000000000000db .LLST0
     /tmp/ccAApnS4.s:1823   .debug_str:000000000000022f .LASF61
     /tmp/ccAApnS4.s:1744   .debug_loc:0000000000000114 .LLST1
     /tmp/ccAApnS4.s:28     .text:0000000000000014 .LBB3
     /tmp/ccAApnS4.s:38     .text:000000000000001c .LBE3
     /tmp/ccAApnS4.s:1751   .debug_loc:0000000000000137 .LLST2
     /tmp/ccAApnS4.s:213    .text:00000000000000ac .LVL10
     /tmp/ccAApnS4.s:252    .text:00000000000000d0 .LVL11
     /tmp/ccAApnS4.s:258    .text:00000000000000d4 .LVL12
     /tmp/ccAApnS4.s:263    .text:00000000000000d8 .LVL13
     /tmp/ccAApnS4.s:191    .text:000000000000009c .LVL8
     /tmp/ccAApnS4.s:196    .text:00000000000000a0 .LVL9
     /tmp/ccAApnS4.s:82     .text:0000000000000038 .LVL5
     /tmp/ccAApnS4.s:111    .text:0000000000000054 .LVL6
     /tmp/ccAApnS4.s:116    .text:0000000000000058 .LVL7
     /tmp/ccAApnS4.s:14     .text:0000000000000000 .LVL0
     /tmp/ccAApnS4.s:34     .text:0000000000000018 .LVL2
     /tmp/ccAApnS4.s:36     .text:000000000000001c .LVL3
GAS LISTING /tmp/ccAApnS4.s 			page 11


     /tmp/ccAApnS4.s:62     .text:000000000000002c .LVL4
     /tmp/ccAApnS4.s:30     .text:0000000000000014 .LVL1
     /tmp/ccAApnS4.s:278    .debug_info:0000000000000000 .Ldebug_info0

NO UNDEFINED SYMBOLS
