GAS LISTING /tmp/ccTcIOV2.s 			page 1


   1              		.file	"syscall_c.cpp"
   2              		.option pic
   3              		.option norelax
   4              		.text
   5              	.Ltext0:
   6              		.align	2
   7              		.globl	_Z9mem_allocm
   9              	_Z9mem_allocm:
  10              	.LFB40:
  11              		.file 1 "src/syscall_c.cpp"
   1:src/syscall_c.cpp **** //
   2:src/syscall_c.cpp **** // Created by os on 5/18/24.
   3:src/syscall_c.cpp **** //
   4:src/syscall_c.cpp **** 
   5:src/syscall_c.cpp **** #include "../h/syscall_c.hpp"
   6:src/syscall_c.cpp **** 
   7:src/syscall_c.cpp **** void* mem_alloc (size_t size){
  12              		.loc 1 7 30
  13              		.cfi_startproc
  14              	.LVL0:
  15 0000 130101FF 		addi	sp,sp,-16
  16              		.cfi_def_cfa_offset 16
  17 0004 23348100 		sd	s0,8(sp)
  18              		.cfi_offset 8, -8
  19 0008 13040101 		addi	s0,sp,16
  20              		.cfi_def_cfa 8, 0
   8:src/syscall_c.cpp ****     size_t real;
  21              		.loc 1 8 5
   9:src/syscall_c.cpp ****     if(size % MEM_BLOCK_SIZE == 0)  real = size;
  22              		.loc 1 9 5
  23              	.LBB2:
  24              		.loc 1 9 13 is_stmt 0
  25 000c 9377F503 		andi	a5,a0,63
  26              		.loc 1 9 5
  27 0010 63860700 		beqz	a5,.L2
  28              	.LBB3:
  10:src/syscall_c.cpp ****     else {
  11:src/syscall_c.cpp ****         size_t rem = size % MEM_BLOCK_SIZE;
  29              		.loc 1 11 9 is_stmt 1
  30              	.LVL1:
  12:src/syscall_c.cpp ****         real = size - rem + MEM_BLOCK_SIZE;
  31              		.loc 1 12 9
  32              		.loc 1 12 14 is_stmt 0
  33 0014 137505FC 		andi	a0,a0,-64
  34              	.LVL2:
  35 0018 13050504 		addi	a0,a0,64
  36              	.LVL3:
  37              	.L2:
  38              	.LBE3:
  39              	.LBE2:
  13:src/syscall_c.cpp ****     }
  14:src/syscall_c.cpp **** 
  15:src/syscall_c.cpp ****     __asm__ volatile("mv a1, %0" :: "r"(real));
  40              		.loc 1 15 5 is_stmt 1
  41              		.loc 1 15 47 is_stmt 0
  42              	#APP
  43              	# 15 "src/syscall_c.cpp" 1
GAS LISTING /tmp/ccTcIOV2.s 			page 2


  16              	    __asm__ volatile("li a0, 0x01");
  44              		mv a1, a0
  45              	# 0 "" 2
  46              		.loc 1 16 5 is_stmt 1
  47              		.loc 1 16 36 is_stmt 0
  48              	# 16 "src/syscall_c.cpp" 1
  17              	    __asm__ volatile("ecall");
  49              		li a0, 0x01
  50              	# 0 "" 2
  51              		.loc 1 17 5 is_stmt 1
  52              		.loc 1 17 30 is_stmt 0
  53              	# 17 "src/syscall_c.cpp" 1
  18              	    void* r;
  54              		ecall
  55              	# 0 "" 2
  56              		.loc 1 18 5 is_stmt 1
  19:src/syscall_c.cpp ****     __asm__ volatile("mv %0,a0":"=r"(r));
  57              		.loc 1 19 5
  58              		.loc 1 19 41 is_stmt 0
  59              	# 19 "src/syscall_c.cpp" 1
  20              	    return  r;
  60              		mv a0,a0
  61              	# 0 "" 2
  62              	.LVL4:
  63              		.loc 1 20 5 is_stmt 1
  21:src/syscall_c.cpp **** }
  64              		.loc 1 21 1 is_stmt 0
  65              	#NO_APP
  66 002c 03348100 		ld	s0,8(sp)
  67              		.cfi_restore 8
  68              		.cfi_def_cfa 2, 16
  69 0030 13010101 		addi	sp,sp,16
  70              		.cfi_def_cfa_offset 0
  71 0034 67800000 		jr	ra
  72              		.cfi_endproc
  73              	.LFE40:
  75              		.align	2
  76              		.globl	_Z8mem_freePv
  78              	_Z8mem_freePv:
  79              	.LFB41:
  22:src/syscall_c.cpp **** int mem_free (void* p){
  80              		.loc 1 22 23 is_stmt 1
  81              		.cfi_startproc
  82              	.LVL5:
  83 0038 130101FF 		addi	sp,sp,-16
  84              		.cfi_def_cfa_offset 16
  85 003c 23348100 		sd	s0,8(sp)
  86              		.cfi_offset 8, -8
  87 0040 13040101 		addi	s0,sp,16
  88              		.cfi_def_cfa 8, 0
  23:src/syscall_c.cpp ****     __asm__ volatile("mv a1, %0":: "r"(p));
  89              		.loc 1 23 5
  90              		.loc 1 23 43 is_stmt 0
  91              	#APP
  92              	# 23 "src/syscall_c.cpp" 1
  24              	    __asm__ volatile("li a0, 0x02");
  93              		mv a1, a0
GAS LISTING /tmp/ccTcIOV2.s 			page 3


  94              	# 0 "" 2
  95              		.loc 1 24 5 is_stmt 1
  96              		.loc 1 24 36 is_stmt 0
  97              	# 24 "src/syscall_c.cpp" 1
  25              	    __asm__ volatile("ecall");
  98              		li a0, 0x02
  99              	# 0 "" 2
 100              		.loc 1 25 5 is_stmt 1
 101              		.loc 1 25 30 is_stmt 0
 102              	# 25 "src/syscall_c.cpp" 1
  26              	
  27:src/syscall_c.cpp ****     uint64 r;//
 103              		ecall
 104              	# 0 "" 2
 105              		.loc 1 27 5 is_stmt 1
  28:src/syscall_c.cpp ****     __asm__ volatile("mv %0, a0": "=r"(r));
 106              		.loc 1 28 5
 107              		.loc 1 28 43 is_stmt 0
 108              	# 28 "src/syscall_c.cpp" 1
  29              	    return (int)r;
 109              		mv a0, a0
 110              	# 0 "" 2
 111              	.LVL6:
 112              		.loc 1 29 5 is_stmt 1
  30:src/syscall_c.cpp **** }
 113              		.loc 1 30 1 is_stmt 0
 114              	#NO_APP
 115 0054 1B050500 		sext.w	a0,a0
 116              	.LVL7:
 117 0058 03348100 		ld	s0,8(sp)
 118              		.cfi_restore 8
 119              		.cfi_def_cfa 2, 16
 120 005c 13010101 		addi	sp,sp,16
 121              		.cfi_def_cfa_offset 0
 122 0060 67800000 		jr	ra
 123              		.cfi_endproc
 124              	.LFE41:
 126              		.align	2
 127              		.globl	_Z15thread_dispatchv
 129              	_Z15thread_dispatchv:
 130              	.LFB42:
  31:src/syscall_c.cpp **** 
  32:src/syscall_c.cpp **** void thread_dispatch() {
 131              		.loc 1 32 24 is_stmt 1
 132              		.cfi_startproc
 133 0064 130101FF 		addi	sp,sp,-16
 134              		.cfi_def_cfa_offset 16
 135 0068 23348100 		sd	s0,8(sp)
 136              		.cfi_offset 8, -8
 137 006c 13040101 		addi	s0,sp,16
 138              		.cfi_def_cfa 8, 0
  33:src/syscall_c.cpp ****     __asm__ volatile("li a0, 0x13");
 139              		.loc 1 33 5
 140              		.loc 1 33 36 is_stmt 0
 141              	#APP
 142              	# 33 "src/syscall_c.cpp" 1
  34              	    __asm__ volatile("ecall");
GAS LISTING /tmp/ccTcIOV2.s 			page 4


 143              		li a0, 0x13
 144              	# 0 "" 2
 145              		.loc 1 34 5 is_stmt 1
 146              		.loc 1 34 30 is_stmt 0
 147              	# 34 "src/syscall_c.cpp" 1
  35              	}
 148              		ecall
 149              	# 0 "" 2
 150              		.loc 1 35 1
 151              	#NO_APP
 152 0078 03348100 		ld	s0,8(sp)
 153              		.cfi_restore 8
 154              		.cfi_def_cfa 2, 16
 155 007c 13010101 		addi	sp,sp,16
 156              		.cfi_def_cfa_offset 0
 157 0080 67800000 		jr	ra
 158              		.cfi_endproc
 159              	.LFE42:
 161              		.align	2
 162              		.globl	_Z11thread_exitv
 164              	_Z11thread_exitv:
 165              	.LFB43:
  36:src/syscall_c.cpp **** 
  37:src/syscall_c.cpp **** int thread_exit() {
 166              		.loc 1 37 19 is_stmt 1
 167              		.cfi_startproc
 168 0084 130101FF 		addi	sp,sp,-16
 169              		.cfi_def_cfa_offset 16
 170 0088 23348100 		sd	s0,8(sp)
 171              		.cfi_offset 8, -8
 172 008c 13040101 		addi	s0,sp,16
 173              		.cfi_def_cfa 8, 0
  38:src/syscall_c.cpp ****     __asm__ volatile("li a0, 0x12");
 174              		.loc 1 38 5
 175              		.loc 1 38 36 is_stmt 0
 176              	#APP
 177              	# 38 "src/syscall_c.cpp" 1
  39              	    __asm__ volatile("ecall");
 178              		li a0, 0x12
 179              	# 0 "" 2
 180              		.loc 1 39 5 is_stmt 1
 181              		.loc 1 39 30 is_stmt 0
 182              	# 39 "src/syscall_c.cpp" 1
  40              	    uint64 r;//
 183              		ecall
 184              	# 0 "" 2
 185              		.loc 1 40 5 is_stmt 1
  41:src/syscall_c.cpp ****     __asm__ volatile("mv %0, a0": "=r"(r));
 186              		.loc 1 41 5
 187              		.loc 1 41 43 is_stmt 0
 188              	# 41 "src/syscall_c.cpp" 1
  42              	    return (int)r;
 189              		mv a0, a0
 190              	# 0 "" 2
 191              	.LVL8:
 192              		.loc 1 42 5 is_stmt 1
  43:src/syscall_c.cpp **** }
GAS LISTING /tmp/ccTcIOV2.s 			page 5


 193              		.loc 1 43 1 is_stmt 0
 194              	#NO_APP
 195 009c 1B050500 		sext.w	a0,a0
 196              	.LVL9:
 197 00a0 03348100 		ld	s0,8(sp)
 198              		.cfi_restore 8
 199              		.cfi_def_cfa 2, 16
 200 00a4 13010101 		addi	sp,sp,16
 201              		.cfi_def_cfa_offset 0
 202 00a8 67800000 		jr	ra
 203              		.cfi_endproc
 204              	.LFE43:
 206              		.align	2
 207              		.globl	_Z13thread_createPP3TCBPFvPvES2_
 209              	_Z13thread_createPP3TCBPFvPvES2_:
 210              	.LFB44:
  44:src/syscall_c.cpp **** 
  45:src/syscall_c.cpp **** int thread_create(thread_t *handle, void (*start_routine)(void *), void *arg) {
 211              		.loc 1 45 79 is_stmt 1
 212              		.cfi_startproc
 213              	.LVL10:
 214 00ac 130101FD 		addi	sp,sp,-48
 215              		.cfi_def_cfa_offset 48
 216 00b0 23341102 		sd	ra,40(sp)
 217 00b4 23308102 		sd	s0,32(sp)
 218 00b8 233C9100 		sd	s1,24(sp)
 219 00bc 23382101 		sd	s2,16(sp)
 220 00c0 23343101 		sd	s3,8(sp)
 221              		.cfi_offset 1, -8
 222              		.cfi_offset 8, -16
 223              		.cfi_offset 9, -24
 224              		.cfi_offset 18, -32
 225              		.cfi_offset 19, -40
 226 00c4 13040103 		addi	s0,sp,48
 227              		.cfi_def_cfa 8, 0
 228 00c8 13090500 		mv	s2,a0
 229 00cc 93840500 		mv	s1,a1
 230 00d0 93090600 		mv	s3,a2
  46:src/syscall_c.cpp **** 
  47:src/syscall_c.cpp ****     void* stek;
 231              		.loc 1 47 5
  48:src/syscall_c.cpp ****     stek = start_routine != nullptr ? mem_alloc(DEFAULT_STACK_SIZE) : nullptr;
 232              		.loc 1 48 5
 233              		.loc 1 48 37 is_stmt 0
 234 00d4 63860504 		beqz	a1,.L12
 235              		.loc 1 48 48 discriminator 1
 236 00d8 37150000 		li	a0,4096
 237              	.LVL11:
 238 00dc 97000000 		call	_Z9mem_allocm
 238      E7800000 
 239              	.LVL12:
 240              	.L11:
  49:src/syscall_c.cpp ****     __asm__ volatile("mv a4, %0" :: "r"(stek));
 241              		.loc 1 49 5 is_stmt 1 discriminator 4
 242              		.loc 1 49 47 is_stmt 0 discriminator 4
 243              	#APP
 244              	# 49 "src/syscall_c.cpp" 1
GAS LISTING /tmp/ccTcIOV2.s 			page 6


  50              	    __asm__ volatile("mv a3, %0" :: "r"(arg));
 245              		mv a4, a0
 246              	# 0 "" 2
 247              		.loc 1 50 5 is_stmt 1 discriminator 4
 248              		.loc 1 50 46 is_stmt 0 discriminator 4
 249              	# 50 "src/syscall_c.cpp" 1
  51              	    __asm__ volatile("mv a2, %0" :: "r"(start_routine));
 250              		mv a3, s3
 251              	# 0 "" 2
 252              		.loc 1 51 5 is_stmt 1 discriminator 4
 253              		.loc 1 51 56 is_stmt 0 discriminator 4
 254              	# 51 "src/syscall_c.cpp" 1
  52              	    __asm__ volatile("mv a1, %0" :: "r"(handle));
 255              		mv a2, s1
 256              	# 0 "" 2
 257              		.loc 1 52 5 is_stmt 1 discriminator 4
 258              		.loc 1 52 49 is_stmt 0 discriminator 4
 259              	# 52 "src/syscall_c.cpp" 1
  53              	    __asm__ volatile("li a0, 0x11");
 260              		mv a1, s2
 261              	# 0 "" 2
 262              		.loc 1 53 5 is_stmt 1 discriminator 4
 263              		.loc 1 53 36 is_stmt 0 discriminator 4
 264              	# 53 "src/syscall_c.cpp" 1
  54              	    __asm__ volatile("ecall");
 265              		li a0, 0x11
 266              	# 0 "" 2
 267              		.loc 1 54 5 is_stmt 1 discriminator 4
 268              		.loc 1 54 30 is_stmt 0 discriminator 4
 269              	# 54 "src/syscall_c.cpp" 1
  55              	    uint64 r;//
 270              		ecall
 271              	# 0 "" 2
 272              		.loc 1 55 5 is_stmt 1 discriminator 4
  56:src/syscall_c.cpp ****     __asm__ volatile("mv %0, a0": "=r"(r));
 273              		.loc 1 56 5 discriminator 4
 274              		.loc 1 56 43 is_stmt 0 discriminator 4
 275              	# 56 "src/syscall_c.cpp" 1
  57              	    return (int)r;
 276              		mv a0, a0
 277              	# 0 "" 2
 278              	.LVL13:
 279              		.loc 1 57 5 is_stmt 1 discriminator 4
  58:src/syscall_c.cpp **** }
 280              		.loc 1 58 1 is_stmt 0 discriminator 4
 281              	#NO_APP
 282 0100 1B050500 		sext.w	a0,a0
 283              	.LVL14:
 284 0104 83308102 		ld	ra,40(sp)
 285              		.cfi_remember_state
 286              		.cfi_restore 1
 287 0108 03340102 		ld	s0,32(sp)
 288              		.cfi_restore 8
 289              		.cfi_def_cfa 2, 48
 290 010c 83348101 		ld	s1,24(sp)
 291              		.cfi_restore 9
 292              	.LVL15:
GAS LISTING /tmp/ccTcIOV2.s 			page 7


 293 0110 03390101 		ld	s2,16(sp)
 294              		.cfi_restore 18
 295              	.LVL16:
 296 0114 83398100 		ld	s3,8(sp)
 297              		.cfi_restore 19
 298              	.LVL17:
 299 0118 13010103 		addi	sp,sp,48
 300              		.cfi_def_cfa_offset 0
 301 011c 67800000 		jr	ra
 302              	.LVL18:
 303              	.L12:
 304              		.cfi_restore_state
  48:src/syscall_c.cpp ****     __asm__ volatile("mv a4, %0" :: "r"(stek));
 305              		.loc 1 48 37
 306 0120 13050000 		li	a0,0
 307              	.LVL19:
 308 0124 6FF01FFC 		j	.L11
 309              		.cfi_endproc
 310              	.LFE44:
 312              	.Letext0:
 313              		.file 2 "src/../h/../lib/hw.h"
 314              		.file 3 "src/../h/tcb.hpp"
 315              		.file 4 "src/../h/syscall_c.hpp"
GAS LISTING /tmp/ccTcIOV2.s 			page 8


DEFINED SYMBOLS
                            *ABS*:0000000000000000 syscall_c.cpp
     /tmp/ccTcIOV2.s:9      .text:0000000000000000 _Z9mem_allocm
     /tmp/ccTcIOV2.s:13     .text:0000000000000000 .L0 
     /tmp/ccTcIOV2.s:15     .text:0000000000000000 .L0 
     /tmp/ccTcIOV2.s:16     .text:0000000000000004 .L0 
     /tmp/ccTcIOV2.s:18     .text:0000000000000008 .L0 
     /tmp/ccTcIOV2.s:20     .text:000000000000000c .L0 
     /tmp/ccTcIOV2.s:22     .text:000000000000000c .L0 
     /tmp/ccTcIOV2.s:24     .text:000000000000000c .L0 
     /tmp/ccTcIOV2.s:25     .text:000000000000000c .L0 
     /tmp/ccTcIOV2.s:27     .text:0000000000000010 .L0 
     /tmp/ccTcIOV2.s:31     .text:0000000000000014 .L0 
     /tmp/ccTcIOV2.s:32     .text:0000000000000014 .L0 
     /tmp/ccTcIOV2.s:33     .text:0000000000000014 .L0 
     /tmp/ccTcIOV2.s:41     .text:000000000000001c .L0 
   src/syscall_c.cpp:15     .text:000000000000001c .L0 
     /tmp/ccTcIOV2.s:47     .text:0000000000000020 .L0 
   src/syscall_c.cpp:16     .text:0000000000000020 .L0 
     /tmp/ccTcIOV2.s:52     .text:0000000000000024 .L0 
   src/syscall_c.cpp:17     .text:0000000000000024 .L0 
     /tmp/ccTcIOV2.s:57     .text:0000000000000028 .L0 
     /tmp/ccTcIOV2.s:58     .text:0000000000000028 .L0 
   src/syscall_c.cpp:19     .text:0000000000000028 .L0 
     /tmp/ccTcIOV2.s:64     .text:000000000000002c .L0 
     /tmp/ccTcIOV2.s:66     .text:000000000000002c .L0 
     /tmp/ccTcIOV2.s:67     .text:0000000000000030 .L0 
     /tmp/ccTcIOV2.s:68     .text:0000000000000030 .L0 
     /tmp/ccTcIOV2.s:70     .text:0000000000000034 .L0 
     /tmp/ccTcIOV2.s:72     .text:0000000000000038 .L0 
     /tmp/ccTcIOV2.s:78     .text:0000000000000038 _Z8mem_freePv
     /tmp/ccTcIOV2.s:81     .text:0000000000000038 .L0 
     /tmp/ccTcIOV2.s:83     .text:0000000000000038 .L0 
     /tmp/ccTcIOV2.s:84     .text:000000000000003c .L0 
     /tmp/ccTcIOV2.s:86     .text:0000000000000040 .L0 
     /tmp/ccTcIOV2.s:88     .text:0000000000000044 .L0 
     /tmp/ccTcIOV2.s:90     .text:0000000000000044 .L0 
   src/syscall_c.cpp:23     .text:0000000000000044 .L0 
     /tmp/ccTcIOV2.s:96     .text:0000000000000048 .L0 
   src/syscall_c.cpp:24     .text:0000000000000048 .L0 
     /tmp/ccTcIOV2.s:101    .text:000000000000004c .L0 
   src/syscall_c.cpp:25     .text:000000000000004c .L0 
     /tmp/ccTcIOV2.s:106    .text:0000000000000050 .L0 
     /tmp/ccTcIOV2.s:107    .text:0000000000000050 .L0 
   src/syscall_c.cpp:28     .text:0000000000000050 .L0 
     /tmp/ccTcIOV2.s:113    .text:0000000000000054 .L0 
     /tmp/ccTcIOV2.s:115    .text:0000000000000054 .L0 
     /tmp/ccTcIOV2.s:118    .text:000000000000005c .L0 
     /tmp/ccTcIOV2.s:119    .text:000000000000005c .L0 
     /tmp/ccTcIOV2.s:121    .text:0000000000000060 .L0 
     /tmp/ccTcIOV2.s:123    .text:0000000000000064 .L0 
     /tmp/ccTcIOV2.s:129    .text:0000000000000064 _Z15thread_dispatchv
     /tmp/ccTcIOV2.s:132    .text:0000000000000064 .L0 
     /tmp/ccTcIOV2.s:133    .text:0000000000000064 .L0 
     /tmp/ccTcIOV2.s:134    .text:0000000000000068 .L0 
     /tmp/ccTcIOV2.s:136    .text:000000000000006c .L0 
     /tmp/ccTcIOV2.s:138    .text:0000000000000070 .L0 
GAS LISTING /tmp/ccTcIOV2.s 			page 9


     /tmp/ccTcIOV2.s:140    .text:0000000000000070 .L0 
   src/syscall_c.cpp:33     .text:0000000000000070 .L0 
     /tmp/ccTcIOV2.s:146    .text:0000000000000074 .L0 
   src/syscall_c.cpp:34     .text:0000000000000074 .L0 
     /tmp/ccTcIOV2.s:152    .text:0000000000000078 .L0 
     /tmp/ccTcIOV2.s:153    .text:000000000000007c .L0 
     /tmp/ccTcIOV2.s:154    .text:000000000000007c .L0 
     /tmp/ccTcIOV2.s:156    .text:0000000000000080 .L0 
     /tmp/ccTcIOV2.s:158    .text:0000000000000084 .L0 
     /tmp/ccTcIOV2.s:164    .text:0000000000000084 _Z11thread_exitv
     /tmp/ccTcIOV2.s:167    .text:0000000000000084 .L0 
     /tmp/ccTcIOV2.s:168    .text:0000000000000084 .L0 
     /tmp/ccTcIOV2.s:169    .text:0000000000000088 .L0 
     /tmp/ccTcIOV2.s:171    .text:000000000000008c .L0 
     /tmp/ccTcIOV2.s:173    .text:0000000000000090 .L0 
     /tmp/ccTcIOV2.s:175    .text:0000000000000090 .L0 
   src/syscall_c.cpp:38     .text:0000000000000090 .L0 
     /tmp/ccTcIOV2.s:181    .text:0000000000000094 .L0 
   src/syscall_c.cpp:39     .text:0000000000000094 .L0 
     /tmp/ccTcIOV2.s:186    .text:0000000000000098 .L0 
     /tmp/ccTcIOV2.s:187    .text:0000000000000098 .L0 
   src/syscall_c.cpp:41     .text:0000000000000098 .L0 
     /tmp/ccTcIOV2.s:193    .text:000000000000009c .L0 
     /tmp/ccTcIOV2.s:195    .text:000000000000009c .L0 
     /tmp/ccTcIOV2.s:198    .text:00000000000000a4 .L0 
     /tmp/ccTcIOV2.s:199    .text:00000000000000a4 .L0 
     /tmp/ccTcIOV2.s:201    .text:00000000000000a8 .L0 
     /tmp/ccTcIOV2.s:203    .text:00000000000000ac .L0 
     /tmp/ccTcIOV2.s:209    .text:00000000000000ac _Z13thread_createPP3TCBPFvPvES2_
     /tmp/ccTcIOV2.s:212    .text:00000000000000ac .L0 
     /tmp/ccTcIOV2.s:214    .text:00000000000000ac .L0 
     /tmp/ccTcIOV2.s:215    .text:00000000000000b0 .L0 
     /tmp/ccTcIOV2.s:221    .text:00000000000000c4 .L0 
     /tmp/ccTcIOV2.s:222    .text:00000000000000c4 .L0 
     /tmp/ccTcIOV2.s:223    .text:00000000000000c4 .L0 
     /tmp/ccTcIOV2.s:224    .text:00000000000000c4 .L0 
     /tmp/ccTcIOV2.s:225    .text:00000000000000c4 .L0 
     /tmp/ccTcIOV2.s:227    .text:00000000000000c8 .L0 
     /tmp/ccTcIOV2.s:232    .text:00000000000000d4 .L0 
     /tmp/ccTcIOV2.s:233    .text:00000000000000d4 .L0 
     /tmp/ccTcIOV2.s:234    .text:00000000000000d4 .L0 
     /tmp/ccTcIOV2.s:236    .text:00000000000000d8 .L0 
     /tmp/ccTcIOV2.s:242    .text:00000000000000e4 .L0 
   src/syscall_c.cpp:49     .text:00000000000000e4 .L0 
     /tmp/ccTcIOV2.s:248    .text:00000000000000e8 .L0 
   src/syscall_c.cpp:50     .text:00000000000000e8 .L0 
     /tmp/ccTcIOV2.s:253    .text:00000000000000ec .L0 
   src/syscall_c.cpp:51     .text:00000000000000ec .L0 
     /tmp/ccTcIOV2.s:258    .text:00000000000000f0 .L0 
   src/syscall_c.cpp:52     .text:00000000000000f0 .L0 
     /tmp/ccTcIOV2.s:263    .text:00000000000000f4 .L0 
   src/syscall_c.cpp:53     .text:00000000000000f4 .L0 
     /tmp/ccTcIOV2.s:268    .text:00000000000000f8 .L0 
   src/syscall_c.cpp:54     .text:00000000000000f8 .L0 
     /tmp/ccTcIOV2.s:273    .text:00000000000000fc .L0 
     /tmp/ccTcIOV2.s:274    .text:00000000000000fc .L0 
   src/syscall_c.cpp:56     .text:00000000000000fc .L0 
GAS LISTING /tmp/ccTcIOV2.s 			page 10


     /tmp/ccTcIOV2.s:280    .text:0000000000000100 .L0 
     /tmp/ccTcIOV2.s:282    .text:0000000000000100 .L0 
     /tmp/ccTcIOV2.s:285    .text:0000000000000108 .L0 
     /tmp/ccTcIOV2.s:286    .text:0000000000000108 .L0 
     /tmp/ccTcIOV2.s:288    .text:000000000000010c .L0 
     /tmp/ccTcIOV2.s:289    .text:000000000000010c .L0 
     /tmp/ccTcIOV2.s:291    .text:0000000000000110 .L0 
     /tmp/ccTcIOV2.s:294    .text:0000000000000114 .L0 
     /tmp/ccTcIOV2.s:297    .text:0000000000000118 .L0 
     /tmp/ccTcIOV2.s:300    .text:000000000000011c .L0 
     /tmp/ccTcIOV2.s:304    .text:0000000000000120 .L0 
     /tmp/ccTcIOV2.s:306    .text:0000000000000120 .L0 
     /tmp/ccTcIOV2.s:309    .text:0000000000000128 .L0 
     /tmp/ccTcIOV2.s:316    .text:0000000000000128 .L0 
     /tmp/ccTcIOV2.s:37     .text:000000000000001c .L2
     /tmp/ccTcIOV2.s:303    .text:0000000000000120 .L12
     /tmp/ccTcIOV2.s:240    .text:00000000000000e4 .L11
     /tmp/ccTcIOV2.s:922    .debug_abbrev:0000000000000000 .Ldebug_abbrev0
     /tmp/ccTcIOV2.s:1839   .debug_str:0000000000000060 .LASF62
     /tmp/ccTcIOV2.s:1889   .debug_str:000000000000029b .LASF63
     /tmp/ccTcIOV2.s:1905   .debug_str:00000000000002f9 .LASF64
     /tmp/ccTcIOV2.s:5      .text:0000000000000000 .Ltext0
     /tmp/ccTcIOV2.s:312    .text:0000000000000128 .Letext0
     /tmp/ccTcIOV2.s:1825   .debug_line:0000000000000000 .Ldebug_line0
     /tmp/ccTcIOV2.s:1915   .debug_str:000000000000034b .LASF0
     /tmp/ccTcIOV2.s:1925   .debug_str:000000000000037a .LASF1
     /tmp/ccTcIOV2.s:1901   .debug_str:00000000000002e2 .LASF2
     /tmp/ccTcIOV2.s:1887   .debug_str:0000000000000294 .LASF4
     /tmp/ccTcIOV2.s:1955   .debug_str:000000000000045e .LASF3
     /tmp/ccTcIOV2.s:1841   .debug_str:0000000000000124 .LASF5
     /tmp/ccTcIOV2.s:1929   .debug_str:00000000000003ae .LASF6
     /tmp/ccTcIOV2.s:1913   .debug_str:0000000000000338 .LASF7
     /tmp/ccTcIOV2.s:1973   .debug_str:00000000000004dd .LASF8
     /tmp/ccTcIOV2.s:1875   .debug_str:000000000000021d .LASF9
     /tmp/ccTcIOV2.s:1935   .debug_str:00000000000003da .LASF10
     /tmp/ccTcIOV2.s:1971   .debug_str:00000000000004ce .LASF11
     /tmp/ccTcIOV2.s:1843   .debug_str:000000000000012b .LASF12
     /tmp/ccTcIOV2.s:1829   .debug_str:0000000000000009 .LASF13
     /tmp/ccTcIOV2.s:1845   .debug_str:000000000000013b .LASF14
     /tmp/ccTcIOV2.s:1949   .debug_str:0000000000000431 .LASF15
     /tmp/ccTcIOV2.s:1853   .debug_str:0000000000000172 .LASF16
     /tmp/ccTcIOV2.s:1865   .debug_str:00000000000001ce .LASF17
     /tmp/ccTcIOV2.s:1833   .debug_str:0000000000000033 .LASF65
     /tmp/ccTcIOV2.s:1979   .debug_str:000000000000051e .LASF18
     /tmp/ccTcIOV2.s:1967   .debug_str:00000000000004b5 .LASF20
     /tmp/ccTcIOV2.s:1871   .debug_str:00000000000001f6 .LASF19
     /tmp/ccTcIOV2.s:1877   .debug_str:000000000000022b .LASF21
     /tmp/ccTcIOV2.s:1961   .debug_str:000000000000048b .LASF22
     /tmp/ccTcIOV2.s:1947   .debug_str:0000000000000424 .LASF24
     /tmp/ccTcIOV2.s:1963   .debug_str:000000000000049b .LASF23
     /tmp/ccTcIOV2.s:1969   .debug_str:00000000000004c1 .LASF25
     /tmp/ccTcIOV2.s:1859   .debug_str:00000000000001ae .LASF26
     /tmp/ccTcIOV2.s:1941   .debug_str:00000000000003fd .LASF28
     /tmp/ccTcIOV2.s:1931   .debug_str:00000000000003c1 .LASF30
     /tmp/ccTcIOV2.s:1873   .debug_str:0000000000000206 .LASF32
     /tmp/ccTcIOV2.s:1907   .debug_str:0000000000000317 .LASF27
     /tmp/ccTcIOV2.s:1883   .debug_str:0000000000000255 .LASF29
GAS LISTING /tmp/ccTcIOV2.s 			page 11


     /tmp/ccTcIOV2.s:1899   .debug_str:00000000000002d5 .LASF31
     /tmp/ccTcIOV2.s:1837   .debug_str:0000000000000047 .LASF33
     /tmp/ccTcIOV2.s:1861   .debug_str:00000000000001b3 .LASF66
     /tmp/ccTcIOV2.s:1895   .debug_str:00000000000002ba .LASF34
     /tmp/ccTcIOV2.s:1975   .debug_str:00000000000004ed .LASF35
     /tmp/ccTcIOV2.s:1943   .debug_str:0000000000000409 .LASF67
     /tmp/ccTcIOV2.s:1847   .debug_str:0000000000000147 .LASF36
     /tmp/ccTcIOV2.s:1831   .debug_str:0000000000000019 .LASF37
     /tmp/ccTcIOV2.s:1937   .debug_str:00000000000003e9 .LASF68
     /tmp/ccTcIOV2.s:1945   .debug_str:000000000000040e .LASF69
     /tmp/ccTcIOV2.s:1951   .debug_str:0000000000000447 .LASF70
     /tmp/ccTcIOV2.s:1909   .debug_str:0000000000000323 .LASF71
     /tmp/ccTcIOV2.s:1857   .debug_str:0000000000000196 .LASF72
     /tmp/ccTcIOV2.s:1891   .debug_str:00000000000002ad .LASF38
     /tmp/ccTcIOV2.s:1921   .debug_str:0000000000000367 .LASF39
     /tmp/ccTcIOV2.s:1919   .debug_str:0000000000000361 .LASF40
     /tmp/ccTcIOV2.s:1893   .debug_str:00000000000002b2 .LASF41
     /tmp/ccTcIOV2.s:1923   .debug_str:0000000000000370 .LASF42
     /tmp/ccTcIOV2.s:1903   .debug_str:00000000000002f0 .LASF43
     /tmp/ccTcIOV2.s:1957   .debug_str:0000000000000470 .LASF73
     /tmp/ccTcIOV2.s:1897   .debug_str:00000000000002c7 .LASF44
     /tmp/ccTcIOV2.s:1879   .debug_str:0000000000000237 .LASF46
     /tmp/ccTcIOV2.s:1917   .debug_str:0000000000000358 .LASF45
     /tmp/ccTcIOV2.s:1863   .debug_str:00000000000001bb .LASF47
     /tmp/ccTcIOV2.s:1977   .debug_str:0000000000000510 .LASF74
     /tmp/ccTcIOV2.s:1885   .debug_str:000000000000026c .LASF75
     /tmp/ccTcIOV2.s:1827   .debug_str:0000000000000000 .LASF48
     /tmp/ccTcIOV2.s:1855   .debug_str:0000000000000188 .LASF52
     /tmp/ccTcIOV2.s:1927   .debug_str:000000000000038d .LASF54
     /tmp/ccTcIOV2.s:210    .text:00000000000000ac .LFB44
     /tmp/ccTcIOV2.s:310    .text:0000000000000128 .LFE44
     /tmp/ccTcIOV2.s:1965   .debug_str:00000000000004ae .LASF49
     /tmp/ccTcIOV2.s:1672   .debug_loc:0000000000000000 .LLST6
     /tmp/ccTcIOV2.s:1869   .debug_str:00000000000001e8 .LASF50
     /tmp/ccTcIOV2.s:1698   .debug_loc:0000000000000072 .LLST7
     /tmp/ccTcIOV2.s:1720   .debug_loc:00000000000000d1 .LLST8
     /tmp/ccTcIOV2.s:1981   .debug_str:000000000000052b .LASF51
     /tmp/ccTcIOV2.s:1742   .debug_loc:0000000000000130 .LLST9
     /tmp/ccTcIOV2.s:1749   .debug_loc:0000000000000153 .LLST10
     /tmp/ccTcIOV2.s:239    .text:00000000000000e4 .LVL12
     /tmp/ccTcIOV2.s:1835   .debug_str:000000000000003b .LASF53
     /tmp/ccTcIOV2.s:1953   .debug_str:000000000000044d .LASF55
     /tmp/ccTcIOV2.s:165    .text:0000000000000084 .LFB43
     /tmp/ccTcIOV2.s:204    .text:00000000000000ac .LFE43
     /tmp/ccTcIOV2.s:1756   .debug_loc:0000000000000176 .LLST5
     /tmp/ccTcIOV2.s:1849   .debug_str:0000000000000154 .LASF76
     /tmp/ccTcIOV2.s:1867   .debug_str:00000000000001d3 .LASF77
     /tmp/ccTcIOV2.s:130    .text:0000000000000064 .LFB42
     /tmp/ccTcIOV2.s:159    .text:0000000000000084 .LFE42
     /tmp/ccTcIOV2.s:1939   .debug_str:00000000000003f4 .LASF56
     /tmp/ccTcIOV2.s:1933   .debug_str:00000000000003cc .LASF57
     /tmp/ccTcIOV2.s:79     .text:0000000000000038 .LFB41
     /tmp/ccTcIOV2.s:124    .text:0000000000000064 .LFE41
     /tmp/ccTcIOV2.s:1763   .debug_loc:0000000000000199 .LLST3
     /tmp/ccTcIOV2.s:1777   .debug_loc:00000000000001d2 .LLST4
     /tmp/ccTcIOV2.s:1959   .debug_str:0000000000000481 .LASF58
     /tmp/ccTcIOV2.s:1851   .debug_str:0000000000000164 .LASF59
GAS LISTING /tmp/ccTcIOV2.s 			page 12


     /tmp/ccTcIOV2.s:10     .text:0000000000000000 .LFB40
     /tmp/ccTcIOV2.s:73     .text:0000000000000038 .LFE40
     /tmp/ccTcIOV2.s:1911   .debug_str:0000000000000333 .LASF60
     /tmp/ccTcIOV2.s:1784   .debug_loc:00000000000001f5 .LLST0
     /tmp/ccTcIOV2.s:1881   .debug_str:0000000000000250 .LASF61
     /tmp/ccTcIOV2.s:1798   .debug_loc:000000000000022e .LLST1
     /tmp/ccTcIOV2.s:28     .text:0000000000000014 .LBB3
     /tmp/ccTcIOV2.s:38     .text:000000000000001c .LBE3
     /tmp/ccTcIOV2.s:1805   .debug_loc:0000000000000251 .LLST2
     /tmp/ccTcIOV2.s:213    .text:00000000000000ac .LVL10
     /tmp/ccTcIOV2.s:237    .text:00000000000000dc .LVL11
     /tmp/ccTcIOV2.s:295    .text:0000000000000114 .LVL16
     /tmp/ccTcIOV2.s:302    .text:0000000000000120 .LVL18
     /tmp/ccTcIOV2.s:307    .text:0000000000000124 .LVL19
     /tmp/ccTcIOV2.s:292    .text:0000000000000110 .LVL15
     /tmp/ccTcIOV2.s:298    .text:0000000000000118 .LVL17
     /tmp/ccTcIOV2.s:278    .text:0000000000000100 .LVL13
     /tmp/ccTcIOV2.s:283    .text:0000000000000104 .LVL14
     /tmp/ccTcIOV2.s:191    .text:000000000000009c .LVL8
     /tmp/ccTcIOV2.s:196    .text:00000000000000a0 .LVL9
     /tmp/ccTcIOV2.s:82     .text:0000000000000038 .LVL5
     /tmp/ccTcIOV2.s:111    .text:0000000000000054 .LVL6
     /tmp/ccTcIOV2.s:116    .text:0000000000000058 .LVL7
     /tmp/ccTcIOV2.s:14     .text:0000000000000000 .LVL0
     /tmp/ccTcIOV2.s:34     .text:0000000000000018 .LVL2
     /tmp/ccTcIOV2.s:36     .text:000000000000001c .LVL3
     /tmp/ccTcIOV2.s:62     .text:000000000000002c .LVL4
     /tmp/ccTcIOV2.s:30     .text:0000000000000014 .LVL1
     /tmp/ccTcIOV2.s:317    .debug_info:0000000000000000 .Ldebug_info0

NO UNDEFINED SYMBOLS
