GAS LISTING /tmp/cchTObeI.s 			page 1


   1              		.file	"tcb.cpp"
   2              		.option pic
   3              		.option norelax
   4              		.text
   5              	.Ltext0:
   6              		.align	2
   7              		.globl	_ZN3TCBnwEm
   9              	_ZN3TCBnwEm:
  10              	.LFB38:
  11              		.file 1 "src/tcb.cpp"
   1:src/tcb.cpp   **** //
   2:src/tcb.cpp   **** // Created by os on 5/19/24.
   3:src/tcb.cpp   **** //
   4:src/tcb.cpp   **** 
   5:src/tcb.cpp   **** #include "../h/tcb.hpp"
   6:src/tcb.cpp   **** 
   7:src/tcb.cpp   **** 
   8:src/tcb.cpp   **** TCB *TCB::running = nullptr;
   9:src/tcb.cpp   **** uint64 TCB::timeSliceCounter = 0;
  10:src/tcb.cpp   **** 
  11:src/tcb.cpp   **** void *TCB::operator new(size_t n)
  12:src/tcb.cpp   **** {
  12              		.loc 1 12 1
  13              		.cfi_startproc
  14              	.LVL0:
  15 0000 130101FF 		addi	sp,sp,-16
  16              		.cfi_def_cfa_offset 16
  17 0004 23341100 		sd	ra,8(sp)
  18 0008 23308100 		sd	s0,0(sp)
  19              		.cfi_offset 1, -8
  20              		.cfi_offset 8, -16
  21 000c 13040101 		addi	s0,sp,16
  22              		.cfi_def_cfa 8, 0
  13:src/tcb.cpp   ****     return MemoryAllocator::mem_alloc(n);
  23              		.loc 1 13 5
  24              		.loc 1 13 38 is_stmt 0
  25 0010 97000000 		call	_ZN15MemoryAllocator9mem_allocEm@plt
  25      E7800000 
  26              	.LVL1:
  14:src/tcb.cpp   **** }
  27              		.loc 1 14 1
  28 0018 83308100 		ld	ra,8(sp)
  29              		.cfi_restore 1
  30 001c 03340100 		ld	s0,0(sp)
  31              		.cfi_restore 8
  32              		.cfi_def_cfa 2, 16
  33 0020 13010101 		addi	sp,sp,16
  34              		.cfi_def_cfa_offset 0
  35 0024 67800000 		jr	ra
  36              		.cfi_endproc
  37              	.LFE38:
  39              		.align	2
  40              		.globl	_ZN3TCBnaEm
  42              	_ZN3TCBnaEm:
  43              	.LFB39:
  15:src/tcb.cpp   **** 
  16:src/tcb.cpp   **** void *TCB::operator new[](size_t n)
GAS LISTING /tmp/cchTObeI.s 			page 2


  17:src/tcb.cpp   **** {
  44              		.loc 1 17 1 is_stmt 1
  45              		.cfi_startproc
  46              	.LVL2:
  47 0028 130101FF 		addi	sp,sp,-16
  48              		.cfi_def_cfa_offset 16
  49 002c 23341100 		sd	ra,8(sp)
  50 0030 23308100 		sd	s0,0(sp)
  51              		.cfi_offset 1, -8
  52              		.cfi_offset 8, -16
  53 0034 13040101 		addi	s0,sp,16
  54              		.cfi_def_cfa 8, 0
  18:src/tcb.cpp   ****     return MemoryAllocator::mem_alloc(n);
  55              		.loc 1 18 5
  56              		.loc 1 18 38 is_stmt 0
  57 0038 97000000 		call	_ZN15MemoryAllocator9mem_allocEm@plt
  57      E7800000 
  58              	.LVL3:
  19:src/tcb.cpp   **** }
  59              		.loc 1 19 1
  60 0040 83308100 		ld	ra,8(sp)
  61              		.cfi_restore 1
  62 0044 03340100 		ld	s0,0(sp)
  63              		.cfi_restore 8
  64              		.cfi_def_cfa 2, 16
  65 0048 13010101 		addi	sp,sp,16
  66              		.cfi_def_cfa_offset 0
  67 004c 67800000 		jr	ra
  68              		.cfi_endproc
  69              	.LFE39:
  71              		.align	2
  72              		.globl	_ZN3TCBdlEPv
  74              	_ZN3TCBdlEPv:
  75              	.LFB40:
  20:src/tcb.cpp   **** 
  21:src/tcb.cpp   **** void TCB::operator delete(void *p) noexcept
  22:src/tcb.cpp   **** {
  76              		.loc 1 22 1 is_stmt 1
  77              		.cfi_startproc
  78              		.cfi_personality 0x9b,DW.ref.__gxx_personality_v0
  79              		.cfi_lsda 0x1b,.LLSDA40
  80              	.LVL4:
  81 0050 130101FF 		addi	sp,sp,-16
  82              		.cfi_def_cfa_offset 16
  83 0054 23341100 		sd	ra,8(sp)
  84 0058 23308100 		sd	s0,0(sp)
  85              		.cfi_offset 1, -8
  86              		.cfi_offset 8, -16
  87 005c 13040101 		addi	s0,sp,16
  88              		.cfi_def_cfa 8, 0
  23:src/tcb.cpp   ****     MemoryAllocator::mem_free(p);
  89              		.loc 1 23 5
  90              		.loc 1 23 30 is_stmt 0
  91 0060 97000000 		call	_ZN15MemoryAllocator8mem_freeEPKv@plt
  91      E7800000 
  92              	.LVL5:
  24:src/tcb.cpp   **** }
GAS LISTING /tmp/cchTObeI.s 			page 3


  93              		.loc 1 24 1
  94 0068 83308100 		ld	ra,8(sp)
  95              		.cfi_restore 1
  96 006c 03340100 		ld	s0,0(sp)
  97              		.cfi_restore 8
  98              		.cfi_def_cfa 2, 16
  99 0070 13010101 		addi	sp,sp,16
 100              		.cfi_def_cfa_offset 0
 101 0074 67800000 		jr	ra
 102              		.cfi_endproc
 103              	.LFE40:
 104              		.globl	__gxx_personality_v0
 105              		.section	.gcc_except_table,"a",@progbits
 106              	.LLSDA40:
 107 0000 FF       		.byte	0xff
 108 0001 FF       		.byte	0xff
 109 0002 03       		.byte	0x3
 110 0003 00       		.byte	0
 111              		.text
 113              		.align	2
 114              		.globl	_ZN3TCBdaEPv
 116              	_ZN3TCBdaEPv:
 117              	.LFB41:
  25:src/tcb.cpp   **** 
  26:src/tcb.cpp   **** void TCB::operator delete[](void *p) noexcept
  27:src/tcb.cpp   **** {
 118              		.loc 1 27 1 is_stmt 1
 119              		.cfi_startproc
 120              		.cfi_personality 0x9b,DW.ref.__gxx_personality_v0
 121              		.cfi_lsda 0x1b,.LLSDA41
 122              	.LVL6:
 123 0078 130101FF 		addi	sp,sp,-16
 124              		.cfi_def_cfa_offset 16
 125 007c 23341100 		sd	ra,8(sp)
 126 0080 23308100 		sd	s0,0(sp)
 127              		.cfi_offset 1, -8
 128              		.cfi_offset 8, -16
 129 0084 13040101 		addi	s0,sp,16
 130              		.cfi_def_cfa 8, 0
  28:src/tcb.cpp   ****     MemoryAllocator::mem_free(p);
 131              		.loc 1 28 5
 132              		.loc 1 28 30 is_stmt 0
 133 0088 97000000 		call	_ZN15MemoryAllocator8mem_freeEPKv@plt
 133      E7800000 
 134              	.LVL7:
  29:src/tcb.cpp   **** }
 135              		.loc 1 29 1
 136 0090 83308100 		ld	ra,8(sp)
 137              		.cfi_restore 1
 138 0094 03340100 		ld	s0,0(sp)
 139              		.cfi_restore 8
 140              		.cfi_def_cfa 2, 16
 141 0098 13010101 		addi	sp,sp,16
 142              		.cfi_def_cfa_offset 0
 143 009c 67800000 		jr	ra
 144              		.cfi_endproc
 145              	.LFE41:
GAS LISTING /tmp/cchTObeI.s 			page 4


 146              		.section	.gcc_except_table
 147              	.LLSDA41:
 148 0004 FF       		.byte	0xff
 149 0005 FF       		.byte	0xff
 150 0006 03       		.byte	0x3
 151 0007 00       		.byte	0
 152              		.text
 154              		.align	2
 155              		.globl	_ZN3TCB5yieldEv
 157              	_ZN3TCB5yieldEv:
 158              	.LFB42:
  30:src/tcb.cpp   **** void TCB::yield(){
 159              		.loc 1 30 18 is_stmt 1
 160              		.cfi_startproc
 161 00a0 130101FF 		addi	sp,sp,-16
 162              		.cfi_def_cfa_offset 16
 163 00a4 23348100 		sd	s0,8(sp)
 164              		.cfi_offset 8, -8
 165 00a8 13040101 		addi	s0,sp,16
 166              		.cfi_def_cfa 8, 0
  31:src/tcb.cpp   ****     __asm__ volatile("li a0, 0x13");
 167              		.loc 1 31 5
 168              		.loc 1 31 36 is_stmt 0
 169              	#APP
 170              	# 31 "src/tcb.cpp" 1
  32              	    __asm__ volatile("ecall");
 171              		li a0, 0x13
 172              	# 0 "" 2
 173              		.loc 1 32 5 is_stmt 1
 174              		.loc 1 32 30 is_stmt 0
 175              	# 32 "src/tcb.cpp" 1
  33              	    //TCB::timeSliceCounter=0;
  34:src/tcb.cpp   ****     //TCB::dispatch();
  35:src/tcb.cpp   **** }
 176              		ecall
 177              	# 0 "" 2
 178              		.loc 1 35 1
 179              	#NO_APP
 180 00b4 03348100 		ld	s0,8(sp)
 181              		.cfi_restore 8
 182              		.cfi_def_cfa 2, 16
 183 00b8 13010101 		addi	sp,sp,16
 184              		.cfi_def_cfa_offset 0
 185 00bc 67800000 		jr	ra
 186              		.cfi_endproc
 187              	.LFE42:
 189              		.align	2
 190              		.globl	_ZN3TCB13threadWrapperEv
 192              	_ZN3TCB13threadWrapperEv:
 193              	.LFB47:
  36:src/tcb.cpp   **** 
  37:src/tcb.cpp   **** void TCB::dispatch(){
  38:src/tcb.cpp   **** 
  39:src/tcb.cpp   ****     TCB* old= running;
  40:src/tcb.cpp   ****     if(!old->isFinished() && !old->blocked){
  41:src/tcb.cpp   ****         Scheduler::put(old);
  42:src/tcb.cpp   ****     }
GAS LISTING /tmp/cchTObeI.s 			page 5


  43:src/tcb.cpp   ****     running = Scheduler::get();
  44:src/tcb.cpp   ****     TCB::contextSwitch(&old->context, &running->context);
  45:src/tcb.cpp   **** }
  46:src/tcb.cpp   **** 
  47:src/tcb.cpp   **** TCB *TCB::createThread(Body body, void * argument, void*stek) {
  48:src/tcb.cpp   ****     return new TCB(body,DEFAULT_TIME_SLICE, argument, stek);
  49:src/tcb.cpp   **** }
  50:src/tcb.cpp   **** 
  51:src/tcb.cpp   **** void TCB::deleteThread(TCB* thread){
  52:src/tcb.cpp   ****     delete thread;
  53:src/tcb.cpp   **** }
  54:src/tcb.cpp   **** 
  55:src/tcb.cpp   **** 
  56:src/tcb.cpp   **** int TCB::exitThread(){
  57:src/tcb.cpp   ****     TCB::running->setFinished(true);
  58:src/tcb.cpp   ****     TCB::yield();
  59:src/tcb.cpp   ****     return 0;
  60:src/tcb.cpp   **** }
  61:src/tcb.cpp   **** 
  62:src/tcb.cpp   **** 
  63:src/tcb.cpp   **** void TCB::threadWrapper() {
 194              		.loc 1 63 27 is_stmt 1
 195              		.cfi_startproc
 196 00c0 130101FE 		addi	sp,sp,-32
 197              		.cfi_def_cfa_offset 32
 198 00c4 233C1100 		sd	ra,24(sp)
 199 00c8 23388100 		sd	s0,16(sp)
 200 00cc 23349100 		sd	s1,8(sp)
 201              		.cfi_offset 1, -8
 202              		.cfi_offset 8, -16
 203              		.cfi_offset 9, -24
 204 00d0 13040102 		addi	s0,sp,32
 205              		.cfi_def_cfa 8, 0
  64:src/tcb.cpp   **** 
  65:src/tcb.cpp   ****     Riscv::popSppSpie();
 206              		.loc 1 65 5
 207              		.loc 1 65 22 is_stmt 0
 208 00d4 97000000 		call	_ZN5Riscv10popSppSpieEv@plt
 208      E7800000 
 209              	.LVL8:
  66:src/tcb.cpp   ****     running->body(running->argument);
 210              		.loc 1 66 5 is_stmt 1
 211              		.loc 1 66 14 is_stmt 0
 212 00dc 97040000 		lla	s1,.LANCHOR0
 212      93840400 
 213 00e4 83B70400 		ld	a5,0(s1)
 214 00e8 03B70700 		ld	a4,0(a5)
 215              		.loc 1 66 18
 216 00ec 03B58700 		ld	a0,8(a5)
 217 00f0 E7000700 		jalr	a4
 218              	.LVL9:
  67:src/tcb.cpp   ****     running->setFinished(true);
 219              		.loc 1 67 5 is_stmt 1
 220              		.loc 1 67 25 is_stmt 0
 221 00f4 83B70400 		ld	a5,0(s1)
 222              	.LVL10:
 223              	.LBB14:
GAS LISTING /tmp/cchTObeI.s 			page 6


 224              	.LBB15:
 225              		.file 2 "src/../h/tcb.hpp"
   1:src/../h/tcb.hpp **** //
   2:src/../h/tcb.hpp **** // Created by os on 5/19/24.
   3:src/../h/tcb.hpp **** //
   4:src/../h/tcb.hpp **** 
   5:src/../h/tcb.hpp **** #ifndef PROJEKAT_TCB_HPP
   6:src/../h/tcb.hpp **** #define PROJEKAT_TCB_HPP
   7:src/../h/tcb.hpp **** #include "../lib/hw.h"
   8:src/../h/tcb.hpp **** #include "scheduler.hpp"
   9:src/../h/tcb.hpp **** #include "riscv.hpp"
  10:src/../h/tcb.hpp **** 
  11:src/../h/tcb.hpp **** class TCB {
  12:src/../h/tcb.hpp **** 
  13:src/../h/tcb.hpp ****     void *operator new(size_t n);
  14:src/../h/tcb.hpp **** 
  15:src/../h/tcb.hpp ****     void *operator new[](size_t n);
  16:src/../h/tcb.hpp **** 
  17:src/../h/tcb.hpp ****     void operator delete(void *p) noexcept;
  18:src/../h/tcb.hpp **** 
  19:src/../h/tcb.hpp ****     void operator delete[](void *p) noexcept;
  20:src/../h/tcb.hpp **** 
  21:src/../h/tcb.hpp **** public:
  22:src/../h/tcb.hpp ****     ~TCB(){ delete stack;}
  23:src/../h/tcb.hpp ****     bool isFinished() const {return finished;}
  24:src/../h/tcb.hpp ****     void setFinished(bool f) { finished = f;}
 226              		.loc 2 24 32 is_stmt 1
 227              		.loc 2 24 41 is_stmt 0
 228 00f8 13071000 		li	a4,1
 229 00fc 238CE702 		sb	a4,56(a5)
 230              	.LVL11:
 231              	.LBE15:
 232              	.LBE14:
  68:src/tcb.cpp   ****     TCB::yield();
 233              		.loc 1 68 5 is_stmt 1
 234              		.loc 1 68 15 is_stmt 0
 235 0100 97000000 		call	_ZN3TCB5yieldEv
 235      E7800000 
 236              	.LVL12:
  69:src/tcb.cpp   **** }
 237              		.loc 1 69 1
 238 0108 83308101 		ld	ra,24(sp)
 239              		.cfi_restore 1
 240 010c 03340101 		ld	s0,16(sp)
 241              		.cfi_restore 8
 242              		.cfi_def_cfa 2, 32
 243 0110 83348100 		ld	s1,8(sp)
 244              		.cfi_restore 9
 245 0114 13010102 		addi	sp,sp,32
 246              		.cfi_def_cfa_offset 0
 247 0118 67800000 		jr	ra
 248              		.cfi_endproc
 249              	.LFE47:
 251              		.align	2
 252              		.globl	_ZN3TCB8dispatchEv
 254              	_ZN3TCB8dispatchEv:
 255              	.LFB43:
GAS LISTING /tmp/cchTObeI.s 			page 7


  37:src/tcb.cpp   **** 
 256              		.loc 1 37 21 is_stmt 1
 257              		.cfi_startproc
 258 011c 130101FE 		addi	sp,sp,-32
 259              		.cfi_def_cfa_offset 32
 260 0120 233C1100 		sd	ra,24(sp)
 261 0124 23388100 		sd	s0,16(sp)
 262 0128 23349100 		sd	s1,8(sp)
 263              		.cfi_offset 1, -8
 264              		.cfi_offset 8, -16
 265              		.cfi_offset 9, -24
 266 012c 13040102 		addi	s0,sp,32
 267              		.cfi_def_cfa 8, 0
  39:src/tcb.cpp   ****     if(!old->isFinished() && !old->blocked){
 268              		.loc 1 39 5
  39:src/tcb.cpp   ****     if(!old->isFinished() && !old->blocked){
 269              		.loc 1 39 10 is_stmt 0
 270 0130 97040000 		ld	s1,.LANCHOR0
 270      83B40400 
 271              	.LVL13:
  40:src/tcb.cpp   ****         Scheduler::put(old);
 272              		.loc 1 40 5 is_stmt 1
 273              	.LBB16:
 274              	.LBB17:
  23:src/../h/tcb.hpp ****     void setFinished(bool f) { finished = f;}
 275              		.loc 2 23 30
  23:src/../h/tcb.hpp ****     void setFinished(bool f) { finished = f;}
 276              		.loc 2 23 37 is_stmt 0
 277 0138 83C78403 		lbu	a5,56(s1)
 278              	.LVL14:
 279              	.LBE17:
 280              	.LBE16:
  40:src/tcb.cpp   ****         Scheduler::put(old);
 281              		.loc 1 40 27
 282 013c 63960700 		bnez	a5,.L14
  40:src/tcb.cpp   ****         Scheduler::put(old);
 283              		.loc 1 40 36 discriminator 1
 284 0140 83C79403 		lbu	a5,57(s1)
  40:src/tcb.cpp   ****         Scheduler::put(old);
 285              		.loc 1 40 27 discriminator 1
 286 0144 638C0702 		beqz	a5,.L16
 287              	.L14:
  43:src/tcb.cpp   ****     TCB::contextSwitch(&old->context, &running->context);
 288              		.loc 1 43 5 is_stmt 1
  43:src/tcb.cpp   ****     TCB::contextSwitch(&old->context, &running->context);
 289              		.loc 1 43 29 is_stmt 0
 290 0148 97000000 		call	_ZN9Scheduler3getEv@plt
 290      E7800000 
 291              	.LVL15:
  43:src/tcb.cpp   ****     TCB::contextSwitch(&old->context, &running->context);
 292              		.loc 1 43 13
 293 0150 97070000 		sd	a0,.LANCHOR0,a5
 293      23B0A700 
  44:src/tcb.cpp   **** }
 294              		.loc 1 44 5 is_stmt 1
  44:src/tcb.cpp   **** }
 295              		.loc 1 44 23 is_stmt 0
GAS LISTING /tmp/cchTObeI.s 			page 8


 296 0158 93058501 		addi	a1,a0,24
 297 015c 13858401 		addi	a0,s1,24
 298 0160 97000000 		call	_ZN3TCB13contextSwitchEPNS_7ContextES1_@plt
 298      E7800000 
 299              	.LVL16:
  45:src/tcb.cpp   **** 
 300              		.loc 1 45 1
 301 0168 83308101 		ld	ra,24(sp)
 302              		.cfi_remember_state
 303              		.cfi_restore 1
 304 016c 03340101 		ld	s0,16(sp)
 305              		.cfi_restore 8
 306              		.cfi_def_cfa 2, 32
 307 0170 83348100 		ld	s1,8(sp)
 308              		.cfi_restore 9
 309              	.LVL17:
 310 0174 13010102 		addi	sp,sp,32
 311              		.cfi_def_cfa_offset 0
 312 0178 67800000 		jr	ra
 313              	.LVL18:
 314              	.L16:
 315              		.cfi_restore_state
  41:src/tcb.cpp   ****     }
 316              		.loc 1 41 9 is_stmt 1
  41:src/tcb.cpp   ****     }
 317              		.loc 1 41 23 is_stmt 0
 318 017c 13850400 		mv	a0,s1
 319 0180 97000000 		call	_ZN9Scheduler3putEP3TCB@plt
 319      E7800000 
 320              	.LVL19:
 321 0188 6FF01FFC 		j	.L14
 322              		.cfi_endproc
 323              	.LFE43:
 325              		.align	2
 326              		.globl	_ZN3TCB12createThreadEPFvPvES0_S0_
 328              	_ZN3TCB12createThreadEPFvPvES0_S0_:
 329              	.LFB44:
  47:src/tcb.cpp   ****     return new TCB(body,DEFAULT_TIME_SLICE, argument, stek);
 330              		.loc 1 47 63 is_stmt 1
 331              		.cfi_startproc
 332              		.cfi_personality 0x9b,DW.ref.__gxx_personality_v0
 333              		.cfi_lsda 0x1b,.LLSDA44
 334              	.LVL20:
 335 018c 130101FC 		addi	sp,sp,-64
 336              		.cfi_def_cfa_offset 64
 337 0190 233C1102 		sd	ra,56(sp)
 338 0194 23388102 		sd	s0,48(sp)
 339 0198 23349102 		sd	s1,40(sp)
 340 019c 23302103 		sd	s2,32(sp)
 341 01a0 233C3101 		sd	s3,24(sp)
 342 01a4 23384101 		sd	s4,16(sp)
 343              		.cfi_offset 1, -8
 344              		.cfi_offset 8, -16
 345              		.cfi_offset 9, -24
 346              		.cfi_offset 18, -32
 347              		.cfi_offset 19, -40
 348              		.cfi_offset 20, -48
GAS LISTING /tmp/cchTObeI.s 			page 9


 349 01a8 13040104 		addi	s0,sp,64
 350              		.cfi_def_cfa 8, 0
 351 01ac 93090500 		mv	s3,a0
 352 01b0 138A0500 		mv	s4,a1
 353 01b4 13090600 		mv	s2,a2
  48:src/tcb.cpp   **** }
 354              		.loc 1 48 5
  48:src/tcb.cpp   **** }
 355              		.loc 1 48 59 is_stmt 0
 356 01b8 13050004 		li	a0,64
 357              	.LVL21:
 358              	.LEHB0:
 359 01bc 97000000 		call	_ZN3TCBnwEm
 359      E7800000 
 360              	.LVL22:
 361              	.LEHE0:
 362 01c4 93040500 		mv	s1,a0
 363              	.LVL23:
 364              	.LBB23:
 365              	.LBB24:
  25:src/../h/tcb.hpp **** 
  26:src/../h/tcb.hpp ****     uint64 getTimeSlice() const { return timeSlice; }
  27:src/../h/tcb.hpp **** 
  28:src/../h/tcb.hpp ****     static TCB* running;
  29:src/../h/tcb.hpp ****     using Body = void(*)(void*);
  30:src/../h/tcb.hpp ****     static TCB *createThread(Body body, void *arg, void*stek);
  31:src/../h/tcb.hpp ****     static void deleteThread(TCB *thread);
  32:src/../h/tcb.hpp ****     static int exitThread();
  33:src/../h/tcb.hpp ****     static void yield();
  34:src/../h/tcb.hpp ****     void setBlocked(bool b);
  35:src/../h/tcb.hpp **** 
  36:src/../h/tcb.hpp **** private:
  37:src/../h/tcb.hpp ****     explicit TCB(Body body, uint64 timeSlice, void* arg, void* stek): body(body), argument(arg), st
  38:src/../h/tcb.hpp ****     context({
  39:src/../h/tcb.hpp ****             (uint64) &threadWrapper,
  40:src/../h/tcb.hpp ****             stack != nullptr ? (uint64) &stack[DEFAULT_STACK_SIZE] : 0,
  41:src/../h/tcb.hpp ****             (uint64 )Riscv::r_sstatus()
  42:src/../h/tcb.hpp ****     }),
  43:src/../h/tcb.hpp ****                 timeSlice(timeSlice),
  44:src/../h/tcb.hpp ****                 finished(false),
  45:src/../h/tcb.hpp ****                 blocked(false)
 366              		.loc 2 45 30
 367 01c8 23303501 		sd	s3,0(a0)
 368 01cc 23344501 		sd	s4,8(a0)
  37:src/../h/tcb.hpp ****     context({
 369              		.loc 2 37 117
 370 01d0 37860000 		li	a2,32768
 371 01d4 3306C900 		add	a2,s2,a2
 372              		.loc 2 45 30
 373 01d8 2338C500 		sd	a2,16(a0)
 374 01dc 97070000 		lla	a5,_ZN3TCB13threadWrapperEv
 374      93870700 
 375 01e4 233CF500 		sd	a5,24(a0)
  40:src/../h/tcb.hpp ****             (uint64 )Riscv::r_sstatus()
 376              		.loc 2 40 30
 377 01e8 63020604 		beqz	a2,.L21
  40:src/../h/tcb.hpp ****             (uint64 )Riscv::r_sstatus()
GAS LISTING /tmp/cchTObeI.s 			page 10


 378              		.loc 2 40 41
 379 01ec B7170000 		li	a5,4096
 380 01f0 3306F600 		add	a2,a2,a5
 381              	.L18:
 382              		.loc 2 45 30
 383 01f4 23B0C402 		sd	a2,32(s1)
 384              	.LBB25:
 385              	.LBB26:
 386              		.file 3 "src/../h/riscv.hpp"
   1:src/../h/riscv.hpp **** //
   2:src/../h/riscv.hpp **** // Created by marko on 20.4.22..
   3:src/../h/riscv.hpp **** //
   4:src/../h/riscv.hpp **** 
   5:src/../h/riscv.hpp **** #ifndef OS1_VEZBE07_RISCV_CONTEXT_SWITCH_2_INTERRUPT_RISCV_HPP
   6:src/../h/riscv.hpp **** #define OS1_VEZBE07_RISCV_CONTEXT_SWITCH_2_INTERRUPT_RISCV_HPP
   7:src/../h/riscv.hpp **** 
   8:src/../h/riscv.hpp **** #include "../lib/hw.h"
   9:src/../h/riscv.hpp **** #include "../lib/console.h"
  10:src/../h/riscv.hpp **** class Riscv
  11:src/../h/riscv.hpp **** {
  12:src/../h/riscv.hpp **** public:
  13:src/../h/riscv.hpp **** 
  14:src/../h/riscv.hpp ****     //pop sstatus spp and sstatus spie
  15:src/../h/riscv.hpp ****     static void popSppSpie();
  16:src/../h/riscv.hpp ****     //push x3..31 registers
  17:src/../h/riscv.hpp ****     static void pushRegisters();
  18:src/../h/riscv.hpp ****     //pop x3..31 regiesters
  19:src/../h/riscv.hpp ****     static void popRegisters();
  20:src/../h/riscv.hpp **** 
  21:src/../h/riscv.hpp ****     // read register scause
  22:src/../h/riscv.hpp ****     static uint64 r_scause();
  23:src/../h/riscv.hpp **** 
  24:src/../h/riscv.hpp ****     // write register scause
  25:src/../h/riscv.hpp ****     static void w_scause(uint64 scause);
  26:src/../h/riscv.hpp **** 
  27:src/../h/riscv.hpp ****     // read register sepc
  28:src/../h/riscv.hpp ****     static uint64 r_sepc();
  29:src/../h/riscv.hpp **** 
  30:src/../h/riscv.hpp ****     // write register sepc
  31:src/../h/riscv.hpp ****     static void w_sepc(uint64 sepc);
  32:src/../h/riscv.hpp **** 
  33:src/../h/riscv.hpp ****     // read register stvec
  34:src/../h/riscv.hpp ****     static uint64 r_stvec();
  35:src/../h/riscv.hpp **** 
  36:src/../h/riscv.hpp ****     // write register stvec
  37:src/../h/riscv.hpp ****     static void w_stvec(uint64 stvec);
  38:src/../h/riscv.hpp **** 
  39:src/../h/riscv.hpp ****     // read register stval
  40:src/../h/riscv.hpp ****     static uint64 r_stval();
  41:src/../h/riscv.hpp **** 
  42:src/../h/riscv.hpp ****     // write register stval
  43:src/../h/riscv.hpp ****     static void w_stval(uint64 stval);
  44:src/../h/riscv.hpp **** 
  45:src/../h/riscv.hpp ****     enum BitMaskSip
  46:src/../h/riscv.hpp ****     {
  47:src/../h/riscv.hpp ****         SIP_SSIP = (1 << 1),
  48:src/../h/riscv.hpp ****         SIP_STIP = (1 << 5),
GAS LISTING /tmp/cchTObeI.s 			page 11


  49:src/../h/riscv.hpp ****         SIP_SEIP = (1 << 9),
  50:src/../h/riscv.hpp ****     };
  51:src/../h/riscv.hpp **** 
  52:src/../h/riscv.hpp ****     // mask set register sip
  53:src/../h/riscv.hpp ****     static void ms_sip(uint64 mask);
  54:src/../h/riscv.hpp **** 
  55:src/../h/riscv.hpp ****     // mask clear register sip
  56:src/../h/riscv.hpp ****     static void mc_sip(uint64 mask);
  57:src/../h/riscv.hpp **** 
  58:src/../h/riscv.hpp ****     // read register sip
  59:src/../h/riscv.hpp ****     static uint64 r_sip();
  60:src/../h/riscv.hpp **** 
  61:src/../h/riscv.hpp ****     // write register sip
  62:src/../h/riscv.hpp ****     static void w_sip(uint64 sip);
  63:src/../h/riscv.hpp **** 
  64:src/../h/riscv.hpp ****     enum BitMaskSstatus
  65:src/../h/riscv.hpp ****     {
  66:src/../h/riscv.hpp ****         SSTATUS_SIE = (1 << 1),
  67:src/../h/riscv.hpp ****         SSTATUS_SPIE = (1 << 5),
  68:src/../h/riscv.hpp ****         SSTATUS_SPP = (1 << 8),
  69:src/../h/riscv.hpp ****     };
  70:src/../h/riscv.hpp **** 
  71:src/../h/riscv.hpp ****     // mask set register sstatus
  72:src/../h/riscv.hpp ****     static void ms_sstatus(uint64 mask);
  73:src/../h/riscv.hpp **** 
  74:src/../h/riscv.hpp ****     // mask clear register sstatus
  75:src/../h/riscv.hpp ****     static void mc_sstatus(uint64 mask);
  76:src/../h/riscv.hpp **** 
  77:src/../h/riscv.hpp ****     // read register sstatus
  78:src/../h/riscv.hpp ****     static uint64 r_sstatus();
  79:src/../h/riscv.hpp **** 
  80:src/../h/riscv.hpp ****     // write register sstatus
  81:src/../h/riscv.hpp ****     static void w_sstatus(uint64 sstatus);
  82:src/../h/riscv.hpp **** 
  83:src/../h/riscv.hpp ****     //read a0 register
  84:src/../h/riscv.hpp ****     static uint64 r_a0();
  85:src/../h/riscv.hpp **** 
  86:src/../h/riscv.hpp ****     //write to a0 register
  87:src/../h/riscv.hpp ****     static void w_a0(uint64 writeValue);
  88:src/../h/riscv.hpp **** 
  89:src/../h/riscv.hpp ****     static void supervisorTrap();
  90:src/../h/riscv.hpp **** 
  91:src/../h/riscv.hpp **** private:
  92:src/../h/riscv.hpp ****     static void handleSupervisorTrap();
  93:src/../h/riscv.hpp **** };
  94:src/../h/riscv.hpp **** 
  95:src/../h/riscv.hpp **** 
  96:src/../h/riscv.hpp **** inline uint64 Riscv::r_scause()
  97:src/../h/riscv.hpp **** {
  98:src/../h/riscv.hpp ****     uint64 volatile scause;
  99:src/../h/riscv.hpp ****     __asm__ volatile ("csrr %[scause], scause" : [scause] "=r"(scause));
 100:src/../h/riscv.hpp ****     return scause;
 101:src/../h/riscv.hpp **** }
 102:src/../h/riscv.hpp **** 
 103:src/../h/riscv.hpp **** inline void Riscv::w_scause(uint64 scause)
 104:src/../h/riscv.hpp **** {
 105:src/../h/riscv.hpp ****     __asm__ volatile ("csrw scause, %[scause]" : : [scause] "r"(scause));
GAS LISTING /tmp/cchTObeI.s 			page 12


 106:src/../h/riscv.hpp **** }
 107:src/../h/riscv.hpp **** 
 108:src/../h/riscv.hpp **** inline uint64 Riscv::r_sepc()
 109:src/../h/riscv.hpp **** {
 110:src/../h/riscv.hpp ****     uint64 volatile sepc;
 111:src/../h/riscv.hpp ****     __asm__ volatile ("csrr %[sepc], sepc" : [sepc] "=r"(sepc));
 112:src/../h/riscv.hpp ****     return sepc;
 113:src/../h/riscv.hpp **** }
 114:src/../h/riscv.hpp **** 
 115:src/../h/riscv.hpp **** inline void Riscv::w_sepc(uint64 sepc)
 116:src/../h/riscv.hpp **** {
 117:src/../h/riscv.hpp ****     __asm__ volatile ("csrw sepc, %[sepc]" : : [sepc] "r"(sepc));
 118:src/../h/riscv.hpp **** }
 119:src/../h/riscv.hpp **** 
 120:src/../h/riscv.hpp **** inline uint64 Riscv::r_stvec()
 121:src/../h/riscv.hpp **** {
 122:src/../h/riscv.hpp ****     uint64 volatile stvec;
 123:src/../h/riscv.hpp ****     __asm__ volatile ("csrr %[stvec], stvec" : [stvec] "=r"(stvec));
 124:src/../h/riscv.hpp ****     return stvec;
 125:src/../h/riscv.hpp **** }
 126:src/../h/riscv.hpp **** 
 127:src/../h/riscv.hpp **** inline void Riscv::w_stvec(uint64 stvec)
 128:src/../h/riscv.hpp **** {
 129:src/../h/riscv.hpp ****     __asm__ volatile ("csrw stvec, %[stvec]" : : [stvec] "r"(stvec));
 130:src/../h/riscv.hpp **** }
 131:src/../h/riscv.hpp **** 
 132:src/../h/riscv.hpp **** inline uint64 Riscv::r_stval()
 133:src/../h/riscv.hpp **** {
 134:src/../h/riscv.hpp ****     uint64 volatile stval;
 135:src/../h/riscv.hpp ****     __asm__ volatile ("csrr %[stval], stval" : [stval] "=r"(stval));
 136:src/../h/riscv.hpp ****     return stval;
 137:src/../h/riscv.hpp **** }
 138:src/../h/riscv.hpp **** 
 139:src/../h/riscv.hpp **** inline void Riscv::w_stval(uint64 stval)
 140:src/../h/riscv.hpp **** {
 141:src/../h/riscv.hpp ****     __asm__ volatile ("csrw stval, %[stval]" : : [stval] "r"(stval));
 142:src/../h/riscv.hpp **** }
 143:src/../h/riscv.hpp **** 
 144:src/../h/riscv.hpp **** inline void Riscv::ms_sip(uint64 mask)
 145:src/../h/riscv.hpp **** {
 146:src/../h/riscv.hpp ****     __asm__ volatile ("csrs sip, %[mask]" : : [mask] "r"(mask));
 147:src/../h/riscv.hpp **** }
 148:src/../h/riscv.hpp **** 
 149:src/../h/riscv.hpp **** inline void Riscv::mc_sip(uint64 mask)
 150:src/../h/riscv.hpp **** {
 151:src/../h/riscv.hpp ****     __asm__ volatile ("csrc sip, %[mask]" : : [mask] "r"(mask));
 152:src/../h/riscv.hpp **** }
 153:src/../h/riscv.hpp **** 
 154:src/../h/riscv.hpp **** inline uint64 Riscv::r_sip()
 155:src/../h/riscv.hpp **** {
 156:src/../h/riscv.hpp ****     uint64 volatile sip;
 157:src/../h/riscv.hpp ****     __asm__ volatile ("csrr %[sip], sip" : [sip] "=r"(sip));
 158:src/../h/riscv.hpp ****     return sip;
 159:src/../h/riscv.hpp **** }
 160:src/../h/riscv.hpp **** 
 161:src/../h/riscv.hpp **** inline void Riscv::w_sip(uint64 sip)
 162:src/../h/riscv.hpp **** {
GAS LISTING /tmp/cchTObeI.s 			page 13


 163:src/../h/riscv.hpp ****     __asm__ volatile ("csrw sip, %[sip]" : : [sip] "r"(sip));
 164:src/../h/riscv.hpp **** }
 165:src/../h/riscv.hpp **** 
 166:src/../h/riscv.hpp **** inline void Riscv::ms_sstatus(uint64 mask)
 167:src/../h/riscv.hpp **** {
 168:src/../h/riscv.hpp ****     __asm__ volatile ("csrs sstatus, %[mask]" : : [mask] "r"(mask));
 169:src/../h/riscv.hpp **** }
 170:src/../h/riscv.hpp **** 
 171:src/../h/riscv.hpp **** inline void Riscv::mc_sstatus(uint64 mask)
 172:src/../h/riscv.hpp **** {
 173:src/../h/riscv.hpp ****     __asm__ volatile ("csrc sstatus, %[mask]" : : [mask] "r"(mask));
 174:src/../h/riscv.hpp **** }
 175:src/../h/riscv.hpp **** 
 176:src/../h/riscv.hpp **** inline uint64 Riscv::r_sstatus()
 177:src/../h/riscv.hpp **** {
 178:src/../h/riscv.hpp ****     uint64 volatile sstatus;
 387              		.loc 3 178 5 is_stmt 1
 179:src/../h/riscv.hpp ****     __asm__ volatile ("csrr %[sstatus], sstatus" : [sstatus] "=r"(sstatus));
 388              		.loc 3 179 5
 389              		.loc 3 179 76 is_stmt 0
 390              	#APP
 391              	# 179 "src/../h/riscv.hpp" 1
 180              	    return sstatus;
 392              		csrr a5, sstatus
 393              	# 0 "" 2
 394              	#NO_APP
 395 01fc 2334F4FC 		sd	a5,-56(s0)
 396              		.loc 3 180 5 is_stmt 1
 397              		.loc 3 180 12 is_stmt 0
 398 0200 833784FC 		ld	a5,-56(s0)
 399              	.LBE26:
 400              	.LBE25:
 401              		.loc 2 45 30
 402 0204 23B4F402 		sd	a5,40(s1)
 403 0208 93072000 		li	a5,2
 404 020c 23B8F402 		sd	a5,48(s1)
 405 0210 238C0402 		sb	zero,56(s1)
 406 0214 A38C0402 		sb	zero,57(s1)
  46:src/../h/tcb.hpp ****     {
  47:src/../h/tcb.hpp ****         if(body!= nullptr) {
 407              		.loc 2 47 9 is_stmt 1
 408 0218 638C0902 		beqz	s3,.L17
  48:src/../h/tcb.hpp ****             Scheduler::put(this);
 409              		.loc 2 48 13
 410              		.loc 2 48 27 is_stmt 0
 411 021c 13850400 		mv	a0,s1
 412              	.LEHB1:
 413 0220 97000000 		call	_ZN9Scheduler3putEP3TCB@plt
 413      E7800000 
 414              	.LVL24:
 415              	.LEHE1:
 416 0228 6F008002 		j	.L17
 417              	.L21:
  40:src/../h/tcb.hpp ****             (uint64 )Riscv::r_sstatus()
 418              		.loc 2 40 30
 419 022c 13060000 		li	a2,0
 420 0230 6FF05FFC 		j	.L18
GAS LISTING /tmp/cchTObeI.s 			page 14


 421              	.L22:
 422 0234 13090500 		mv	s2,a0
 423              	.LVL25:
 424              	.LBE24:
 425              	.LBE23:
  48:src/tcb.cpp   **** }
 426              		.loc 1 48 59
 427 0238 13850400 		mv	a0,s1
 428 023c 97000000 		call	_ZN3TCBdlEPv
 428      E7800000 
 429              	.LVL26:
 430 0244 13050900 		mv	a0,s2
 431              	.LEHB2:
 432 0248 97000000 		call	_Unwind_Resume@plt
 432      E7800000 
 433              	.LVL27:
 434              	.LEHE2:
 435              	.L17:
  49:src/tcb.cpp   **** 
 436              		.loc 1 49 1
 437 0250 13850400 		mv	a0,s1
 438 0254 83308103 		ld	ra,56(sp)
 439              		.cfi_restore 1
 440 0258 03340103 		ld	s0,48(sp)
 441              		.cfi_restore 8
 442              		.cfi_def_cfa 2, 64
 443 025c 83348102 		ld	s1,40(sp)
 444              		.cfi_restore 9
 445              	.LVL28:
 446 0260 03390102 		ld	s2,32(sp)
 447              		.cfi_restore 18
 448              	.LVL29:
 449 0264 83398101 		ld	s3,24(sp)
 450              		.cfi_restore 19
 451              	.LVL30:
 452 0268 033A0101 		ld	s4,16(sp)
 453              		.cfi_restore 20
 454              	.LVL31:
 455 026c 13010104 		addi	sp,sp,64
 456              		.cfi_def_cfa_offset 0
 457 0270 67800000 		jr	ra
 458              		.cfi_endproc
 459              	.LFE44:
 460              		.section	.gcc_except_table
 461              	.LLSDA44:
 462 0008 FF       		.byte	0xff
 463 0009 FF       		.byte	0xff
 464 000a 03       		.byte	0x3
 465 000b 27       		.byte	0x27
 466 000c 00000000 		.4byte	.LEHB0-.LFB44
 467 0010 00000000 		.4byte	.LEHE0-.LEHB0
 468 0014 00000000 		.4byte	0
 469 0018 00       		.byte	0
 470 0019 00000000 		.4byte	.LEHB1-.LFB44
 471 001d 00000000 		.4byte	.LEHE1-.LEHB1
 472 0021 00000000 		.4byte	.L22-.LFB44
 473 0025 00       		.byte	0
GAS LISTING /tmp/cchTObeI.s 			page 15


 474 0026 00000000 		.4byte	.LEHB2-.LFB44
 475 002a 00000000 		.4byte	.LEHE2-.LEHB2
 476 002e 00000000 		.4byte	0
 477 0032 00       		.byte	0
 478              		.text
 480              		.align	2
 481              		.globl	_ZN3TCB12deleteThreadEPS_
 483              	_ZN3TCB12deleteThreadEPS_:
 484              	.LFB45:
  51:src/tcb.cpp   ****     delete thread;
 485              		.loc 1 51 36 is_stmt 1
 486              		.cfi_startproc
 487              	.LVL32:
  52:src/tcb.cpp   **** }
 488              		.loc 1 52 5
  52:src/tcb.cpp   **** }
 489              		.loc 1 52 18 is_stmt 0
 490 0274 63060504 		beqz	a0,.L28
  51:src/tcb.cpp   ****     delete thread;
 491              		.loc 1 51 36
 492 0278 130101FE 		addi	sp,sp,-32
 493              		.cfi_def_cfa_offset 32
 494 027c 233C1100 		sd	ra,24(sp)
 495 0280 23388100 		sd	s0,16(sp)
 496 0284 23349100 		sd	s1,8(sp)
 497              		.cfi_offset 1, -8
 498              		.cfi_offset 8, -16
 499              		.cfi_offset 9, -24
 500 0288 13040102 		addi	s0,sp,32
 501              		.cfi_def_cfa 8, 0
 502 028c 93040500 		mv	s1,a0
 503              	.LVL33:
 504              	.LBB27:
 505              	.LBB28:
  22:src/../h/tcb.hpp ****     bool isFinished() const {return finished;}
 506              		.loc 2 22 13 is_stmt 1
  22:src/../h/tcb.hpp ****     bool isFinished() const {return finished;}
 507              		.loc 2 22 20 is_stmt 0
 508 0290 03350501 		ld	a0,16(a0)
 509              	.LVL34:
  22:src/../h/tcb.hpp ****     bool isFinished() const {return finished;}
 510              		.loc 2 22 25
 511 0294 63060500 		beqz	a0,.L26
  22:src/../h/tcb.hpp ****     bool isFinished() const {return finished;}
 512              		.loc 2 22 20
 513 0298 97000000 		call	_ZdlPv@plt
 513      E7800000 
 514              	.LVL35:
 515              	.L26:
 516              	.LBE28:
 517              	.LBE27:
  52:src/tcb.cpp   **** }
 518              		.loc 1 52 12
 519 02a0 13850400 		mv	a0,s1
 520 02a4 97000000 		call	_ZN3TCBdlEPv
 520      E7800000 
 521              	.LVL36:
GAS LISTING /tmp/cchTObeI.s 			page 16


  53:src/tcb.cpp   **** 
 522              		.loc 1 53 1
 523 02ac 83308101 		ld	ra,24(sp)
 524              		.cfi_restore 1
 525 02b0 03340101 		ld	s0,16(sp)
 526              		.cfi_restore 8
 527              		.cfi_def_cfa 2, 32
 528 02b4 83348100 		ld	s1,8(sp)
 529              		.cfi_restore 9
 530              	.LVL37:
 531 02b8 13010102 		addi	sp,sp,32
 532              		.cfi_def_cfa_offset 0
 533 02bc 67800000 		jr	ra
 534              	.LVL38:
 535              	.L28:
 536 02c0 67800000 		ret
 537              		.cfi_endproc
 538              	.LFE45:
 540              		.align	2
 541              		.globl	_ZN3TCB10exitThreadEv
 543              	_ZN3TCB10exitThreadEv:
 544              	.LFB46:
  56:src/tcb.cpp   ****     TCB::running->setFinished(true);
 545              		.loc 1 56 22 is_stmt 1
 546              		.cfi_startproc
 547 02c4 130101FF 		addi	sp,sp,-16
 548              		.cfi_def_cfa_offset 16
 549 02c8 23341100 		sd	ra,8(sp)
 550 02cc 23308100 		sd	s0,0(sp)
 551              		.cfi_offset 1, -8
 552              		.cfi_offset 8, -16
 553 02d0 13040101 		addi	s0,sp,16
 554              		.cfi_def_cfa 8, 0
  57:src/tcb.cpp   ****     TCB::yield();
 555              		.loc 1 57 5
 556              	.LVL39:
 557              	.LBB29:
 558              	.LBB30:
  24:src/../h/tcb.hpp **** 
 559              		.loc 2 24 32
  24:src/../h/tcb.hpp **** 
 560              		.loc 2 24 41 is_stmt 0
 561 02d4 97070000 		ld	a5,.LANCHOR0
 561      83B70700 
 562 02dc 13071000 		li	a4,1
 563 02e0 238CE702 		sb	a4,56(a5)
 564              	.LVL40:
 565              	.LBE30:
 566              	.LBE29:
  58:src/tcb.cpp   ****     return 0;
 567              		.loc 1 58 5 is_stmt 1
  58:src/tcb.cpp   ****     return 0;
 568              		.loc 1 58 15 is_stmt 0
 569 02e4 97000000 		call	_ZN3TCB5yieldEv
 569      E7800000 
 570              	.LVL41:
  59:src/tcb.cpp   **** }
GAS LISTING /tmp/cchTObeI.s 			page 17


 571              		.loc 1 59 5 is_stmt 1
  60:src/tcb.cpp   **** 
 572              		.loc 1 60 1 is_stmt 0
 573 02ec 13050000 		li	a0,0
 574 02f0 83308100 		ld	ra,8(sp)
 575              		.cfi_restore 1
 576 02f4 03340100 		ld	s0,0(sp)
 577              		.cfi_restore 8
 578              		.cfi_def_cfa 2, 16
 579 02f8 13010101 		addi	sp,sp,16
 580              		.cfi_def_cfa_offset 0
 581 02fc 67800000 		jr	ra
 582              		.cfi_endproc
 583              	.LFE46:
 585              		.align	2
 586              		.globl	_ZN3TCB10setBlockedEb
 588              	_ZN3TCB10setBlockedEb:
 589              	.LFB48:
  70:src/tcb.cpp   **** 
  71:src/tcb.cpp   **** void TCB::setBlocked(bool b) {
 590              		.loc 1 71 30 is_stmt 1
 591              		.cfi_startproc
 592              	.LVL42:
 593 0300 130101FF 		addi	sp,sp,-16
 594              		.cfi_def_cfa_offset 16
 595 0304 23348100 		sd	s0,8(sp)
 596              		.cfi_offset 8, -8
 597 0308 13040101 		addi	s0,sp,16
 598              		.cfi_def_cfa 8, 0
  72:src/tcb.cpp   ****     this->blocked = b;
 599              		.loc 1 72 5
 600              		.loc 1 72 19 is_stmt 0
 601 030c A30CB502 		sb	a1,57(a0)
  73:src/tcb.cpp   **** }
 602              		.loc 1 73 1
 603 0310 03348100 		ld	s0,8(sp)
 604              		.cfi_restore 8
 605              		.cfi_def_cfa 2, 16
 606 0314 13010101 		addi	sp,sp,16
 607              		.cfi_def_cfa_offset 0
 608 0318 67800000 		jr	ra
 609              		.cfi_endproc
 610              	.LFE48:
 612              		.globl	_ZN3TCB16timeSliceCounterE
 613              		.globl	_ZN3TCB7runningE
 614              		.bss
 615              		.align	3
 616              		.set	.LANCHOR0,. + 0
 619              	_ZN3TCB7runningE:
 620 0000 00000000 		.zero	8
 620      00000000 
 623              	_ZN3TCB16timeSliceCounterE:
 624 0008 00000000 		.zero	8
 624      00000000 
 625              		.text
 626              	.Letext0:
 627              		.file 4 "src/../h/../lib/hw.h"
GAS LISTING /tmp/cchTObeI.s 			page 18


 628              		.file 5 "src/../h/MemoryAllocator.hpp"
 629              		.file 6 "src/../h/scheduler.hpp"
 3610              		.align	3
 3613              	DW.ref.__gxx_personality_v0:
 3614 0000 00000000 		.dword	__gxx_personality_v0
 3614      00000000 
 3615              		.ident	"GCC: (Ubuntu 9.3.0-17ubuntu1~20.04) 9.3.0"
 3616              		.section	.note.GNU-stack,"",@progbits
GAS LISTING /tmp/cchTObeI.s 			page 19


DEFINED SYMBOLS
                            *ABS*:0000000000000000 tcb.cpp
     /tmp/cchTObeI.s:9      .text:0000000000000000 _ZN3TCBnwEm
     /tmp/cchTObeI.s:13     .text:0000000000000000 .L0 
     /tmp/cchTObeI.s:15     .text:0000000000000000 .L0 
     /tmp/cchTObeI.s:16     .text:0000000000000004 .L0 
     /tmp/cchTObeI.s:19     .text:000000000000000c .L0 
     /tmp/cchTObeI.s:20     .text:000000000000000c .L0 
     /tmp/cchTObeI.s:22     .text:0000000000000010 .L0 
     /tmp/cchTObeI.s:24     .text:0000000000000010 .L0 
     /tmp/cchTObeI.s:25     .text:0000000000000010 .L0 
     /tmp/cchTObeI.s:28     .text:0000000000000018 .L0 
     /tmp/cchTObeI.s:29     .text:000000000000001c .L0 
     /tmp/cchTObeI.s:31     .text:0000000000000020 .L0 
     /tmp/cchTObeI.s:32     .text:0000000000000020 .L0 
     /tmp/cchTObeI.s:34     .text:0000000000000024 .L0 
     /tmp/cchTObeI.s:36     .text:0000000000000028 .L0 
     /tmp/cchTObeI.s:42     .text:0000000000000028 _ZN3TCBnaEm
     /tmp/cchTObeI.s:45     .text:0000000000000028 .L0 
     /tmp/cchTObeI.s:47     .text:0000000000000028 .L0 
     /tmp/cchTObeI.s:48     .text:000000000000002c .L0 
     /tmp/cchTObeI.s:51     .text:0000000000000034 .L0 
     /tmp/cchTObeI.s:52     .text:0000000000000034 .L0 
     /tmp/cchTObeI.s:54     .text:0000000000000038 .L0 
     /tmp/cchTObeI.s:56     .text:0000000000000038 .L0 
     /tmp/cchTObeI.s:57     .text:0000000000000038 .L0 
     /tmp/cchTObeI.s:60     .text:0000000000000040 .L0 
     /tmp/cchTObeI.s:61     .text:0000000000000044 .L0 
     /tmp/cchTObeI.s:63     .text:0000000000000048 .L0 
     /tmp/cchTObeI.s:64     .text:0000000000000048 .L0 
     /tmp/cchTObeI.s:66     .text:000000000000004c .L0 
     /tmp/cchTObeI.s:68     .text:0000000000000050 .L0 
     /tmp/cchTObeI.s:74     .text:0000000000000050 _ZN3TCBdlEPv
     /tmp/cchTObeI.s:77     .text:0000000000000050 .L0 
     /tmp/cchTObeI.s:3613   .data.rel.local.DW.ref.__gxx_personality_v0:0000000000000000 DW.ref.__gxx_personality_v0
     /tmp/cchTObeI.s:81     .text:0000000000000050 .L0 
     /tmp/cchTObeI.s:82     .text:0000000000000054 .L0 
     /tmp/cchTObeI.s:85     .text:000000000000005c .L0 
     /tmp/cchTObeI.s:86     .text:000000000000005c .L0 
     /tmp/cchTObeI.s:88     .text:0000000000000060 .L0 
     /tmp/cchTObeI.s:90     .text:0000000000000060 .L0 
     /tmp/cchTObeI.s:91     .text:0000000000000060 .L0 
     /tmp/cchTObeI.s:94     .text:0000000000000068 .L0 
     /tmp/cchTObeI.s:95     .text:000000000000006c .L0 
     /tmp/cchTObeI.s:97     .text:0000000000000070 .L0 
     /tmp/cchTObeI.s:98     .text:0000000000000070 .L0 
     /tmp/cchTObeI.s:100    .text:0000000000000074 .L0 
     /tmp/cchTObeI.s:102    .text:0000000000000078 .L0 
     /tmp/cchTObeI.s:116    .text:0000000000000078 _ZN3TCBdaEPv
     /tmp/cchTObeI.s:119    .text:0000000000000078 .L0 
     /tmp/cchTObeI.s:123    .text:0000000000000078 .L0 
     /tmp/cchTObeI.s:124    .text:000000000000007c .L0 
     /tmp/cchTObeI.s:127    .text:0000000000000084 .L0 
     /tmp/cchTObeI.s:128    .text:0000000000000084 .L0 
     /tmp/cchTObeI.s:130    .text:0000000000000088 .L0 
     /tmp/cchTObeI.s:132    .text:0000000000000088 .L0 
     /tmp/cchTObeI.s:133    .text:0000000000000088 .L0 
GAS LISTING /tmp/cchTObeI.s 			page 20


     /tmp/cchTObeI.s:136    .text:0000000000000090 .L0 
     /tmp/cchTObeI.s:137    .text:0000000000000094 .L0 
     /tmp/cchTObeI.s:139    .text:0000000000000098 .L0 
     /tmp/cchTObeI.s:140    .text:0000000000000098 .L0 
     /tmp/cchTObeI.s:142    .text:000000000000009c .L0 
     /tmp/cchTObeI.s:144    .text:00000000000000a0 .L0 
     /tmp/cchTObeI.s:157    .text:00000000000000a0 _ZN3TCB5yieldEv
     /tmp/cchTObeI.s:160    .text:00000000000000a0 .L0 
     /tmp/cchTObeI.s:161    .text:00000000000000a0 .L0 
     /tmp/cchTObeI.s:162    .text:00000000000000a4 .L0 
     /tmp/cchTObeI.s:164    .text:00000000000000a8 .L0 
     /tmp/cchTObeI.s:166    .text:00000000000000ac .L0 
     /tmp/cchTObeI.s:168    .text:00000000000000ac .L0 
         src/tcb.cpp:31     .text:00000000000000ac .L0 
     /tmp/cchTObeI.s:174    .text:00000000000000b0 .L0 
         src/tcb.cpp:32     .text:00000000000000b0 .L0 
     /tmp/cchTObeI.s:180    .text:00000000000000b4 .L0 
     /tmp/cchTObeI.s:181    .text:00000000000000b8 .L0 
     /tmp/cchTObeI.s:182    .text:00000000000000b8 .L0 
     /tmp/cchTObeI.s:184    .text:00000000000000bc .L0 
     /tmp/cchTObeI.s:186    .text:00000000000000c0 .L0 
     /tmp/cchTObeI.s:192    .text:00000000000000c0 _ZN3TCB13threadWrapperEv
     /tmp/cchTObeI.s:195    .text:00000000000000c0 .L0 
     /tmp/cchTObeI.s:196    .text:00000000000000c0 .L0 
     /tmp/cchTObeI.s:197    .text:00000000000000c4 .L0 
     /tmp/cchTObeI.s:201    .text:00000000000000d0 .L0 
     /tmp/cchTObeI.s:202    .text:00000000000000d0 .L0 
     /tmp/cchTObeI.s:203    .text:00000000000000d0 .L0 
     /tmp/cchTObeI.s:205    .text:00000000000000d4 .L0 
     /tmp/cchTObeI.s:207    .text:00000000000000d4 .L0 
     /tmp/cchTObeI.s:208    .text:00000000000000d4 .L0 
     /tmp/cchTObeI.s:211    .text:00000000000000dc .L0 
     /tmp/cchTObeI.s:212    .text:00000000000000dc .L0 
     /tmp/cchTObeI.s:216    .text:00000000000000ec .L0 
     /tmp/cchTObeI.s:220    .text:00000000000000f4 .L0 
     /tmp/cchTObeI.s:221    .text:00000000000000f4 .L0 
     /tmp/cchTObeI.s:227    .text:00000000000000f8 .L0 
     /tmp/cchTObeI.s:228    .text:00000000000000f8 .L0 
     /tmp/cchTObeI.s:234    .text:0000000000000100 .L0 
     /tmp/cchTObeI.s:235    .text:0000000000000100 .L0 
     /tmp/cchTObeI.s:238    .text:0000000000000108 .L0 
     /tmp/cchTObeI.s:239    .text:000000000000010c .L0 
     /tmp/cchTObeI.s:241    .text:0000000000000110 .L0 
     /tmp/cchTObeI.s:242    .text:0000000000000110 .L0 
     /tmp/cchTObeI.s:244    .text:0000000000000114 .L0 
     /tmp/cchTObeI.s:246    .text:0000000000000118 .L0 
     /tmp/cchTObeI.s:248    .text:000000000000011c .L0 
     /tmp/cchTObeI.s:254    .text:000000000000011c _ZN3TCB8dispatchEv
     /tmp/cchTObeI.s:257    .text:000000000000011c .L0 
     /tmp/cchTObeI.s:258    .text:000000000000011c .L0 
     /tmp/cchTObeI.s:259    .text:0000000000000120 .L0 
     /tmp/cchTObeI.s:263    .text:000000000000012c .L0 
     /tmp/cchTObeI.s:264    .text:000000000000012c .L0 
     /tmp/cchTObeI.s:265    .text:000000000000012c .L0 
     /tmp/cchTObeI.s:267    .text:0000000000000130 .L0 
     /tmp/cchTObeI.s:269    .text:0000000000000130 .L0 
     /tmp/cchTObeI.s:270    .text:0000000000000130 .L0 
GAS LISTING /tmp/cchTObeI.s 			page 21


     /tmp/cchTObeI.s:275    .text:0000000000000138 .L0 
     /tmp/cchTObeI.s:276    .text:0000000000000138 .L0 
     /tmp/cchTObeI.s:277    .text:0000000000000138 .L0 
     /tmp/cchTObeI.s:282    .text:000000000000013c .L0 
     /tmp/cchTObeI.s:284    .text:0000000000000140 .L0 
     /tmp/cchTObeI.s:286    .text:0000000000000144 .L0 
     /tmp/cchTObeI.s:289    .text:0000000000000148 .L0 
     /tmp/cchTObeI.s:290    .text:0000000000000148 .L0 
     /tmp/cchTObeI.s:293    .text:0000000000000150 .L0 
     /tmp/cchTObeI.s:295    .text:0000000000000158 .L0 
     /tmp/cchTObeI.s:296    .text:0000000000000158 .L0 
     /tmp/cchTObeI.s:301    .text:0000000000000168 .L0 
     /tmp/cchTObeI.s:302    .text:000000000000016c .L0 
     /tmp/cchTObeI.s:303    .text:000000000000016c .L0 
     /tmp/cchTObeI.s:305    .text:0000000000000170 .L0 
     /tmp/cchTObeI.s:306    .text:0000000000000170 .L0 
     /tmp/cchTObeI.s:308    .text:0000000000000174 .L0 
     /tmp/cchTObeI.s:311    .text:0000000000000178 .L0 
     /tmp/cchTObeI.s:315    .text:000000000000017c .L0 
     /tmp/cchTObeI.s:317    .text:000000000000017c .L0 
     /tmp/cchTObeI.s:318    .text:000000000000017c .L0 
     /tmp/cchTObeI.s:322    .text:000000000000018c .L0 
     /tmp/cchTObeI.s:328    .text:000000000000018c _ZN3TCB12createThreadEPFvPvES0_S0_
     /tmp/cchTObeI.s:331    .text:000000000000018c .L0 
     /tmp/cchTObeI.s:335    .text:000000000000018c .L0 
     /tmp/cchTObeI.s:336    .text:0000000000000190 .L0 
     /tmp/cchTObeI.s:343    .text:00000000000001a8 .L0 
     /tmp/cchTObeI.s:344    .text:00000000000001a8 .L0 
     /tmp/cchTObeI.s:345    .text:00000000000001a8 .L0 
     /tmp/cchTObeI.s:346    .text:00000000000001a8 .L0 
     /tmp/cchTObeI.s:347    .text:00000000000001a8 .L0 
     /tmp/cchTObeI.s:348    .text:00000000000001a8 .L0 
     /tmp/cchTObeI.s:350    .text:00000000000001ac .L0 
     /tmp/cchTObeI.s:355    .text:00000000000001b8 .L0 
     /tmp/cchTObeI.s:356    .text:00000000000001b8 .L0 
     /tmp/cchTObeI.s:367    .text:00000000000001c8 .L0 
     /tmp/cchTObeI.s:370    .text:00000000000001d0 .L0 
     /tmp/cchTObeI.s:373    .text:00000000000001d8 .L0 
     /tmp/cchTObeI.s:377    .text:00000000000001e8 .L0 
     /tmp/cchTObeI.s:379    .text:00000000000001ec .L0 
     /tmp/cchTObeI.s:383    .text:00000000000001f4 .L0 
     /tmp/cchTObeI.s:388    .text:00000000000001f8 .L0 
     /tmp/cchTObeI.s:389    .text:00000000000001f8 .L0 
  src/../h/riscv.hpp:179    .text:00000000000001f8 .L0 
     /tmp/cchTObeI.s:397    .text:0000000000000200 .L0 
     /tmp/cchTObeI.s:398    .text:0000000000000200 .L0 
     /tmp/cchTObeI.s:402    .text:0000000000000204 .L0 
     /tmp/cchTObeI.s:408    .text:0000000000000218 .L0 
     /tmp/cchTObeI.s:410    .text:000000000000021c .L0 
     /tmp/cchTObeI.s:411    .text:000000000000021c .L0 
     /tmp/cchTObeI.s:419    .text:000000000000022c .L0 
     /tmp/cchTObeI.s:427    .text:0000000000000238 .L0 
     /tmp/cchTObeI.s:437    .text:0000000000000250 .L0 
     /tmp/cchTObeI.s:439    .text:0000000000000258 .L0 
     /tmp/cchTObeI.s:441    .text:000000000000025c .L0 
     /tmp/cchTObeI.s:442    .text:000000000000025c .L0 
     /tmp/cchTObeI.s:444    .text:0000000000000260 .L0 
GAS LISTING /tmp/cchTObeI.s 			page 22


     /tmp/cchTObeI.s:447    .text:0000000000000264 .L0 
     /tmp/cchTObeI.s:450    .text:0000000000000268 .L0 
     /tmp/cchTObeI.s:453    .text:000000000000026c .L0 
     /tmp/cchTObeI.s:456    .text:0000000000000270 .L0 
     /tmp/cchTObeI.s:458    .text:0000000000000274 .L0 
     /tmp/cchTObeI.s:483    .text:0000000000000274 _ZN3TCB12deleteThreadEPS_
     /tmp/cchTObeI.s:486    .text:0000000000000274 .L0 
     /tmp/cchTObeI.s:488    .text:0000000000000274 .L0 
     /tmp/cchTObeI.s:489    .text:0000000000000274 .L0 
     /tmp/cchTObeI.s:490    .text:0000000000000274 .L0 
     /tmp/cchTObeI.s:492    .text:0000000000000278 .L0 
     /tmp/cchTObeI.s:493    .text:000000000000027c .L0 
     /tmp/cchTObeI.s:497    .text:0000000000000288 .L0 
     /tmp/cchTObeI.s:498    .text:0000000000000288 .L0 
     /tmp/cchTObeI.s:499    .text:0000000000000288 .L0 
     /tmp/cchTObeI.s:501    .text:000000000000028c .L0 
     /tmp/cchTObeI.s:507    .text:0000000000000290 .L0 
     /tmp/cchTObeI.s:508    .text:0000000000000290 .L0 
     /tmp/cchTObeI.s:511    .text:0000000000000294 .L0 
     /tmp/cchTObeI.s:513    .text:0000000000000298 .L0 
     /tmp/cchTObeI.s:519    .text:00000000000002a0 .L0 
     /tmp/cchTObeI.s:523    .text:00000000000002ac .L0 
     /tmp/cchTObeI.s:524    .text:00000000000002b0 .L0 
     /tmp/cchTObeI.s:526    .text:00000000000002b4 .L0 
     /tmp/cchTObeI.s:527    .text:00000000000002b4 .L0 
     /tmp/cchTObeI.s:529    .text:00000000000002b8 .L0 
     /tmp/cchTObeI.s:532    .text:00000000000002bc .L0 
     /tmp/cchTObeI.s:537    .text:00000000000002c4 .L0 
     /tmp/cchTObeI.s:543    .text:00000000000002c4 _ZN3TCB10exitThreadEv
     /tmp/cchTObeI.s:546    .text:00000000000002c4 .L0 
     /tmp/cchTObeI.s:547    .text:00000000000002c4 .L0 
     /tmp/cchTObeI.s:548    .text:00000000000002c8 .L0 
     /tmp/cchTObeI.s:551    .text:00000000000002d0 .L0 
     /tmp/cchTObeI.s:552    .text:00000000000002d0 .L0 
     /tmp/cchTObeI.s:554    .text:00000000000002d4 .L0 
     /tmp/cchTObeI.s:559    .text:00000000000002d4 .L0 
     /tmp/cchTObeI.s:560    .text:00000000000002d4 .L0 
     /tmp/cchTObeI.s:561    .text:00000000000002d4 .L0 
     /tmp/cchTObeI.s:568    .text:00000000000002e4 .L0 
     /tmp/cchTObeI.s:569    .text:00000000000002e4 .L0 
     /tmp/cchTObeI.s:572    .text:00000000000002ec .L0 
     /tmp/cchTObeI.s:573    .text:00000000000002ec .L0 
     /tmp/cchTObeI.s:575    .text:00000000000002f4 .L0 
     /tmp/cchTObeI.s:577    .text:00000000000002f8 .L0 
     /tmp/cchTObeI.s:578    .text:00000000000002f8 .L0 
     /tmp/cchTObeI.s:580    .text:00000000000002fc .L0 
     /tmp/cchTObeI.s:582    .text:0000000000000300 .L0 
     /tmp/cchTObeI.s:588    .text:0000000000000300 _ZN3TCB10setBlockedEb
     /tmp/cchTObeI.s:591    .text:0000000000000300 .L0 
     /tmp/cchTObeI.s:593    .text:0000000000000300 .L0 
     /tmp/cchTObeI.s:594    .text:0000000000000304 .L0 
     /tmp/cchTObeI.s:596    .text:0000000000000308 .L0 
     /tmp/cchTObeI.s:598    .text:000000000000030c .L0 
     /tmp/cchTObeI.s:600    .text:000000000000030c .L0 
     /tmp/cchTObeI.s:601    .text:000000000000030c .L0 
     /tmp/cchTObeI.s:603    .text:0000000000000310 .L0 
     /tmp/cchTObeI.s:604    .text:0000000000000314 .L0 
GAS LISTING /tmp/cchTObeI.s 			page 23


     /tmp/cchTObeI.s:605    .text:0000000000000314 .L0 
     /tmp/cchTObeI.s:607    .text:0000000000000318 .L0 
     /tmp/cchTObeI.s:609    .text:000000000000031c .L0 
     /tmp/cchTObeI.s:623    .bss:0000000000000008 _ZN3TCB16timeSliceCounterE
     /tmp/cchTObeI.s:619    .bss:0000000000000000 _ZN3TCB7runningE
     /tmp/cchTObeI.s:616    .bss:0000000000000000 .LANCHOR0
     /tmp/cchTObeI.s:630    .text:000000000000031c .L0 
     /tmp/cchTObeI.s:212    .text:00000000000000dc .L0 
     /tmp/cchTObeI.s:270    .text:0000000000000130 .L0 
     /tmp/cchTObeI.s:293    .text:0000000000000150 .L0 
     /tmp/cchTObeI.s:374    .text:00000000000001dc .L0 
     /tmp/cchTObeI.s:561    .text:00000000000002d4 .L0 
     /tmp/cchTObeI.s:287    .text:0000000000000148 .L14
     /tmp/cchTObeI.s:314    .text:000000000000017c .L16
     /tmp/cchTObeI.s:417    .text:000000000000022c .L21
     /tmp/cchTObeI.s:435    .text:0000000000000250 .L17
     /tmp/cchTObeI.s:381    .text:00000000000001f4 .L18
     /tmp/cchTObeI.s:535    .text:00000000000002c0 .L28
     /tmp/cchTObeI.s:515    .text:00000000000002a0 .L26
     /tmp/cchTObeI.s:358    .text:00000000000001bc .LEHB0
     /tmp/cchTObeI.s:329    .text:000000000000018c .LFB44
     /tmp/cchTObeI.s:361    .text:00000000000001c4 .LEHE0
     /tmp/cchTObeI.s:412    .text:0000000000000220 .LEHB1
     /tmp/cchTObeI.s:415    .text:0000000000000228 .LEHE1
     /tmp/cchTObeI.s:421    .text:0000000000000234 .L22
     /tmp/cchTObeI.s:431    .text:0000000000000248 .LEHB2
     /tmp/cchTObeI.s:434    .text:0000000000000250 .LEHE2
     /tmp/cchTObeI.s:2000   .debug_abbrev:0000000000000000 .Ldebug_abbrev0
     /tmp/cchTObeI.s:3345   .debug_str:00000000000000c3 .LASF134
     /tmp/cchTObeI.s:3453   .debug_str:00000000000004de .LASF135
     /tmp/cchTObeI.s:3455   .debug_str:00000000000004ea .LASF136
     /tmp/cchTObeI.s:5      .text:0000000000000000 .Ltext0
     /tmp/cchTObeI.s:626    .text:000000000000031c .Letext0
     /tmp/cchTObeI.s:3313   .debug_line:0000000000000000 .Ldebug_line0
     /tmp/cchTObeI.s:3471   .debug_str:000000000000056f .LASF0
     /tmp/cchTObeI.s:3485   .debug_str:00000000000005ab .LASF1
     /tmp/cchTObeI.s:3451   .debug_str:00000000000004d0 .LASF2
     /tmp/cchTObeI.s:3383   .debug_str:00000000000002d2 .LASF3
     /tmp/cchTObeI.s:3429   .debug_str:0000000000000446 .LASF4
     /tmp/cchTObeI.s:3533   .debug_str:00000000000006ed .LASF5
     /tmp/cchTObeI.s:3347   .debug_str:0000000000000187 .LASF6
     /tmp/cchTObeI.s:3489   .debug_str:00000000000005d6 .LASF7
     /tmp/cchTObeI.s:3469   .debug_str:000000000000055c .LASF8
     /tmp/cchTObeI.s:3573   .debug_str:0000000000000860 .LASF9
     /tmp/cchTObeI.s:3413   .debug_str:00000000000003ad .LASF10
     /tmp/cchTObeI.s:3505   .debug_str:0000000000000634 .LASF11
     /tmp/cchTObeI.s:3563   .debug_str:00000000000007fb .LASF12
     /tmp/cchTObeI.s:3351   .debug_str:0000000000000193 .LASF13
     /tmp/cchTObeI.s:3321   .debug_str:0000000000000031 .LASF14
     /tmp/cchTObeI.s:3363   .debug_str:00000000000001fa .LASF15
     /tmp/cchTObeI.s:3525   .debug_str:00000000000006b1 .LASF16
     /tmp/cchTObeI.s:3373   .debug_str:0000000000000247 .LASF17
     /tmp/cchTObeI.s:3467   .debug_str:000000000000054c .LASF27
     /tmp/cchTObeI.s:3399   .debug_str:0000000000000345 .LASF31
     /tmp/cchTObeI.s:3565   .debug_str:000000000000080a .LASF18
     /tmp/cchTObeI.s:3549   .debug_str:000000000000078c .LASF19
     /tmp/cchTObeI.s:3499   .debug_str:0000000000000608 .LASF20
GAS LISTING /tmp/cchTObeI.s 			page 24


     /tmp/cchTObeI.s:3537   .debug_str:0000000000000710 .LASF33
     /tmp/cchTObeI.s:3567   .debug_str:000000000000080f .LASF35
     /tmp/cchTObeI.s:3433   .debug_str:0000000000000460 .LASF21
     /tmp/cchTObeI.s:3317   .debug_str:0000000000000008 .LASF30
     /tmp/cchTObeI.s:3379   .debug_str:0000000000000293 .LASF56
     /tmp/cchTObeI.s:3577   .debug_str:0000000000000877 .LASF22
     /tmp/cchTObeI.s:3547   .debug_str:000000000000076b .LASF24
     /tmp/cchTObeI.s:3509   .debug_str:000000000000064e .LASF23
     /tmp/cchTObeI.s:3595   .debug_str:00000000000008f6 .LASF25
     /tmp/cchTObeI.s:3495   .debug_str:00000000000005fb .LASF58
     /tmp/cchTObeI.s:3557   .debug_str:00000000000007c1 .LASF60
     /tmp/cchTObeI.s:3397   .debug_str:0000000000000340 .LASF26
     /tmp/cchTObeI.s:3503   .debug_str:000000000000062a .LASF28
     /tmp/cchTObeI.s:3403   .debug_str:000000000000035a .LASF29
     /tmp/cchTObeI.s:3425   .debug_str:000000000000040a .LASF137
     /tmp/cchTObeI.s:3359   .debug_str:00000000000001d8 .LASF138
     /tmp/cchTObeI.s:3447   .debug_str:00000000000004b9 .LASF139
     /tmp/cchTObeI.s:3327   .debug_str:0000000000000064 .LASF32
     /tmp/cchTObeI.s:3583   .debug_str:00000000000008a4 .LASF34
     /tmp/cchTObeI.s:3343   .debug_str:00000000000000b7 .LASF36
     /tmp/cchTObeI.s:3409   .debug_str:0000000000000386 .LASF37
     /tmp/cchTObeI.s:3415   .debug_str:00000000000003bb .LASF38
     /tmp/cchTObeI.s:3543   .debug_str:0000000000000738 .LASF39
     /tmp/cchTObeI.s:3521   .debug_str:0000000000000699 .LASF41
     /tmp/cchTObeI.s:3431   .debug_str:000000000000044d .LASF40
     /tmp/cchTObeI.s:3559   .debug_str:00000000000007dd .LASF42
     /tmp/cchTObeI.s:3421   .debug_str:00000000000003f6 .LASF43
     /tmp/cchTObeI.s:3513   .debug_str:000000000000066a .LASF44
     /tmp/cchTObeI.s:3491   .debug_str:00000000000005e9 .LASF47
     /tmp/cchTObeI.s:3411   .debug_str:0000000000000396 .LASF49
     /tmp/cchTObeI.s:3457   .debug_str:0000000000000508 .LASF45
     /tmp/cchTObeI.s:3601   .debug_str:000000000000092b .LASF46
     /tmp/cchTObeI.s:3449   .debug_str:00000000000004c3 .LASF48
     /tmp/cchTObeI.s:3551   .debug_str:0000000000000791 .LASF50
     /tmp/cchTObeI.s:3389   .debug_str:00000000000002fc .LASF140
     /tmp/cchTObeI.s:3441   .debug_str:0000000000000486 .LASF51
     /tmp/cchTObeI.s:3545   .debug_str:0000000000000748 .LASF52
     /tmp/cchTObeI.s:3517   .debug_str:000000000000067e .LASF141
     /tmp/cchTObeI.s:3365   .debug_str:0000000000000206 .LASF53
     /tmp/cchTObeI.s:3325   .debug_str:000000000000004a .LASF54
     /tmp/cchTObeI.s:3507   .debug_str:0000000000000643 .LASF55
     /tmp/cchTObeI.s:3519   .debug_str:0000000000000683 .LASF57
     /tmp/cchTObeI.s:3527   .debug_str:00000000000006c7 .LASF59
     /tmp/cchTObeI.s:3463   .debug_str:0000000000000536 .LASF61
     /tmp/cchTObeI.s:3335   .debug_str:0000000000000086 .LASF62
     /tmp/cchTObeI.s:3569   .debug_str:0000000000000837 .LASF63
     /tmp/cchTObeI.s:3381   .debug_str:00000000000002ba .LASF142
     /tmp/cchTObeI.s:3435   .debug_str:000000000000046e .LASF64
     /tmp/cchTObeI.s:3479   .debug_str:0000000000000592 .LASF65
     /tmp/cchTObeI.s:3477   .debug_str:000000000000058c .LASF66
     /tmp/cchTObeI.s:3439   .debug_str:000000000000047e .LASF67
     /tmp/cchTObeI.s:3481   .debug_str:000000000000059b .LASF68
     /tmp/cchTObeI.s:3585   .debug_str:00000000000008b1 .LASF69
     /tmp/cchTObeI.s:3315   .debug_str:0000000000000000 .LASF70
     /tmp/cchTObeI.s:3535   .debug_str:00000000000006ff .LASF71
     /tmp/cchTObeI.s:3443   .debug_str:0000000000000493 .LASF72
     /tmp/cchTObeI.s:3419   .debug_str:00000000000003dd .LASF74
GAS LISTING /tmp/cchTObeI.s 			page 25


     /tmp/cchTObeI.s:3475   .debug_str:0000000000000583 .LASF73
     /tmp/cchTObeI.s:3395   .debug_str:000000000000032d .LASF75
     /tmp/cchTObeI.s:3581   .debug_str:0000000000000896 .LASF143
     /tmp/cchTObeI.s:3427   .debug_str:000000000000041e .LASF144
     /tmp/cchTObeI.s:3483   .debug_str:00000000000005a5 .LASF76
     /tmp/cchTObeI.s:3523   .debug_str:00000000000006a6 .LASF77
     /tmp/cchTObeI.s:3593   .debug_str:00000000000008de .LASF78
     /tmp/cchTObeI.s:3341   .debug_str:00000000000000a9 .LASF79
     /tmp/cchTObeI.s:3387   .debug_str:00000000000002e1 .LASF80
     /tmp/cchTObeI.s:3401   .debug_str:000000000000034d .LASF81
     /tmp/cchTObeI.s:3319   .debug_str:0000000000000017 .LASF82
     /tmp/cchTObeI.s:3323   .debug_str:0000000000000041 .LASF83
     /tmp/cchTObeI.s:3391   .debug_str:0000000000000304 .LASF84
     /tmp/cchTObeI.s:3385   .debug_str:00000000000002d8 .LASF85
     /tmp/cchTObeI.s:3369   .debug_str:000000000000021a .LASF86
     /tmp/cchTObeI.s:3461   .debug_str:000000000000052f .LASF87
     /tmp/cchTObeI.s:3511   .debug_str:0000000000000657 .LASF88
     /tmp/cchTObeI.s:3575   .debug_str:0000000000000870 .LASF89
     /tmp/cchTObeI.s:3571   .debug_str:000000000000084d .LASF90
     /tmp/cchTObeI.s:3407   .debug_str:000000000000037e .LASF91
     /tmp/cchTObeI.s:3375   .debug_str:000000000000025d .LASF92
     /tmp/cchTObeI.s:3529   .debug_str:00000000000006cd .LASF93
     /tmp/cchTObeI.s:3539   .debug_str:0000000000000715 .LASF94
     /tmp/cchTObeI.s:3497   .debug_str:0000000000000600 .LASF95
     /tmp/cchTObeI.s:3353   .debug_str:00000000000001a3 .LASF96
     /tmp/cchTObeI.s:3599   .debug_str:0000000000000923 .LASF97
     /tmp/cchTObeI.s:3393   .debug_str:0000000000000319 .LASF98
     /tmp/cchTObeI.s:3473   .debug_str:000000000000057c .LASF99
     /tmp/cchTObeI.s:3589   .debug_str:00000000000008c6 .LASF100
     /tmp/cchTObeI.s:3337   .debug_str:0000000000000091 .LASF101
     /tmp/cchTObeI.s:3405   .debug_str:000000000000036b .LASF102
     /tmp/cchTObeI.s:3465   .debug_str:0000000000000546 .LASF103
     /tmp/cchTObeI.s:3555   .debug_str:00000000000007af .LASF104
     /tmp/cchTObeI.s:3333   .debug_str:0000000000000080 .LASF105
     /tmp/cchTObeI.s:3605   .debug_str:0000000000000953 .LASF106
     /tmp/cchTObeI.s:3597   .debug_str:0000000000000918 .LASF107
     /tmp/cchTObeI.s:3531   .debug_str:00000000000006d5 .LASF108
     /tmp/cchTObeI.s:3437   .debug_str:0000000000000473 .LASF109
     /tmp/cchTObeI.s:3445   .debug_str:00000000000004a1 .LASF110
     /tmp/cchTObeI.s:3361   .debug_str:00000000000001f0 .LASF111
     /tmp/cchTObeI.s:3501   .debug_str:0000000000000614 .LASF112
     /tmp/cchTObeI.s:3329   .debug_str:000000000000006c .LASF113
     /tmp/cchTObeI.s:3417   .debug_str:00000000000003c7 .LASF114
     /tmp/cchTObeI.s:3553   .debug_str:00000000000007aa .LASF115
     /tmp/cchTObeI.s:3561   .debug_str:00000000000007ea .LASF116
     /tmp/cchTObeI.s:3349   .debug_str:000000000000018e .LASF117
     /tmp/cchTObeI.s:3339   .debug_str:0000000000000098 .LASF118
     /tmp/cchTObeI.s:3541   .debug_str:0000000000000729 .LASF119
     /tmp/cchTObeI.s:3355   .debug_str:00000000000001b7 .LASF120
     /tmp/cchTObeI.s:3579   .debug_str:0000000000000881 .LASF121
     /tmp/cchTObeI.s:3377   .debug_str:0000000000000271 .LASF122
     /tmp/cchTObeI.s:3603   .debug_str:0000000000000942 .LASF123
     /tmp/cchTObeI.s:3459   .debug_str:0000000000000514 .LASF124
     /tmp/cchTObeI.s:589    .text:0000000000000300 .LFB48
     /tmp/cchTObeI.s:610    .text:000000000000031c .LFE48
     /tmp/cchTObeI.s:3591   .debug_str:00000000000008d9 .LASF127
     /tmp/cchTObeI.s:193    .text:00000000000000c0 .LFB47
GAS LISTING /tmp/cchTObeI.s 			page 26


     /tmp/cchTObeI.s:249    .text:000000000000011c .LFE47
     /tmp/cchTObeI.s:223    .text:00000000000000f8 .LBB14
     /tmp/cchTObeI.s:232    .text:0000000000000100 .LBE14
     /tmp/cchTObeI.s:3033   .debug_loc:0000000000000000 .LLST4
     /tmp/cchTObeI.s:3041   .debug_loc:0000000000000024 .LLST5
     /tmp/cchTObeI.s:209    .text:00000000000000dc .LVL8
     /tmp/cchTObeI.s:236    .text:0000000000000108 .LVL12
     /tmp/cchTObeI.s:544    .text:00000000000002c4 .LFB46
     /tmp/cchTObeI.s:583    .text:0000000000000300 .LFE46
     /tmp/cchTObeI.s:557    .text:00000000000002d4 .LBB29
     /tmp/cchTObeI.s:566    .text:00000000000002e4 .LBE29
     /tmp/cchTObeI.s:3048   .debug_loc:0000000000000047 .LLST17
     /tmp/cchTObeI.s:3056   .debug_loc:000000000000006b .LLST18
     /tmp/cchTObeI.s:570    .text:00000000000002ec .LVL41
     /tmp/cchTObeI.s:484    .text:0000000000000274 .LFB45
     /tmp/cchTObeI.s:538    .text:00000000000002c4 .LFE45
     /tmp/cchTObeI.s:3493   .debug_str:00000000000005f4 .LASF125
     /tmp/cchTObeI.s:3064   .debug_loc:0000000000000096 .LLST15
     /tmp/cchTObeI.s:504    .text:0000000000000290 .LBB27
     /tmp/cchTObeI.s:517    .text:00000000000002a0 .LBE27
     /tmp/cchTObeI.s:3086   .debug_loc:00000000000000f5 .LLST16
     /tmp/cchTObeI.s:514    .text:00000000000002a0 .LVL35
     /tmp/cchTObeI.s:521    .text:00000000000002ac .LVL36
     /tmp/cchTObeI.s:459    .text:0000000000000274 .LFE44
     /tmp/cchTObeI.s:3097   .debug_loc:000000000000012b .LLST8
     /tmp/cchTObeI.s:3115   .debug_loc:0000000000000177 .LLST9
     /tmp/cchTObeI.s:3357   .debug_str:00000000000001d3 .LASF126
     /tmp/cchTObeI.s:3133   .debug_loc:00000000000001c3 .LLST10
     /tmp/cchTObeI.s:364    .text:00000000000001c8 .LBB23
     /tmp/cchTObeI.s:425    .text:0000000000000238 .LBE23
     /tmp/cchTObeI.s:3162   .debug_loc:0000000000000238 .LLST11
     /tmp/cchTObeI.s:3187   .debug_loc:000000000000029a .LLST12
     /tmp/cchTObeI.s:3201   .debug_loc:00000000000002d3 .LLST13
     /tmp/cchTObeI.s:3215   .debug_loc:000000000000030c .LLST14
     /tmp/cchTObeI.s:384    .text:00000000000001f8 .LBB25
     /tmp/cchTObeI.s:400    .text:0000000000000204 .LBE25
     /tmp/cchTObeI.s:414    .text:0000000000000228 .LVL24
     /tmp/cchTObeI.s:360    .text:00000000000001c4 .LVL22
     /tmp/cchTObeI.s:429    .text:0000000000000244 .LVL26
     /tmp/cchTObeI.s:433    .text:0000000000000250 .LVL27
     /tmp/cchTObeI.s:255    .text:000000000000011c .LFB43
     /tmp/cchTObeI.s:323    .text:000000000000018c .LFE43
     /tmp/cchTObeI.s:3226   .debug_loc:0000000000000342 .LLST6
     /tmp/cchTObeI.s:273    .text:0000000000000138 .LBB16
     /tmp/cchTObeI.s:280    .text:000000000000013c .LBE16
     /tmp/cchTObeI.s:3237   .debug_loc:0000000000000378 .LLST7
     /tmp/cchTObeI.s:291    .text:0000000000000150 .LVL15
     /tmp/cchTObeI.s:299    .text:0000000000000168 .LVL16
     /tmp/cchTObeI.s:320    .text:0000000000000188 .LVL19
     /tmp/cchTObeI.s:158    .text:00000000000000a0 .LFB42
     /tmp/cchTObeI.s:187    .text:00000000000000c0 .LFE42
     /tmp/cchTObeI.s:117    .text:0000000000000078 .LFB41
     /tmp/cchTObeI.s:145    .text:00000000000000a0 .LFE41
     /tmp/cchTObeI.s:3244   .debug_loc:000000000000039b .LLST3
     /tmp/cchTObeI.s:134    .text:0000000000000090 .LVL7
     /tmp/cchTObeI.s:75     .text:0000000000000050 .LFB40
     /tmp/cchTObeI.s:103    .text:0000000000000078 .LFE40
GAS LISTING /tmp/cchTObeI.s 			page 27


     /tmp/cchTObeI.s:3258   .debug_loc:00000000000003d4 .LLST2
     /tmp/cchTObeI.s:92     .text:0000000000000068 .LVL5
     /tmp/cchTObeI.s:43     .text:0000000000000028 .LFB39
     /tmp/cchTObeI.s:69     .text:0000000000000050 .LFE39
     /tmp/cchTObeI.s:3272   .debug_loc:000000000000040d .LLST1
     /tmp/cchTObeI.s:58     .text:0000000000000040 .LVL3
     /tmp/cchTObeI.s:10     .text:0000000000000000 .LFB38
     /tmp/cchTObeI.s:37     .text:0000000000000028 .LFE38
     /tmp/cchTObeI.s:3286   .debug_loc:0000000000000446 .LLST0
     /tmp/cchTObeI.s:26     .text:0000000000000018 .LVL1
     /tmp/cchTObeI.s:3487   .debug_str:00000000000005be .LASF129
     /tmp/cchTObeI.s:3331   .debug_str:0000000000000076 .LASF128
     /tmp/cchTObeI.s:3587   .debug_str:00000000000008ba .LASF130
     /tmp/cchTObeI.s:3515   .debug_str:0000000000000676 .LASF145
     /tmp/cchTObeI.s:3367   .debug_str:0000000000000213 .LASF131
     /tmp/cchTObeI.s:3423   .debug_str:00000000000003fb .LASF132
     /tmp/cchTObeI.s:3371   .debug_str:000000000000022f .LASF133
     /tmp/cchTObeI.s:222    .text:00000000000000f8 .LVL10
     /tmp/cchTObeI.s:230    .text:0000000000000100 .LVL11
     /tmp/cchTObeI.s:556    .text:00000000000002d4 .LVL39
     /tmp/cchTObeI.s:564    .text:00000000000002e4 .LVL40
     /tmp/cchTObeI.s:487    .text:0000000000000274 .LVL32
     /tmp/cchTObeI.s:509    .text:0000000000000294 .LVL34
     /tmp/cchTObeI.s:530    .text:00000000000002b8 .LVL37
     /tmp/cchTObeI.s:534    .text:00000000000002c0 .LVL38
     /tmp/cchTObeI.s:503    .text:0000000000000290 .LVL33
     /tmp/cchTObeI.s:334    .text:000000000000018c .LVL20
     /tmp/cchTObeI.s:357    .text:00000000000001bc .LVL21
     /tmp/cchTObeI.s:451    .text:0000000000000268 .LVL30
     /tmp/cchTObeI.s:454    .text:000000000000026c .LVL31
     /tmp/cchTObeI.s:423    .text:0000000000000238 .LVL25
     /tmp/cchTObeI.s:448    .text:0000000000000264 .LVL29
     /tmp/cchTObeI.s:363    .text:00000000000001c8 .LVL23
     /tmp/cchTObeI.s:445    .text:0000000000000260 .LVL28
     /tmp/cchTObeI.s:271    .text:0000000000000138 .LVL13
     /tmp/cchTObeI.s:309    .text:0000000000000174 .LVL17
     /tmp/cchTObeI.s:313    .text:000000000000017c .LVL18
     /tmp/cchTObeI.s:278    .text:000000000000013c .LVL14
     /tmp/cchTObeI.s:122    .text:0000000000000078 .LVL6
     /tmp/cchTObeI.s:80     .text:0000000000000050 .LVL4
     /tmp/cchTObeI.s:46     .text:0000000000000028 .LVL2
     /tmp/cchTObeI.s:14     .text:0000000000000000 .LVL0
     /tmp/cchTObeI.s:631    .debug_info:0000000000000000 .Ldebug_info0
     /tmp/cchTObeI.s:106    .gcc_except_table:0000000000000000 .LLSDA40
     /tmp/cchTObeI.s:147    .gcc_except_table:0000000000000004 .LLSDA41
     /tmp/cchTObeI.s:461    .gcc_except_table:0000000000000008 .LLSDA44

UNDEFINED SYMBOLS
_ZN15MemoryAllocator9mem_allocEm
_ZN15MemoryAllocator8mem_freeEPKv
__gxx_personality_v0
_ZN5Riscv10popSppSpieEv
_ZN9Scheduler3getEv
_ZN3TCB13contextSwitchEPNS_7ContextES1_
_ZN9Scheduler3putEP3TCB
_Unwind_Resume
_ZdlPv
GAS LISTING /tmp/cchTObeI.s 			page 28


