GAS LISTING /tmp/ccpdjtZT.s 			page 1


   1              		.file	"tcb.cpp"
   2              		.option pic
   3              		.option norelax
   4              		.text
   5              	.Ltext0:
   6              		.align	2
   7              		.globl	_ZN3TCBnwEm
   9              	_ZN3TCBnwEm:
  10              	.LFB38:
  11              		.file 1 "src/tcb.cpp"
   1:src/tcb.cpp   **** //
   2:src/tcb.cpp   **** // Created by os on 5/19/24.
   3:src/tcb.cpp   **** //
   4:src/tcb.cpp   **** 
   5:src/tcb.cpp   **** #include "../h/tcb.hpp"
   6:src/tcb.cpp   **** 
   7:src/tcb.cpp   **** 
   8:src/tcb.cpp   **** TCB *TCB::running = nullptr;
   9:src/tcb.cpp   **** uint64 TCB::timeSliceCounter = 0;
  10:src/tcb.cpp   **** 
  11:src/tcb.cpp   **** void *TCB::operator new(size_t n)
  12:src/tcb.cpp   **** {
  12              		.loc 1 12 1
  13              		.cfi_startproc
  14              	.LVL0:
  15 0000 130101FF 		addi	sp,sp,-16
  16              		.cfi_def_cfa_offset 16
  17 0004 23341100 		sd	ra,8(sp)
  18 0008 23308100 		sd	s0,0(sp)
  19              		.cfi_offset 1, -8
  20              		.cfi_offset 8, -16
  21 000c 13040101 		addi	s0,sp,16
  22              		.cfi_def_cfa 8, 0
  13:src/tcb.cpp   ****     return MemoryAllocator::mem_alloc(n);
  23              		.loc 1 13 5
  24              		.loc 1 13 38 is_stmt 0
  25 0010 97000000 		call	_ZN15MemoryAllocator9mem_allocEm@plt
  25      E7800000 
  26              	.LVL1:
  14:src/tcb.cpp   **** }
  27              		.loc 1 14 1
  28 0018 83308100 		ld	ra,8(sp)
  29              		.cfi_restore 1
  30 001c 03340100 		ld	s0,0(sp)
  31              		.cfi_restore 8
  32              		.cfi_def_cfa 2, 16
  33 0020 13010101 		addi	sp,sp,16
  34              		.cfi_def_cfa_offset 0
  35 0024 67800000 		jr	ra
  36              		.cfi_endproc
  37              	.LFE38:
  39              		.align	2
  40              		.globl	_ZN3TCBnaEm
  42              	_ZN3TCBnaEm:
  43              	.LFB39:
  15:src/tcb.cpp   **** 
  16:src/tcb.cpp   **** void *TCB::operator new[](size_t n)
GAS LISTING /tmp/ccpdjtZT.s 			page 2


  17:src/tcb.cpp   **** {
  44              		.loc 1 17 1 is_stmt 1
  45              		.cfi_startproc
  46              	.LVL2:
  47 0028 130101FF 		addi	sp,sp,-16
  48              		.cfi_def_cfa_offset 16
  49 002c 23341100 		sd	ra,8(sp)
  50 0030 23308100 		sd	s0,0(sp)
  51              		.cfi_offset 1, -8
  52              		.cfi_offset 8, -16
  53 0034 13040101 		addi	s0,sp,16
  54              		.cfi_def_cfa 8, 0
  18:src/tcb.cpp   ****     return MemoryAllocator::mem_alloc(n);
  55              		.loc 1 18 5
  56              		.loc 1 18 38 is_stmt 0
  57 0038 97000000 		call	_ZN15MemoryAllocator9mem_allocEm@plt
  57      E7800000 
  58              	.LVL3:
  19:src/tcb.cpp   **** }
  59              		.loc 1 19 1
  60 0040 83308100 		ld	ra,8(sp)
  61              		.cfi_restore 1
  62 0044 03340100 		ld	s0,0(sp)
  63              		.cfi_restore 8
  64              		.cfi_def_cfa 2, 16
  65 0048 13010101 		addi	sp,sp,16
  66              		.cfi_def_cfa_offset 0
  67 004c 67800000 		jr	ra
  68              		.cfi_endproc
  69              	.LFE39:
  71              		.align	2
  72              		.globl	_ZN3TCBdlEPv
  74              	_ZN3TCBdlEPv:
  75              	.LFB40:
  20:src/tcb.cpp   **** 
  21:src/tcb.cpp   **** void TCB::operator delete(void *p) noexcept
  22:src/tcb.cpp   **** {
  76              		.loc 1 22 1 is_stmt 1
  77              		.cfi_startproc
  78              		.cfi_personality 0x9b,DW.ref.__gxx_personality_v0
  79              		.cfi_lsda 0x1b,.LLSDA40
  80              	.LVL4:
  81 0050 130101FF 		addi	sp,sp,-16
  82              		.cfi_def_cfa_offset 16
  83 0054 23341100 		sd	ra,8(sp)
  84 0058 23308100 		sd	s0,0(sp)
  85              		.cfi_offset 1, -8
  86              		.cfi_offset 8, -16
  87 005c 13040101 		addi	s0,sp,16
  88              		.cfi_def_cfa 8, 0
  23:src/tcb.cpp   ****     MemoryAllocator::mem_free(p);
  89              		.loc 1 23 5
  90              		.loc 1 23 30 is_stmt 0
  91 0060 97000000 		call	_ZN15MemoryAllocator8mem_freeEPKv@plt
  91      E7800000 
  92              	.LVL5:
  24:src/tcb.cpp   **** }
GAS LISTING /tmp/ccpdjtZT.s 			page 3


  93              		.loc 1 24 1
  94 0068 83308100 		ld	ra,8(sp)
  95              		.cfi_restore 1
  96 006c 03340100 		ld	s0,0(sp)
  97              		.cfi_restore 8
  98              		.cfi_def_cfa 2, 16
  99 0070 13010101 		addi	sp,sp,16
 100              		.cfi_def_cfa_offset 0
 101 0074 67800000 		jr	ra
 102              		.cfi_endproc
 103              	.LFE40:
 104              		.globl	__gxx_personality_v0
 105              		.section	.gcc_except_table,"a",@progbits
 106              	.LLSDA40:
 107 0000 FF       		.byte	0xff
 108 0001 FF       		.byte	0xff
 109 0002 03       		.byte	0x3
 110 0003 00       		.byte	0
 111              		.text
 113              		.align	2
 114              		.globl	_ZN3TCBdaEPv
 116              	_ZN3TCBdaEPv:
 117              	.LFB41:
  25:src/tcb.cpp   **** 
  26:src/tcb.cpp   **** void TCB::operator delete[](void *p) noexcept
  27:src/tcb.cpp   **** {
 118              		.loc 1 27 1 is_stmt 1
 119              		.cfi_startproc
 120              		.cfi_personality 0x9b,DW.ref.__gxx_personality_v0
 121              		.cfi_lsda 0x1b,.LLSDA41
 122              	.LVL6:
 123 0078 130101FF 		addi	sp,sp,-16
 124              		.cfi_def_cfa_offset 16
 125 007c 23341100 		sd	ra,8(sp)
 126 0080 23308100 		sd	s0,0(sp)
 127              		.cfi_offset 1, -8
 128              		.cfi_offset 8, -16
 129 0084 13040101 		addi	s0,sp,16
 130              		.cfi_def_cfa 8, 0
  28:src/tcb.cpp   ****     MemoryAllocator::mem_free(p);
 131              		.loc 1 28 5
 132              		.loc 1 28 30 is_stmt 0
 133 0088 97000000 		call	_ZN15MemoryAllocator8mem_freeEPKv@plt
 133      E7800000 
 134              	.LVL7:
  29:src/tcb.cpp   **** }
 135              		.loc 1 29 1
 136 0090 83308100 		ld	ra,8(sp)
 137              		.cfi_restore 1
 138 0094 03340100 		ld	s0,0(sp)
 139              		.cfi_restore 8
 140              		.cfi_def_cfa 2, 16
 141 0098 13010101 		addi	sp,sp,16
 142              		.cfi_def_cfa_offset 0
 143 009c 67800000 		jr	ra
 144              		.cfi_endproc
 145              	.LFE41:
GAS LISTING /tmp/ccpdjtZT.s 			page 4


 146              		.section	.gcc_except_table
 147              	.LLSDA41:
 148 0004 FF       		.byte	0xff
 149 0005 FF       		.byte	0xff
 150 0006 03       		.byte	0x3
 151 0007 00       		.byte	0
 152              		.text
 154              		.align	2
 155              		.globl	_ZN3TCB8dispatchEv
 157              	_ZN3TCB8dispatchEv:
 158              	.LFB42:
  30:src/tcb.cpp   **** /*
  31:src/tcb.cpp   **** void TCB::yield(){
  32:src/tcb.cpp   ****     //__asm__ volatile("li a0, 0x13");
  33:src/tcb.cpp   ****     //__asm__ volatile("ecall");
  34:src/tcb.cpp   ****     TCB::timeSliceCounter=0;
  35:src/tcb.cpp   ****     TCB::dispatch();
  36:src/tcb.cpp   **** }
  37:src/tcb.cpp   **** */
  38:src/tcb.cpp   **** void TCB::dispatch(){
 159              		.loc 1 38 21 is_stmt 1
 160              		.cfi_startproc
 161 00a0 130101FD 		addi	sp,sp,-48
 162              		.cfi_def_cfa_offset 48
 163 00a4 23341102 		sd	ra,40(sp)
 164 00a8 23308102 		sd	s0,32(sp)
 165 00ac 233C9100 		sd	s1,24(sp)
 166              		.cfi_offset 1, -8
 167              		.cfi_offset 8, -16
 168              		.cfi_offset 9, -24
 169 00b0 13040103 		addi	s0,sp,48
 170              		.cfi_def_cfa 8, 0
  39:src/tcb.cpp   **** 
  40:src/tcb.cpp   ****     if(TCB::running->body != nullptr || Riscv::r_scause()) Riscv::mc_sstatus(Riscv::SSTATUS_SPP);
 171              		.loc 1 40 5
 172              		.loc 1 40 22 is_stmt 0
 173 00b4 97070000 		ld	a5,.LANCHOR0
 173      83B70700 
 174 00bc 83B70700 		ld	a5,0(a5)
 175              		.loc 1 40 38
 176 00c0 638C0704 		beqz	a5,.L14
 177              	.L10:
 178              		.loc 1 40 60 is_stmt 1 discriminator 3
 179              	.LVL8:
 180              	.LBB18:
 181              	.LBB19:
 182              		.file 2 "src/../h/riscv.hpp"
   1:src/../h/riscv.hpp **** //
   2:src/../h/riscv.hpp **** // Created by marko on 20.4.22..
   3:src/../h/riscv.hpp **** //
   4:src/../h/riscv.hpp **** 
   5:src/../h/riscv.hpp **** #ifndef OS1_VEZBE07_RISCV_CONTEXT_SWITCH_2_INTERRUPT_RISCV_HPP
   6:src/../h/riscv.hpp **** #define OS1_VEZBE07_RISCV_CONTEXT_SWITCH_2_INTERRUPT_RISCV_HPP
   7:src/../h/riscv.hpp **** 
   8:src/../h/riscv.hpp **** #include "../lib/hw.h"
   9:src/../h/riscv.hpp **** #include "../lib/console.h"
  10:src/../h/riscv.hpp **** class Riscv
GAS LISTING /tmp/ccpdjtZT.s 			page 5


  11:src/../h/riscv.hpp **** {
  12:src/../h/riscv.hpp **** public:
  13:src/../h/riscv.hpp **** 
  14:src/../h/riscv.hpp ****     //pop sstatus spp and sstatus spie
  15:src/../h/riscv.hpp ****     static void popSppSpie();
  16:src/../h/riscv.hpp ****     //push x3..31 registers
  17:src/../h/riscv.hpp ****     static void pushRegisters();
  18:src/../h/riscv.hpp ****     //pop x3..31 regiesters
  19:src/../h/riscv.hpp ****     static void popRegisters();
  20:src/../h/riscv.hpp **** 
  21:src/../h/riscv.hpp ****     // read register scause
  22:src/../h/riscv.hpp ****     static uint64 r_scause();
  23:src/../h/riscv.hpp **** 
  24:src/../h/riscv.hpp ****     // write register scause
  25:src/../h/riscv.hpp ****     static void w_scause(uint64 scause);
  26:src/../h/riscv.hpp **** 
  27:src/../h/riscv.hpp ****     // read register sepc
  28:src/../h/riscv.hpp ****     static uint64 r_sepc();
  29:src/../h/riscv.hpp **** 
  30:src/../h/riscv.hpp ****     // write register sepc
  31:src/../h/riscv.hpp ****     static void w_sepc(uint64 sepc);
  32:src/../h/riscv.hpp **** 
  33:src/../h/riscv.hpp ****     // read register stvec
  34:src/../h/riscv.hpp ****     static uint64 r_stvec();
  35:src/../h/riscv.hpp **** 
  36:src/../h/riscv.hpp ****     // write register stvec
  37:src/../h/riscv.hpp ****     static void w_stvec(uint64 stvec);
  38:src/../h/riscv.hpp **** 
  39:src/../h/riscv.hpp ****     // read register stval
  40:src/../h/riscv.hpp ****     static uint64 r_stval();
  41:src/../h/riscv.hpp **** 
  42:src/../h/riscv.hpp ****     // write register stval
  43:src/../h/riscv.hpp ****     static void w_stval(uint64 stval);
  44:src/../h/riscv.hpp **** 
  45:src/../h/riscv.hpp ****     enum BitMaskSip
  46:src/../h/riscv.hpp ****     {
  47:src/../h/riscv.hpp ****         SIP_SSIP = (1 << 1),
  48:src/../h/riscv.hpp ****         SIP_STIP = (1 << 5),
  49:src/../h/riscv.hpp ****         SIP_SEIP = (1 << 9),
  50:src/../h/riscv.hpp ****     };
  51:src/../h/riscv.hpp **** 
  52:src/../h/riscv.hpp ****     // mask set register sip
  53:src/../h/riscv.hpp ****     static void ms_sip(uint64 mask);
  54:src/../h/riscv.hpp **** 
  55:src/../h/riscv.hpp ****     // mask clear register sip
  56:src/../h/riscv.hpp ****     static void mc_sip(uint64 mask);
  57:src/../h/riscv.hpp **** 
  58:src/../h/riscv.hpp ****     // read register sip
  59:src/../h/riscv.hpp ****     static uint64 r_sip();
  60:src/../h/riscv.hpp **** 
  61:src/../h/riscv.hpp ****     // write register sip
  62:src/../h/riscv.hpp ****     static void w_sip(uint64 sip);
  63:src/../h/riscv.hpp **** 
  64:src/../h/riscv.hpp ****     enum BitMaskSstatus
  65:src/../h/riscv.hpp ****     {
  66:src/../h/riscv.hpp ****         SSTATUS_SIE = (1 << 1),
  67:src/../h/riscv.hpp ****         SSTATUS_SPIE = (1 << 5),
GAS LISTING /tmp/ccpdjtZT.s 			page 6


  68:src/../h/riscv.hpp ****         SSTATUS_SPP = (1 << 8),
  69:src/../h/riscv.hpp ****     };
  70:src/../h/riscv.hpp **** 
  71:src/../h/riscv.hpp ****     // mask set register sstatus
  72:src/../h/riscv.hpp ****     static void ms_sstatus(uint64 mask);
  73:src/../h/riscv.hpp **** 
  74:src/../h/riscv.hpp ****     // mask clear register sstatus
  75:src/../h/riscv.hpp ****     static void mc_sstatus(uint64 mask);
  76:src/../h/riscv.hpp **** 
  77:src/../h/riscv.hpp ****     // read register sstatus
  78:src/../h/riscv.hpp ****     static uint64 r_sstatus();
  79:src/../h/riscv.hpp **** 
  80:src/../h/riscv.hpp ****     // write register sstatus
  81:src/../h/riscv.hpp ****     static void w_sstatus(uint64 sstatus);
  82:src/../h/riscv.hpp **** 
  83:src/../h/riscv.hpp ****     //read a0 register
  84:src/../h/riscv.hpp ****     static uint64 r_a0();
  85:src/../h/riscv.hpp **** 
  86:src/../h/riscv.hpp ****     //write to a0 register
  87:src/../h/riscv.hpp ****     static void w_a0(uint64 writeValue);
  88:src/../h/riscv.hpp **** 
  89:src/../h/riscv.hpp ****     static void supervisorTrap();
  90:src/../h/riscv.hpp **** 
  91:src/../h/riscv.hpp **** private:
  92:src/../h/riscv.hpp ****     static void handleSupervisorTrap();
  93:src/../h/riscv.hpp **** };
  94:src/../h/riscv.hpp **** 
  95:src/../h/riscv.hpp **** 
  96:src/../h/riscv.hpp **** inline uint64 Riscv::r_scause()
  97:src/../h/riscv.hpp **** {
  98:src/../h/riscv.hpp ****     uint64 volatile scause;
  99:src/../h/riscv.hpp ****     __asm__ volatile ("csrr %[scause], scause" : [scause] "=r"(scause));
 100:src/../h/riscv.hpp ****     return scause;
 101:src/../h/riscv.hpp **** }
 102:src/../h/riscv.hpp **** 
 103:src/../h/riscv.hpp **** inline void Riscv::w_scause(uint64 scause)
 104:src/../h/riscv.hpp **** {
 105:src/../h/riscv.hpp ****     __asm__ volatile ("csrw scause, %[scause]" : : [scause] "r"(scause));
 106:src/../h/riscv.hpp **** }
 107:src/../h/riscv.hpp **** 
 108:src/../h/riscv.hpp **** inline uint64 Riscv::r_sepc()
 109:src/../h/riscv.hpp **** {
 110:src/../h/riscv.hpp ****     uint64 volatile sepc;
 111:src/../h/riscv.hpp ****     __asm__ volatile ("csrr %[sepc], sepc" : [sepc] "=r"(sepc));
 112:src/../h/riscv.hpp ****     return sepc;
 113:src/../h/riscv.hpp **** }
 114:src/../h/riscv.hpp **** 
 115:src/../h/riscv.hpp **** inline void Riscv::w_sepc(uint64 sepc)
 116:src/../h/riscv.hpp **** {
 117:src/../h/riscv.hpp ****     __asm__ volatile ("csrw sepc, %[sepc]" : : [sepc] "r"(sepc));
 118:src/../h/riscv.hpp **** }
 119:src/../h/riscv.hpp **** 
 120:src/../h/riscv.hpp **** inline uint64 Riscv::r_stvec()
 121:src/../h/riscv.hpp **** {
 122:src/../h/riscv.hpp ****     uint64 volatile stvec;
 123:src/../h/riscv.hpp ****     __asm__ volatile ("csrr %[stvec], stvec" : [stvec] "=r"(stvec));
 124:src/../h/riscv.hpp ****     return stvec;
GAS LISTING /tmp/ccpdjtZT.s 			page 7


 125:src/../h/riscv.hpp **** }
 126:src/../h/riscv.hpp **** 
 127:src/../h/riscv.hpp **** inline void Riscv::w_stvec(uint64 stvec)
 128:src/../h/riscv.hpp **** {
 129:src/../h/riscv.hpp ****     __asm__ volatile ("csrw stvec, %[stvec]" : : [stvec] "r"(stvec));
 130:src/../h/riscv.hpp **** }
 131:src/../h/riscv.hpp **** 
 132:src/../h/riscv.hpp **** inline uint64 Riscv::r_stval()
 133:src/../h/riscv.hpp **** {
 134:src/../h/riscv.hpp ****     uint64 volatile stval;
 135:src/../h/riscv.hpp ****     __asm__ volatile ("csrr %[stval], stval" : [stval] "=r"(stval));
 136:src/../h/riscv.hpp ****     return stval;
 137:src/../h/riscv.hpp **** }
 138:src/../h/riscv.hpp **** 
 139:src/../h/riscv.hpp **** inline void Riscv::w_stval(uint64 stval)
 140:src/../h/riscv.hpp **** {
 141:src/../h/riscv.hpp ****     __asm__ volatile ("csrw stval, %[stval]" : : [stval] "r"(stval));
 142:src/../h/riscv.hpp **** }
 143:src/../h/riscv.hpp **** 
 144:src/../h/riscv.hpp **** inline void Riscv::ms_sip(uint64 mask)
 145:src/../h/riscv.hpp **** {
 146:src/../h/riscv.hpp ****     __asm__ volatile ("csrs sip, %[mask]" : : [mask] "r"(mask));
 147:src/../h/riscv.hpp **** }
 148:src/../h/riscv.hpp **** 
 149:src/../h/riscv.hpp **** inline void Riscv::mc_sip(uint64 mask)
 150:src/../h/riscv.hpp **** {
 151:src/../h/riscv.hpp ****     __asm__ volatile ("csrc sip, %[mask]" : : [mask] "r"(mask));
 152:src/../h/riscv.hpp **** }
 153:src/../h/riscv.hpp **** 
 154:src/../h/riscv.hpp **** inline uint64 Riscv::r_sip()
 155:src/../h/riscv.hpp **** {
 156:src/../h/riscv.hpp ****     uint64 volatile sip;
 157:src/../h/riscv.hpp ****     __asm__ volatile ("csrr %[sip], sip" : [sip] "=r"(sip));
 158:src/../h/riscv.hpp ****     return sip;
 159:src/../h/riscv.hpp **** }
 160:src/../h/riscv.hpp **** 
 161:src/../h/riscv.hpp **** inline void Riscv::w_sip(uint64 sip)
 162:src/../h/riscv.hpp **** {
 163:src/../h/riscv.hpp ****     __asm__ volatile ("csrw sip, %[sip]" : : [sip] "r"(sip));
 164:src/../h/riscv.hpp **** }
 165:src/../h/riscv.hpp **** 
 166:src/../h/riscv.hpp **** inline void Riscv::ms_sstatus(uint64 mask)
 167:src/../h/riscv.hpp **** {
 168:src/../h/riscv.hpp ****     __asm__ volatile ("csrs sstatus, %[mask]" : : [mask] "r"(mask));
 169:src/../h/riscv.hpp **** }
 170:src/../h/riscv.hpp **** 
 171:src/../h/riscv.hpp **** inline void Riscv::mc_sstatus(uint64 mask)
 172:src/../h/riscv.hpp **** {
 173:src/../h/riscv.hpp ****     __asm__ volatile ("csrc sstatus, %[mask]" : : [mask] "r"(mask));
 183              		.loc 2 173 5 discriminator 3
 184              		.loc 2 173 68 is_stmt 0 discriminator 3
 185 00c4 93070010 		li	a5,256
 186              	#APP
 187              	# 173 "src/../h/riscv.hpp" 1
 174              	}
 188              		csrc sstatus, a5
 189              	# 0 "" 2
GAS LISTING /tmp/ccpdjtZT.s 			page 8


 190              	.LVL9:
 191              	#NO_APP
 192              	.L11:
 193              	.LBE19:
 194              	.LBE18:
  41:src/tcb.cpp   ****     TCB* old= running;
 195              		.loc 1 41 5 is_stmt 1
 196              		.loc 1 41 10 is_stmt 0
 197 00cc 97040000 		ld	s1,.LANCHOR0
 197      83B40400 
 198              	.LVL10:
  42:src/tcb.cpp   ****     if(!old->isFinished() && !old->blocked){
 199              		.loc 1 42 5 is_stmt 1
 200              	.LBB20:
 201              	.LBB21:
 202              		.file 3 "src/../h/tcb.hpp"
   1:src/../h/tcb.hpp **** //
   2:src/../h/tcb.hpp **** // Created by os on 5/19/24.
   3:src/../h/tcb.hpp **** //
   4:src/../h/tcb.hpp **** 
   5:src/../h/tcb.hpp **** #ifndef PROJEKAT_TCB_HPP
   6:src/../h/tcb.hpp **** #define PROJEKAT_TCB_HPP
   7:src/../h/tcb.hpp **** #include "../lib/hw.h"
   8:src/../h/tcb.hpp **** #include "scheduler.hpp"
   9:src/../h/tcb.hpp **** #include "riscv.hpp"
  10:src/../h/tcb.hpp **** 
  11:src/../h/tcb.hpp **** class TCB {
  12:src/../h/tcb.hpp **** 
  13:src/../h/tcb.hpp ****     void *operator new(size_t n);
  14:src/../h/tcb.hpp **** 
  15:src/../h/tcb.hpp ****     void *operator new[](size_t n);
  16:src/../h/tcb.hpp **** 
  17:src/../h/tcb.hpp ****     void operator delete(void *p) noexcept;
  18:src/../h/tcb.hpp **** 
  19:src/../h/tcb.hpp ****     void operator delete[](void *p) noexcept;
  20:src/../h/tcb.hpp **** 
  21:src/../h/tcb.hpp **** public:
  22:src/../h/tcb.hpp ****     ~TCB(){ delete stack;}
  23:src/../h/tcb.hpp ****     bool isFinished() const {return finished;}
 203              		.loc 3 23 30
 204              		.loc 3 23 37 is_stmt 0
 205 00d4 83C70403 		lbu	a5,48(s1)
 206              	.LVL11:
 207              	.LBE21:
 208              	.LBE20:
 209              		.loc 1 42 27
 210 00d8 63960700 		bnez	a5,.L12
 211              		.loc 1 42 36 discriminator 1
 212 00dc 83C71403 		lbu	a5,49(s1)
 213              		.loc 1 42 27 discriminator 1
 214 00e0 63860704 		beqz	a5,.L15
 215              	.L12:
  43:src/tcb.cpp   ****         Scheduler::put(old);
  44:src/tcb.cpp   ****     }
  45:src/tcb.cpp   ****     running = Scheduler::get();
 216              		.loc 1 45 5 is_stmt 1
 217              		.loc 1 45 29 is_stmt 0
GAS LISTING /tmp/ccpdjtZT.s 			page 9


 218 00e4 97000000 		call	_ZN9Scheduler3getEv@plt
 218      E7800000 
 219              	.LVL12:
 220              		.loc 1 45 13
 221 00ec 97070000 		sd	a0,.LANCHOR0,a5
 221      23B0A700 
  46:src/tcb.cpp   ****     TCB::contextSwitch(&old->context, &running->context);
 222              		.loc 1 46 5 is_stmt 1
 223              		.loc 1 46 23 is_stmt 0
 224 00f4 93058501 		addi	a1,a0,24
 225 00f8 13858401 		addi	a0,s1,24
 226 00fc 97000000 		call	_ZN3TCB13contextSwitchEPNS_7ContextES1_@plt
 226      E7800000 
 227              	.LVL13:
  47:src/tcb.cpp   **** }
 228              		.loc 1 47 1
 229 0104 83308102 		ld	ra,40(sp)
 230              		.cfi_remember_state
 231              		.cfi_restore 1
 232 0108 03340102 		ld	s0,32(sp)
 233              		.cfi_restore 8
 234              		.cfi_def_cfa 2, 48
 235 010c 83348101 		ld	s1,24(sp)
 236              		.cfi_restore 9
 237              	.LVL14:
 238 0110 13010103 		addi	sp,sp,48
 239              		.cfi_def_cfa_offset 0
 240 0114 67800000 		jr	ra
 241              	.L14:
 242              		.cfi_restore_state
 243              	.LBB22:
 244              	.LBB23:
  98:src/../h/riscv.hpp ****     __asm__ volatile ("csrr %[scause], scause" : [scause] "=r"(scause));
 245              		.loc 2 98 5 is_stmt 1
  99:src/../h/riscv.hpp ****     return scause;
 246              		.loc 2 99 5
  99:src/../h/riscv.hpp ****     return scause;
 247              		.loc 2 99 72 is_stmt 0
 248              	#APP
 249              	# 99 "src/../h/riscv.hpp" 1
 250              		csrr a5, scause
 251              	# 0 "" 2
 252              	#NO_APP
 253 011c 233CF4FC 		sd	a5,-40(s0)
 100:src/../h/riscv.hpp **** }
 254              		.loc 2 100 5 is_stmt 1
 100:src/../h/riscv.hpp **** }
 255              		.loc 2 100 12 is_stmt 0
 256 0120 833784FD 		ld	a5,-40(s0)
 257              	.LBE23:
 258              	.LBE22:
  40:src/tcb.cpp   ****     TCB* old= running;
 259              		.loc 1 40 38
 260 0124 E38407FA 		beqz	a5,.L11
 261 0128 6FF0DFF9 		j	.L10
 262              	.LVL15:
 263              	.L15:
GAS LISTING /tmp/ccpdjtZT.s 			page 10


  43:src/tcb.cpp   ****     }
 264              		.loc 1 43 9 is_stmt 1
  43:src/tcb.cpp   ****     }
 265              		.loc 1 43 23 is_stmt 0
 266 012c 13850400 		mv	a0,s1
 267 0130 97000000 		call	_ZN9Scheduler3putEP3TCB@plt
 267      E7800000 
 268              	.LVL16:
 269 0138 6FF0DFFA 		j	.L12
 270              		.cfi_endproc
 271              	.LFE42:
 273              		.align	2
 274              		.globl	_ZN3TCB13threadWrapperEv
 276              	_ZN3TCB13threadWrapperEv:
 277              	.LFB46:
  48:src/tcb.cpp   **** 
  49:src/tcb.cpp   **** TCB *TCB::createThread(Body body, void * argument, void*stek) {
  50:src/tcb.cpp   ****     return new TCB(body,DEFAULT_TIME_SLICE, argument, stek);
  51:src/tcb.cpp   **** }
  52:src/tcb.cpp   **** 
  53:src/tcb.cpp   **** void TCB::deleteThread(TCB* thread){
  54:src/tcb.cpp   ****     delete thread;
  55:src/tcb.cpp   **** }
  56:src/tcb.cpp   **** 
  57:src/tcb.cpp   **** 
  58:src/tcb.cpp   **** int TCB::exitThread(){
  59:src/tcb.cpp   ****     TCB::running->setFinished(true);
  60:src/tcb.cpp   ****     TCB::dispatch();
  61:src/tcb.cpp   ****     return 0;
  62:src/tcb.cpp   **** }
  63:src/tcb.cpp   **** 
  64:src/tcb.cpp   **** 
  65:src/tcb.cpp   **** void TCB::threadWrapper() {
 278              		.loc 1 65 27 is_stmt 1
 279              		.cfi_startproc
 280 013c 130101FE 		addi	sp,sp,-32
 281              		.cfi_def_cfa_offset 32
 282 0140 233C1100 		sd	ra,24(sp)
 283 0144 23388100 		sd	s0,16(sp)
 284 0148 23349100 		sd	s1,8(sp)
 285              		.cfi_offset 1, -8
 286              		.cfi_offset 8, -16
 287              		.cfi_offset 9, -24
 288 014c 13040102 		addi	s0,sp,32
 289              		.cfi_def_cfa 8, 0
  66:src/tcb.cpp   **** 
  67:src/tcb.cpp   ****     Riscv::popSppSpie();
 290              		.loc 1 67 5
 291              		.loc 1 67 22 is_stmt 0
 292 0150 97000000 		call	_ZN5Riscv10popSppSpieEv@plt
 292      E7800000 
 293              	.LVL17:
  68:src/tcb.cpp   ****     running->body(running->argument);
 294              		.loc 1 68 5 is_stmt 1
 295              		.loc 1 68 14 is_stmt 0
 296 0158 97040000 		lla	s1,.LANCHOR0
 296      93840400 
GAS LISTING /tmp/ccpdjtZT.s 			page 11


 297 0160 83B70400 		ld	a5,0(s1)
 298 0164 03B70700 		ld	a4,0(a5)
 299              		.loc 1 68 18
 300 0168 03B58700 		ld	a0,8(a5)
 301 016c E7000700 		jalr	a4
 302              	.LVL18:
  69:src/tcb.cpp   ****     running->setFinished(true);
 303              		.loc 1 69 5 is_stmt 1
 304              		.loc 1 69 25 is_stmt 0
 305 0170 83B70400 		ld	a5,0(s1)
 306              	.LVL19:
 307              	.LBB24:
 308              	.LBB25:
  24:src/../h/tcb.hpp ****     void setFinished(bool f) { finished = f;}
 309              		.loc 3 24 32 is_stmt 1
 310              		.loc 3 24 41 is_stmt 0
 311 0174 13071000 		li	a4,1
 312 0178 2388E702 		sb	a4,48(a5)
 313              	.LVL20:
 314              	.LBE25:
 315              	.LBE24:
  70:src/tcb.cpp   ****     TCB::dispatch();
 316              		.loc 1 70 5 is_stmt 1
 317              		.loc 1 70 18 is_stmt 0
 318 017c 97000000 		call	_ZN3TCB8dispatchEv
 318      E7800000 
 319              	.LVL21:
  71:src/tcb.cpp   **** }
 320              		.loc 1 71 1
 321 0184 83308101 		ld	ra,24(sp)
 322              		.cfi_restore 1
 323 0188 03340101 		ld	s0,16(sp)
 324              		.cfi_restore 8
 325              		.cfi_def_cfa 2, 32
 326 018c 83348100 		ld	s1,8(sp)
 327              		.cfi_restore 9
 328 0190 13010102 		addi	sp,sp,32
 329              		.cfi_def_cfa_offset 0
 330 0194 67800000 		jr	ra
 331              		.cfi_endproc
 332              	.LFE46:
 334              		.align	2
 335              		.globl	_ZN3TCB12createThreadEPFvPvES0_S0_
 337              	_ZN3TCB12createThreadEPFvPvES0_S0_:
 338              	.LFB43:
  49:src/tcb.cpp   ****     return new TCB(body,DEFAULT_TIME_SLICE, argument, stek);
 339              		.loc 1 49 63 is_stmt 1
 340              		.cfi_startproc
 341              		.cfi_personality 0x9b,DW.ref.__gxx_personality_v0
 342              		.cfi_lsda 0x1b,.LLSDA43
 343              	.LVL22:
 344 0198 130101FD 		addi	sp,sp,-48
 345              		.cfi_def_cfa_offset 48
 346 019c 23341102 		sd	ra,40(sp)
 347 01a0 23308102 		sd	s0,32(sp)
 348 01a4 233C9100 		sd	s1,24(sp)
 349 01a8 23382101 		sd	s2,16(sp)
GAS LISTING /tmp/ccpdjtZT.s 			page 12


 350 01ac 23343101 		sd	s3,8(sp)
 351 01b0 23304101 		sd	s4,0(sp)
 352              		.cfi_offset 1, -8
 353              		.cfi_offset 8, -16
 354              		.cfi_offset 9, -24
 355              		.cfi_offset 18, -32
 356              		.cfi_offset 19, -40
 357              		.cfi_offset 20, -48
 358 01b4 13040103 		addi	s0,sp,48
 359              		.cfi_def_cfa 8, 0
 360 01b8 93090500 		mv	s3,a0
 361 01bc 138A0500 		mv	s4,a1
 362 01c0 13090600 		mv	s2,a2
  50:src/tcb.cpp   **** }
 363              		.loc 1 50 5
  50:src/tcb.cpp   **** }
 364              		.loc 1 50 59 is_stmt 0
 365 01c4 13058003 		li	a0,56
 366              	.LVL23:
 367              	.LEHB0:
 368 01c8 97000000 		call	_ZN3TCBnwEm
 368      E7800000 
 369              	.LVL24:
 370              	.LEHE0:
 371 01d0 93040500 		mv	s1,a0
 372              	.LVL25:
 373              	.LBB26:
 374              	.LBB27:
  25:src/../h/tcb.hpp **** 
  26:src/../h/tcb.hpp ****     uint64 getTimeSlice() const { return timeSlice; }
  27:src/../h/tcb.hpp **** 
  28:src/../h/tcb.hpp ****     static TCB* running;
  29:src/../h/tcb.hpp ****     using Body = void(*)(void*);
  30:src/../h/tcb.hpp ****     static TCB *createThread(Body body, void *arg, void*stek);
  31:src/../h/tcb.hpp ****     static void deleteThread(TCB *thread);
  32:src/../h/tcb.hpp ****     static int exitThread();
  33:src/../h/tcb.hpp ****     static void yield();
  34:src/../h/tcb.hpp ****     void setBlocked(bool b);
  35:src/../h/tcb.hpp **** 
  36:src/../h/tcb.hpp **** private:
  37:src/../h/tcb.hpp ****     explicit TCB(Body body, uint64 timeSlice, void* arg, void* stek): body(body), argument(arg), st
  38:src/../h/tcb.hpp ****     context({
  39:src/../h/tcb.hpp ****             (uint64) &threadWrapper,
  40:src/../h/tcb.hpp ****             stack != nullptr ? (uint64) &stack[DEFAULT_STACK_SIZE] : 0
  41:src/../h/tcb.hpp ****                 }),
  42:src/../h/tcb.hpp ****                 timeSlice(timeSlice),
  43:src/../h/tcb.hpp ****                 finished(false),
  44:src/../h/tcb.hpp ****                 blocked(false)
 375              		.loc 3 44 30
 376 01d4 23303501 		sd	s3,0(a0)
 377 01d8 23344501 		sd	s4,8(a0)
  37:src/../h/tcb.hpp ****     context({
 378              		.loc 3 37 117
 379 01dc B7870000 		li	a5,32768
 380 01e0 B307F900 		add	a5,s2,a5
 381              		.loc 3 44 30
 382 01e4 2338F500 		sd	a5,16(a0)
GAS LISTING /tmp/ccpdjtZT.s 			page 13


 383 01e8 17070000 		lla	a4,_ZN3TCB13threadWrapperEv
 383      13070700 
 384 01f0 233CE500 		sd	a4,24(a0)
  40:src/../h/tcb.hpp ****                 }),
 385              		.loc 3 40 30
 386 01f4 638A0702 		beqz	a5,.L22
  40:src/../h/tcb.hpp ****                 }),
 387              		.loc 3 40 41
 388 01f8 37960000 		li	a2,36864
 389 01fc 3309C900 		add	s2,s2,a2
 390              	.LVL26:
 391              	.L19:
 392              		.loc 3 44 30
 393 0200 23B02403 		sd	s2,32(s1)
 394 0204 93072000 		li	a5,2
 395              	.LVL27:
 396 0208 23B4F402 		sd	a5,40(s1)
 397 020c 23880402 		sb	zero,48(s1)
 398 0210 A3880402 		sb	zero,49(s1)
  45:src/../h/tcb.hpp ****     {
  46:src/../h/tcb.hpp ****         if(body!= nullptr) {
 399              		.loc 3 46 9 is_stmt 1
 400 0214 638C0902 		beqz	s3,.L18
  47:src/../h/tcb.hpp ****             Scheduler::put(this);
 401              		.loc 3 47 13
 402              		.loc 3 47 27 is_stmt 0
 403 0218 13850400 		mv	a0,s1
 404              	.LEHB1:
 405 021c 97000000 		call	_ZN9Scheduler3putEP3TCB@plt
 405      E7800000 
 406              	.LVL28:
 407              	.LEHE1:
 408 0224 6F008002 		j	.L18
 409              	.LVL29:
 410              	.L22:
  40:src/../h/tcb.hpp ****                 }),
 411              		.loc 3 40 30
 412 0228 13090000 		li	s2,0
 413              	.LVL30:
 414 022c 6FF05FFD 		j	.L19
 415              	.LVL31:
 416              	.L23:
 417 0230 13090500 		mv	s2,a0
 418              	.LBE27:
 419              	.LBE26:
  50:src/tcb.cpp   **** }
 420              		.loc 1 50 59
 421 0234 13850400 		mv	a0,s1
 422 0238 97000000 		call	_ZN3TCBdlEPv
 422      E7800000 
 423              	.LVL32:
 424 0240 13050900 		mv	a0,s2
 425              	.LEHB2:
 426 0244 97000000 		call	_Unwind_Resume@plt
 426      E7800000 
 427              	.LVL33:
 428              	.LEHE2:
GAS LISTING /tmp/ccpdjtZT.s 			page 14


 429              	.L18:
  51:src/tcb.cpp   **** 
 430              		.loc 1 51 1
 431 024c 13850400 		mv	a0,s1
 432 0250 83308102 		ld	ra,40(sp)
 433              		.cfi_restore 1
 434 0254 03340102 		ld	s0,32(sp)
 435              		.cfi_restore 8
 436              		.cfi_def_cfa 2, 48
 437 0258 83348101 		ld	s1,24(sp)
 438              		.cfi_restore 9
 439              	.LVL34:
 440 025c 03390101 		ld	s2,16(sp)
 441              		.cfi_restore 18
 442 0260 83398100 		ld	s3,8(sp)
 443              		.cfi_restore 19
 444              	.LVL35:
 445 0264 033A0100 		ld	s4,0(sp)
 446              		.cfi_restore 20
 447              	.LVL36:
 448 0268 13010103 		addi	sp,sp,48
 449              		.cfi_def_cfa_offset 0
 450 026c 67800000 		jr	ra
 451              		.cfi_endproc
 452              	.LFE43:
 453              		.section	.gcc_except_table
 454              	.LLSDA43:
 455 0008 FF       		.byte	0xff
 456 0009 FF       		.byte	0xff
 457 000a 03       		.byte	0x3
 458 000b 27       		.byte	0x27
 459 000c 00000000 		.4byte	.LEHB0-.LFB43
 460 0010 00000000 		.4byte	.LEHE0-.LEHB0
 461 0014 00000000 		.4byte	0
 462 0018 00       		.byte	0
 463 0019 00000000 		.4byte	.LEHB1-.LFB43
 464 001d 00000000 		.4byte	.LEHE1-.LEHB1
 465 0021 00000000 		.4byte	.L23-.LFB43
 466 0025 00       		.byte	0
 467 0026 00000000 		.4byte	.LEHB2-.LFB43
 468 002a 00000000 		.4byte	.LEHE2-.LEHB2
 469 002e 00000000 		.4byte	0
 470 0032 00       		.byte	0
 471              		.text
 473              		.align	2
 474              		.globl	_ZN3TCB12deleteThreadEPS_
 476              	_ZN3TCB12deleteThreadEPS_:
 477              	.LFB44:
  53:src/tcb.cpp   ****     delete thread;
 478              		.loc 1 53 36 is_stmt 1
 479              		.cfi_startproc
 480              	.LVL37:
  54:src/tcb.cpp   **** }
 481              		.loc 1 54 5
  54:src/tcb.cpp   **** }
 482              		.loc 1 54 18 is_stmt 0
 483 0270 63060504 		beqz	a0,.L29
GAS LISTING /tmp/ccpdjtZT.s 			page 15


  53:src/tcb.cpp   ****     delete thread;
 484              		.loc 1 53 36
 485 0274 130101FE 		addi	sp,sp,-32
 486              		.cfi_def_cfa_offset 32
 487 0278 233C1100 		sd	ra,24(sp)
 488 027c 23388100 		sd	s0,16(sp)
 489 0280 23349100 		sd	s1,8(sp)
 490              		.cfi_offset 1, -8
 491              		.cfi_offset 8, -16
 492              		.cfi_offset 9, -24
 493 0284 13040102 		addi	s0,sp,32
 494              		.cfi_def_cfa 8, 0
 495 0288 93040500 		mv	s1,a0
 496              	.LVL38:
 497              	.LBB28:
 498              	.LBB29:
  22:src/../h/tcb.hpp ****     bool isFinished() const {return finished;}
 499              		.loc 3 22 13 is_stmt 1
  22:src/../h/tcb.hpp ****     bool isFinished() const {return finished;}
 500              		.loc 3 22 20 is_stmt 0
 501 028c 03350501 		ld	a0,16(a0)
 502              	.LVL39:
  22:src/../h/tcb.hpp ****     bool isFinished() const {return finished;}
 503              		.loc 3 22 25
 504 0290 63060500 		beqz	a0,.L27
  22:src/../h/tcb.hpp ****     bool isFinished() const {return finished;}
 505              		.loc 3 22 20
 506 0294 97000000 		call	_ZdlPv@plt
 506      E7800000 
 507              	.LVL40:
 508              	.L27:
 509              	.LBE29:
 510              	.LBE28:
  54:src/tcb.cpp   **** }
 511              		.loc 1 54 12
 512 029c 13850400 		mv	a0,s1
 513 02a0 97000000 		call	_ZN3TCBdlEPv
 513      E7800000 
 514              	.LVL41:
  55:src/tcb.cpp   **** 
 515              		.loc 1 55 1
 516 02a8 83308101 		ld	ra,24(sp)
 517              		.cfi_restore 1
 518 02ac 03340101 		ld	s0,16(sp)
 519              		.cfi_restore 8
 520              		.cfi_def_cfa 2, 32
 521 02b0 83348100 		ld	s1,8(sp)
 522              		.cfi_restore 9
 523              	.LVL42:
 524 02b4 13010102 		addi	sp,sp,32
 525              		.cfi_def_cfa_offset 0
 526 02b8 67800000 		jr	ra
 527              	.LVL43:
 528              	.L29:
 529 02bc 67800000 		ret
 530              		.cfi_endproc
 531              	.LFE44:
GAS LISTING /tmp/ccpdjtZT.s 			page 16


 533              		.align	2
 534              		.globl	_ZN3TCB10exitThreadEv
 536              	_ZN3TCB10exitThreadEv:
 537              	.LFB45:
  58:src/tcb.cpp   ****     TCB::running->setFinished(true);
 538              		.loc 1 58 22 is_stmt 1
 539              		.cfi_startproc
 540 02c0 130101FF 		addi	sp,sp,-16
 541              		.cfi_def_cfa_offset 16
 542 02c4 23341100 		sd	ra,8(sp)
 543 02c8 23308100 		sd	s0,0(sp)
 544              		.cfi_offset 1, -8
 545              		.cfi_offset 8, -16
 546 02cc 13040101 		addi	s0,sp,16
 547              		.cfi_def_cfa 8, 0
  59:src/tcb.cpp   ****     TCB::dispatch();
 548              		.loc 1 59 5
 549              	.LVL44:
 550              	.LBB30:
 551              	.LBB31:
  24:src/../h/tcb.hpp **** 
 552              		.loc 3 24 32
  24:src/../h/tcb.hpp **** 
 553              		.loc 3 24 41 is_stmt 0
 554 02d0 97070000 		ld	a5,.LANCHOR0
 554      83B70700 
 555 02d8 13071000 		li	a4,1
 556 02dc 2388E702 		sb	a4,48(a5)
 557              	.LVL45:
 558              	.LBE31:
 559              	.LBE30:
  60:src/tcb.cpp   ****     return 0;
 560              		.loc 1 60 5 is_stmt 1
  60:src/tcb.cpp   ****     return 0;
 561              		.loc 1 60 18 is_stmt 0
 562 02e0 97000000 		call	_ZN3TCB8dispatchEv
 562      E7800000 
 563              	.LVL46:
  61:src/tcb.cpp   **** }
 564              		.loc 1 61 5 is_stmt 1
  62:src/tcb.cpp   **** 
 565              		.loc 1 62 1 is_stmt 0
 566 02e8 13050000 		li	a0,0
 567 02ec 83308100 		ld	ra,8(sp)
 568              		.cfi_restore 1
 569 02f0 03340100 		ld	s0,0(sp)
 570              		.cfi_restore 8
 571              		.cfi_def_cfa 2, 16
 572 02f4 13010101 		addi	sp,sp,16
 573              		.cfi_def_cfa_offset 0
 574 02f8 67800000 		jr	ra
 575              		.cfi_endproc
 576              	.LFE45:
 578              		.align	2
 579              		.globl	_ZN3TCB10setBlockedEb
 581              	_ZN3TCB10setBlockedEb:
 582              	.LFB47:
GAS LISTING /tmp/ccpdjtZT.s 			page 17


  72:src/tcb.cpp   **** 
  73:src/tcb.cpp   **** void TCB::setBlocked(bool b) {
 583              		.loc 1 73 30 is_stmt 1
 584              		.cfi_startproc
 585              	.LVL47:
 586 02fc 130101FF 		addi	sp,sp,-16
 587              		.cfi_def_cfa_offset 16
 588 0300 23348100 		sd	s0,8(sp)
 589              		.cfi_offset 8, -8
 590 0304 13040101 		addi	s0,sp,16
 591              		.cfi_def_cfa 8, 0
  74:src/tcb.cpp   ****     this->blocked = b;
 592              		.loc 1 74 5
 593              		.loc 1 74 19 is_stmt 0
 594 0308 A308B502 		sb	a1,49(a0)
  75:src/tcb.cpp   **** }
 595              		.loc 1 75 1
 596 030c 03348100 		ld	s0,8(sp)
 597              		.cfi_restore 8
 598              		.cfi_def_cfa 2, 16
 599 0310 13010101 		addi	sp,sp,16
 600              		.cfi_def_cfa_offset 0
 601 0314 67800000 		jr	ra
 602              		.cfi_endproc
 603              	.LFE47:
 605              		.globl	_ZN3TCB16timeSliceCounterE
 606              		.globl	_ZN3TCB7runningE
 607              		.bss
 608              		.align	3
 609              		.set	.LANCHOR0,. + 0
 612              	_ZN3TCB7runningE:
 613 0000 00000000 		.zero	8
 613      00000000 
 616              	_ZN3TCB16timeSliceCounterE:
 617 0008 00000000 		.zero	8
 617      00000000 
 618              		.text
 619              	.Letext0:
 620              		.file 4 "src/../h/../lib/hw.h"
 621              		.file 5 "src/../h/MemoryAllocator.hpp"
 622              		.file 6 "src/../h/scheduler.hpp"
 3715              		.align	3
 3718              	DW.ref.__gxx_personality_v0:
 3719 0000 00000000 		.dword	__gxx_personality_v0
 3719      00000000 
 3720              		.ident	"GCC: (Ubuntu 9.3.0-17ubuntu1~20.04) 9.3.0"
 3721              		.section	.note.GNU-stack,"",@progbits
GAS LISTING /tmp/ccpdjtZT.s 			page 18


DEFINED SYMBOLS
                            *ABS*:0000000000000000 tcb.cpp
     /tmp/ccpdjtZT.s:9      .text:0000000000000000 _ZN3TCBnwEm
     /tmp/ccpdjtZT.s:13     .text:0000000000000000 .L0 
     /tmp/ccpdjtZT.s:15     .text:0000000000000000 .L0 
     /tmp/ccpdjtZT.s:16     .text:0000000000000004 .L0 
     /tmp/ccpdjtZT.s:19     .text:000000000000000c .L0 
     /tmp/ccpdjtZT.s:20     .text:000000000000000c .L0 
     /tmp/ccpdjtZT.s:22     .text:0000000000000010 .L0 
     /tmp/ccpdjtZT.s:24     .text:0000000000000010 .L0 
     /tmp/ccpdjtZT.s:25     .text:0000000000000010 .L0 
     /tmp/ccpdjtZT.s:28     .text:0000000000000018 .L0 
     /tmp/ccpdjtZT.s:29     .text:000000000000001c .L0 
     /tmp/ccpdjtZT.s:31     .text:0000000000000020 .L0 
     /tmp/ccpdjtZT.s:32     .text:0000000000000020 .L0 
     /tmp/ccpdjtZT.s:34     .text:0000000000000024 .L0 
     /tmp/ccpdjtZT.s:36     .text:0000000000000028 .L0 
     /tmp/ccpdjtZT.s:42     .text:0000000000000028 _ZN3TCBnaEm
     /tmp/ccpdjtZT.s:45     .text:0000000000000028 .L0 
     /tmp/ccpdjtZT.s:47     .text:0000000000000028 .L0 
     /tmp/ccpdjtZT.s:48     .text:000000000000002c .L0 
     /tmp/ccpdjtZT.s:51     .text:0000000000000034 .L0 
     /tmp/ccpdjtZT.s:52     .text:0000000000000034 .L0 
     /tmp/ccpdjtZT.s:54     .text:0000000000000038 .L0 
     /tmp/ccpdjtZT.s:56     .text:0000000000000038 .L0 
     /tmp/ccpdjtZT.s:57     .text:0000000000000038 .L0 
     /tmp/ccpdjtZT.s:60     .text:0000000000000040 .L0 
     /tmp/ccpdjtZT.s:61     .text:0000000000000044 .L0 
     /tmp/ccpdjtZT.s:63     .text:0000000000000048 .L0 
     /tmp/ccpdjtZT.s:64     .text:0000000000000048 .L0 
     /tmp/ccpdjtZT.s:66     .text:000000000000004c .L0 
     /tmp/ccpdjtZT.s:68     .text:0000000000000050 .L0 
     /tmp/ccpdjtZT.s:74     .text:0000000000000050 _ZN3TCBdlEPv
     /tmp/ccpdjtZT.s:77     .text:0000000000000050 .L0 
     /tmp/ccpdjtZT.s:3718   .data.rel.local.DW.ref.__gxx_personality_v0:0000000000000000 DW.ref.__gxx_personality_v0
     /tmp/ccpdjtZT.s:81     .text:0000000000000050 .L0 
     /tmp/ccpdjtZT.s:82     .text:0000000000000054 .L0 
     /tmp/ccpdjtZT.s:85     .text:000000000000005c .L0 
     /tmp/ccpdjtZT.s:86     .text:000000000000005c .L0 
     /tmp/ccpdjtZT.s:88     .text:0000000000000060 .L0 
     /tmp/ccpdjtZT.s:90     .text:0000000000000060 .L0 
     /tmp/ccpdjtZT.s:91     .text:0000000000000060 .L0 
     /tmp/ccpdjtZT.s:94     .text:0000000000000068 .L0 
     /tmp/ccpdjtZT.s:95     .text:000000000000006c .L0 
     /tmp/ccpdjtZT.s:97     .text:0000000000000070 .L0 
     /tmp/ccpdjtZT.s:98     .text:0000000000000070 .L0 
     /tmp/ccpdjtZT.s:100    .text:0000000000000074 .L0 
     /tmp/ccpdjtZT.s:102    .text:0000000000000078 .L0 
     /tmp/ccpdjtZT.s:116    .text:0000000000000078 _ZN3TCBdaEPv
     /tmp/ccpdjtZT.s:119    .text:0000000000000078 .L0 
     /tmp/ccpdjtZT.s:123    .text:0000000000000078 .L0 
     /tmp/ccpdjtZT.s:124    .text:000000000000007c .L0 
     /tmp/ccpdjtZT.s:127    .text:0000000000000084 .L0 
     /tmp/ccpdjtZT.s:128    .text:0000000000000084 .L0 
     /tmp/ccpdjtZT.s:130    .text:0000000000000088 .L0 
     /tmp/ccpdjtZT.s:132    .text:0000000000000088 .L0 
     /tmp/ccpdjtZT.s:133    .text:0000000000000088 .L0 
GAS LISTING /tmp/ccpdjtZT.s 			page 19


     /tmp/ccpdjtZT.s:136    .text:0000000000000090 .L0 
     /tmp/ccpdjtZT.s:137    .text:0000000000000094 .L0 
     /tmp/ccpdjtZT.s:139    .text:0000000000000098 .L0 
     /tmp/ccpdjtZT.s:140    .text:0000000000000098 .L0 
     /tmp/ccpdjtZT.s:142    .text:000000000000009c .L0 
     /tmp/ccpdjtZT.s:144    .text:00000000000000a0 .L0 
     /tmp/ccpdjtZT.s:157    .text:00000000000000a0 _ZN3TCB8dispatchEv
     /tmp/ccpdjtZT.s:160    .text:00000000000000a0 .L0 
     /tmp/ccpdjtZT.s:161    .text:00000000000000a0 .L0 
     /tmp/ccpdjtZT.s:162    .text:00000000000000a4 .L0 
     /tmp/ccpdjtZT.s:166    .text:00000000000000b0 .L0 
     /tmp/ccpdjtZT.s:167    .text:00000000000000b0 .L0 
     /tmp/ccpdjtZT.s:168    .text:00000000000000b0 .L0 
     /tmp/ccpdjtZT.s:170    .text:00000000000000b4 .L0 
     /tmp/ccpdjtZT.s:172    .text:00000000000000b4 .L0 
     /tmp/ccpdjtZT.s:173    .text:00000000000000b4 .L0 
     /tmp/ccpdjtZT.s:176    .text:00000000000000c0 .L0 
     /tmp/ccpdjtZT.s:183    .text:00000000000000c4 .L0 
     /tmp/ccpdjtZT.s:184    .text:00000000000000c4 .L0 
     /tmp/ccpdjtZT.s:185    .text:00000000000000c4 .L0 
     /tmp/ccpdjtZT.s:196    .text:00000000000000cc .L0 
     /tmp/ccpdjtZT.s:197    .text:00000000000000cc .L0 
     /tmp/ccpdjtZT.s:203    .text:00000000000000d4 .L0 
     /tmp/ccpdjtZT.s:204    .text:00000000000000d4 .L0 
     /tmp/ccpdjtZT.s:205    .text:00000000000000d4 .L0 
     /tmp/ccpdjtZT.s:210    .text:00000000000000d8 .L0 
     /tmp/ccpdjtZT.s:212    .text:00000000000000dc .L0 
     /tmp/ccpdjtZT.s:214    .text:00000000000000e0 .L0 
     /tmp/ccpdjtZT.s:217    .text:00000000000000e4 .L0 
     /tmp/ccpdjtZT.s:218    .text:00000000000000e4 .L0 
     /tmp/ccpdjtZT.s:221    .text:00000000000000ec .L0 
     /tmp/ccpdjtZT.s:223    .text:00000000000000f4 .L0 
     /tmp/ccpdjtZT.s:224    .text:00000000000000f4 .L0 
     /tmp/ccpdjtZT.s:229    .text:0000000000000104 .L0 
     /tmp/ccpdjtZT.s:230    .text:0000000000000108 .L0 
     /tmp/ccpdjtZT.s:231    .text:0000000000000108 .L0 
     /tmp/ccpdjtZT.s:233    .text:000000000000010c .L0 
     /tmp/ccpdjtZT.s:234    .text:000000000000010c .L0 
     /tmp/ccpdjtZT.s:236    .text:0000000000000110 .L0 
     /tmp/ccpdjtZT.s:239    .text:0000000000000114 .L0 
     /tmp/ccpdjtZT.s:242    .text:0000000000000118 .L0 
     /tmp/ccpdjtZT.s:246    .text:0000000000000118 .L0 
     /tmp/ccpdjtZT.s:247    .text:0000000000000118 .L0 
  src/../h/riscv.hpp:99     .text:0000000000000118 .L0 
     /tmp/ccpdjtZT.s:255    .text:0000000000000120 .L0 
     /tmp/ccpdjtZT.s:256    .text:0000000000000120 .L0 
     /tmp/ccpdjtZT.s:260    .text:0000000000000124 .L0 
     /tmp/ccpdjtZT.s:265    .text:000000000000012c .L0 
     /tmp/ccpdjtZT.s:266    .text:000000000000012c .L0 
     /tmp/ccpdjtZT.s:270    .text:000000000000013c .L0 
     /tmp/ccpdjtZT.s:276    .text:000000000000013c _ZN3TCB13threadWrapperEv
     /tmp/ccpdjtZT.s:279    .text:000000000000013c .L0 
     /tmp/ccpdjtZT.s:280    .text:000000000000013c .L0 
     /tmp/ccpdjtZT.s:281    .text:0000000000000140 .L0 
     /tmp/ccpdjtZT.s:285    .text:000000000000014c .L0 
     /tmp/ccpdjtZT.s:286    .text:000000000000014c .L0 
     /tmp/ccpdjtZT.s:287    .text:000000000000014c .L0 
GAS LISTING /tmp/ccpdjtZT.s 			page 20


     /tmp/ccpdjtZT.s:289    .text:0000000000000150 .L0 
     /tmp/ccpdjtZT.s:291    .text:0000000000000150 .L0 
     /tmp/ccpdjtZT.s:292    .text:0000000000000150 .L0 
     /tmp/ccpdjtZT.s:295    .text:0000000000000158 .L0 
     /tmp/ccpdjtZT.s:296    .text:0000000000000158 .L0 
     /tmp/ccpdjtZT.s:300    .text:0000000000000168 .L0 
     /tmp/ccpdjtZT.s:304    .text:0000000000000170 .L0 
     /tmp/ccpdjtZT.s:305    .text:0000000000000170 .L0 
     /tmp/ccpdjtZT.s:310    .text:0000000000000174 .L0 
     /tmp/ccpdjtZT.s:311    .text:0000000000000174 .L0 
     /tmp/ccpdjtZT.s:317    .text:000000000000017c .L0 
     /tmp/ccpdjtZT.s:318    .text:000000000000017c .L0 
     /tmp/ccpdjtZT.s:321    .text:0000000000000184 .L0 
     /tmp/ccpdjtZT.s:322    .text:0000000000000188 .L0 
     /tmp/ccpdjtZT.s:324    .text:000000000000018c .L0 
     /tmp/ccpdjtZT.s:325    .text:000000000000018c .L0 
     /tmp/ccpdjtZT.s:327    .text:0000000000000190 .L0 
     /tmp/ccpdjtZT.s:329    .text:0000000000000194 .L0 
     /tmp/ccpdjtZT.s:331    .text:0000000000000198 .L0 
     /tmp/ccpdjtZT.s:337    .text:0000000000000198 _ZN3TCB12createThreadEPFvPvES0_S0_
     /tmp/ccpdjtZT.s:340    .text:0000000000000198 .L0 
     /tmp/ccpdjtZT.s:344    .text:0000000000000198 .L0 
     /tmp/ccpdjtZT.s:345    .text:000000000000019c .L0 
     /tmp/ccpdjtZT.s:352    .text:00000000000001b4 .L0 
     /tmp/ccpdjtZT.s:353    .text:00000000000001b4 .L0 
     /tmp/ccpdjtZT.s:354    .text:00000000000001b4 .L0 
     /tmp/ccpdjtZT.s:355    .text:00000000000001b4 .L0 
     /tmp/ccpdjtZT.s:356    .text:00000000000001b4 .L0 
     /tmp/ccpdjtZT.s:357    .text:00000000000001b4 .L0 
     /tmp/ccpdjtZT.s:359    .text:00000000000001b8 .L0 
     /tmp/ccpdjtZT.s:364    .text:00000000000001c4 .L0 
     /tmp/ccpdjtZT.s:365    .text:00000000000001c4 .L0 
     /tmp/ccpdjtZT.s:376    .text:00000000000001d4 .L0 
     /tmp/ccpdjtZT.s:379    .text:00000000000001dc .L0 
     /tmp/ccpdjtZT.s:382    .text:00000000000001e4 .L0 
     /tmp/ccpdjtZT.s:386    .text:00000000000001f4 .L0 
     /tmp/ccpdjtZT.s:388    .text:00000000000001f8 .L0 
     /tmp/ccpdjtZT.s:393    .text:0000000000000200 .L0 
     /tmp/ccpdjtZT.s:400    .text:0000000000000214 .L0 
     /tmp/ccpdjtZT.s:402    .text:0000000000000218 .L0 
     /tmp/ccpdjtZT.s:403    .text:0000000000000218 .L0 
     /tmp/ccpdjtZT.s:412    .text:0000000000000228 .L0 
     /tmp/ccpdjtZT.s:421    .text:0000000000000234 .L0 
     /tmp/ccpdjtZT.s:431    .text:000000000000024c .L0 
     /tmp/ccpdjtZT.s:433    .text:0000000000000254 .L0 
     /tmp/ccpdjtZT.s:435    .text:0000000000000258 .L0 
     /tmp/ccpdjtZT.s:436    .text:0000000000000258 .L0 
     /tmp/ccpdjtZT.s:438    .text:000000000000025c .L0 
     /tmp/ccpdjtZT.s:441    .text:0000000000000260 .L0 
     /tmp/ccpdjtZT.s:443    .text:0000000000000264 .L0 
     /tmp/ccpdjtZT.s:446    .text:0000000000000268 .L0 
     /tmp/ccpdjtZT.s:449    .text:000000000000026c .L0 
     /tmp/ccpdjtZT.s:451    .text:0000000000000270 .L0 
     /tmp/ccpdjtZT.s:476    .text:0000000000000270 _ZN3TCB12deleteThreadEPS_
     /tmp/ccpdjtZT.s:479    .text:0000000000000270 .L0 
     /tmp/ccpdjtZT.s:481    .text:0000000000000270 .L0 
     /tmp/ccpdjtZT.s:482    .text:0000000000000270 .L0 
GAS LISTING /tmp/ccpdjtZT.s 			page 21


     /tmp/ccpdjtZT.s:483    .text:0000000000000270 .L0 
     /tmp/ccpdjtZT.s:485    .text:0000000000000274 .L0 
     /tmp/ccpdjtZT.s:486    .text:0000000000000278 .L0 
     /tmp/ccpdjtZT.s:490    .text:0000000000000284 .L0 
     /tmp/ccpdjtZT.s:491    .text:0000000000000284 .L0 
     /tmp/ccpdjtZT.s:492    .text:0000000000000284 .L0 
     /tmp/ccpdjtZT.s:494    .text:0000000000000288 .L0 
     /tmp/ccpdjtZT.s:500    .text:000000000000028c .L0 
     /tmp/ccpdjtZT.s:501    .text:000000000000028c .L0 
     /tmp/ccpdjtZT.s:504    .text:0000000000000290 .L0 
     /tmp/ccpdjtZT.s:506    .text:0000000000000294 .L0 
     /tmp/ccpdjtZT.s:512    .text:000000000000029c .L0 
     /tmp/ccpdjtZT.s:516    .text:00000000000002a8 .L0 
     /tmp/ccpdjtZT.s:517    .text:00000000000002ac .L0 
     /tmp/ccpdjtZT.s:519    .text:00000000000002b0 .L0 
     /tmp/ccpdjtZT.s:520    .text:00000000000002b0 .L0 
     /tmp/ccpdjtZT.s:522    .text:00000000000002b4 .L0 
     /tmp/ccpdjtZT.s:525    .text:00000000000002b8 .L0 
     /tmp/ccpdjtZT.s:530    .text:00000000000002c0 .L0 
     /tmp/ccpdjtZT.s:536    .text:00000000000002c0 _ZN3TCB10exitThreadEv
     /tmp/ccpdjtZT.s:539    .text:00000000000002c0 .L0 
     /tmp/ccpdjtZT.s:540    .text:00000000000002c0 .L0 
     /tmp/ccpdjtZT.s:541    .text:00000000000002c4 .L0 
     /tmp/ccpdjtZT.s:544    .text:00000000000002cc .L0 
     /tmp/ccpdjtZT.s:545    .text:00000000000002cc .L0 
     /tmp/ccpdjtZT.s:547    .text:00000000000002d0 .L0 
     /tmp/ccpdjtZT.s:552    .text:00000000000002d0 .L0 
     /tmp/ccpdjtZT.s:553    .text:00000000000002d0 .L0 
     /tmp/ccpdjtZT.s:554    .text:00000000000002d0 .L0 
     /tmp/ccpdjtZT.s:561    .text:00000000000002e0 .L0 
     /tmp/ccpdjtZT.s:562    .text:00000000000002e0 .L0 
     /tmp/ccpdjtZT.s:565    .text:00000000000002e8 .L0 
     /tmp/ccpdjtZT.s:566    .text:00000000000002e8 .L0 
     /tmp/ccpdjtZT.s:568    .text:00000000000002f0 .L0 
     /tmp/ccpdjtZT.s:570    .text:00000000000002f4 .L0 
     /tmp/ccpdjtZT.s:571    .text:00000000000002f4 .L0 
     /tmp/ccpdjtZT.s:573    .text:00000000000002f8 .L0 
     /tmp/ccpdjtZT.s:575    .text:00000000000002fc .L0 
     /tmp/ccpdjtZT.s:581    .text:00000000000002fc _ZN3TCB10setBlockedEb
     /tmp/ccpdjtZT.s:584    .text:00000000000002fc .L0 
     /tmp/ccpdjtZT.s:586    .text:00000000000002fc .L0 
     /tmp/ccpdjtZT.s:587    .text:0000000000000300 .L0 
     /tmp/ccpdjtZT.s:589    .text:0000000000000304 .L0 
     /tmp/ccpdjtZT.s:591    .text:0000000000000308 .L0 
     /tmp/ccpdjtZT.s:593    .text:0000000000000308 .L0 
     /tmp/ccpdjtZT.s:594    .text:0000000000000308 .L0 
     /tmp/ccpdjtZT.s:596    .text:000000000000030c .L0 
     /tmp/ccpdjtZT.s:597    .text:0000000000000310 .L0 
     /tmp/ccpdjtZT.s:598    .text:0000000000000310 .L0 
     /tmp/ccpdjtZT.s:600    .text:0000000000000314 .L0 
     /tmp/ccpdjtZT.s:602    .text:0000000000000318 .L0 
     /tmp/ccpdjtZT.s:616    .bss:0000000000000008 _ZN3TCB16timeSliceCounterE
     /tmp/ccpdjtZT.s:612    .bss:0000000000000000 _ZN3TCB7runningE
     /tmp/ccpdjtZT.s:609    .bss:0000000000000000 .LANCHOR0
     /tmp/ccpdjtZT.s:623    .text:0000000000000318 .L0 
     /tmp/ccpdjtZT.s:173    .text:00000000000000b4 .L0 
     /tmp/ccpdjtZT.s:197    .text:00000000000000cc .L0 
GAS LISTING /tmp/ccpdjtZT.s 			page 22


     /tmp/ccpdjtZT.s:221    .text:00000000000000ec .L0 
     /tmp/ccpdjtZT.s:296    .text:0000000000000158 .L0 
     /tmp/ccpdjtZT.s:383    .text:00000000000001e8 .L0 
     /tmp/ccpdjtZT.s:554    .text:00000000000002d0 .L0 
     /tmp/ccpdjtZT.s:241    .text:0000000000000118 .L14
     /tmp/ccpdjtZT.s:215    .text:00000000000000e4 .L12
     /tmp/ccpdjtZT.s:263    .text:000000000000012c .L15
     /tmp/ccpdjtZT.s:192    .text:00000000000000cc .L11
     /tmp/ccpdjtZT.s:177    .text:00000000000000c4 .L10
     /tmp/ccpdjtZT.s:410    .text:0000000000000228 .L22
     /tmp/ccpdjtZT.s:429    .text:000000000000024c .L18
     /tmp/ccpdjtZT.s:391    .text:0000000000000200 .L19
     /tmp/ccpdjtZT.s:528    .text:00000000000002bc .L29
     /tmp/ccpdjtZT.s:508    .text:000000000000029c .L27
     /tmp/ccpdjtZT.s:367    .text:00000000000001c8 .LEHB0
     /tmp/ccpdjtZT.s:338    .text:0000000000000198 .LFB43
     /tmp/ccpdjtZT.s:370    .text:00000000000001d0 .LEHE0
     /tmp/ccpdjtZT.s:404    .text:000000000000021c .LEHB1
     /tmp/ccpdjtZT.s:407    .text:0000000000000224 .LEHE1
     /tmp/ccpdjtZT.s:416    .text:0000000000000230 .L23
     /tmp/ccpdjtZT.s:425    .text:0000000000000244 .LEHB2
     /tmp/ccpdjtZT.s:428    .text:000000000000024c .LEHE2
     /tmp/ccpdjtZT.s:2022   .debug_abbrev:0000000000000000 .Ldebug_abbrev0
     /tmp/ccpdjtZT.s:3442   .debug_str:00000000000000ca .LASF138
     /tmp/ccpdjtZT.s:3556   .debug_str:0000000000000501 .LASF139
     /tmp/ccpdjtZT.s:3558   .debug_str:000000000000050d .LASF140
     /tmp/ccpdjtZT.s:5      .text:0000000000000000 .Ltext0
     /tmp/ccpdjtZT.s:619    .text:0000000000000318 .Letext0
     /tmp/ccpdjtZT.s:3408   .debug_line:0000000000000000 .Ldebug_line0
     /tmp/ccpdjtZT.s:3576   .debug_str:0000000000000597 .LASF0
     /tmp/ccpdjtZT.s:3592   .debug_str:00000000000005eb .LASF1
     /tmp/ccpdjtZT.s:3554   .debug_str:00000000000004f3 .LASF2
     /tmp/ccpdjtZT.s:3482   .debug_str:00000000000002e3 .LASF3
     /tmp/ccpdjtZT.s:3530   .debug_str:000000000000045c .LASF4
     /tmp/ccpdjtZT.s:3638   .debug_str:0000000000000725 .LASF5
     /tmp/ccpdjtZT.s:3444   .debug_str:000000000000018e .LASF6
     /tmp/ccpdjtZT.s:3596   .debug_str:0000000000000616 .LASF7
     /tmp/ccpdjtZT.s:3574   .debug_str:0000000000000584 .LASF8
     /tmp/ccpdjtZT.s:3678   .debug_str:0000000000000898 .LASF9
     /tmp/ccpdjtZT.s:3512   .debug_str:00000000000003be .LASF10
     /tmp/ccpdjtZT.s:3612   .debug_str:0000000000000674 .LASF11
     /tmp/ccpdjtZT.s:3668   .debug_str:0000000000000833 .LASF12
     /tmp/ccpdjtZT.s:3448   .debug_str:00000000000001a1 .LASF13
     /tmp/ccpdjtZT.s:3416   .debug_str:0000000000000031 .LASF14
     /tmp/ccpdjtZT.s:3460   .debug_str:000000000000020a .LASF15
     /tmp/ccpdjtZT.s:3630   .debug_str:00000000000006e9 .LASF16
     /tmp/ccpdjtZT.s:3470   .debug_str:0000000000000249 .LASF17
     /tmp/ccpdjtZT.s:3570   .debug_str:000000000000056f .LASF27
     /tmp/ccpdjtZT.s:3498   .debug_str:0000000000000356 .LASF31
     /tmp/ccpdjtZT.s:3670   .debug_str:0000000000000842 .LASF18
     /tmp/ccpdjtZT.s:3654   .debug_str:00000000000007c4 .LASF19
     /tmp/ccpdjtZT.s:3606   .debug_str:0000000000000648 .LASF20
     /tmp/ccpdjtZT.s:3642   .debug_str:0000000000000748 .LASF33
     /tmp/ccpdjtZT.s:3672   .debug_str:0000000000000847 .LASF35
     /tmp/ccpdjtZT.s:3534   .debug_str:0000000000000476 .LASF21
     /tmp/ccpdjtZT.s:3412   .debug_str:0000000000000008 .LASF30
     /tmp/ccpdjtZT.s:3478   .debug_str:00000000000002a4 .LASF56
GAS LISTING /tmp/ccpdjtZT.s 			page 23


     /tmp/ccpdjtZT.s:3682   .debug_str:00000000000008af .LASF22
     /tmp/ccpdjtZT.s:3652   .debug_str:00000000000007a3 .LASF24
     /tmp/ccpdjtZT.s:3616   .debug_str:000000000000068e .LASF23
     /tmp/ccpdjtZT.s:3700   .debug_str:000000000000092e .LASF25
     /tmp/ccpdjtZT.s:3602   .debug_str:000000000000063b .LASF58
     /tmp/ccpdjtZT.s:3662   .debug_str:00000000000007f9 .LASF60
     /tmp/ccpdjtZT.s:3496   .debug_str:0000000000000351 .LASF26
     /tmp/ccpdjtZT.s:3610   .debug_str:000000000000066a .LASF28
     /tmp/ccpdjtZT.s:3502   .debug_str:000000000000036b .LASF29
     /tmp/ccpdjtZT.s:3526   .debug_str:0000000000000420 .LASF141
     /tmp/ccpdjtZT.s:3456   .debug_str:00000000000001e8 .LASF142
     /tmp/ccpdjtZT.s:3550   .debug_str:00000000000004dc .LASF143
     /tmp/ccpdjtZT.s:3424   .debug_str:000000000000006b .LASF32
     /tmp/ccpdjtZT.s:3688   .debug_str:00000000000008dc .LASF34
     /tmp/ccpdjtZT.s:3440   .debug_str:00000000000000be .LASF36
     /tmp/ccpdjtZT.s:3508   .debug_str:0000000000000397 .LASF37
     /tmp/ccpdjtZT.s:3516   .debug_str:00000000000003d1 .LASF38
     /tmp/ccpdjtZT.s:3648   .debug_str:0000000000000770 .LASF39
     /tmp/ccpdjtZT.s:3626   .debug_str:00000000000006d1 .LASF41
     /tmp/ccpdjtZT.s:3532   .debug_str:0000000000000463 .LASF40
     /tmp/ccpdjtZT.s:3664   .debug_str:0000000000000815 .LASF42
     /tmp/ccpdjtZT.s:3522   .debug_str:000000000000040c .LASF43
     /tmp/ccpdjtZT.s:3620   .debug_str:00000000000006aa .LASF44
     /tmp/ccpdjtZT.s:3598   .debug_str:0000000000000629 .LASF47
     /tmp/ccpdjtZT.s:3510   .debug_str:00000000000003a7 .LASF49
     /tmp/ccpdjtZT.s:3560   .debug_str:000000000000052b .LASF45
     /tmp/ccpdjtZT.s:3706   .debug_str:0000000000000963 .LASF46
     /tmp/ccpdjtZT.s:3552   .debug_str:00000000000004e6 .LASF48
     /tmp/ccpdjtZT.s:3656   .debug_str:00000000000007c9 .LASF50
     /tmp/ccpdjtZT.s:3488   .debug_str:000000000000030d .LASF144
     /tmp/ccpdjtZT.s:3542   .debug_str:000000000000049c .LASF51
     /tmp/ccpdjtZT.s:3650   .debug_str:0000000000000780 .LASF52
     /tmp/ccpdjtZT.s:3622   .debug_str:00000000000006b6 .LASF145
     /tmp/ccpdjtZT.s:3462   .debug_str:0000000000000216 .LASF53
     /tmp/ccpdjtZT.s:3422   .debug_str:0000000000000051 .LASF54
     /tmp/ccpdjtZT.s:3614   .debug_str:0000000000000683 .LASF55
     /tmp/ccpdjtZT.s:3624   .debug_str:00000000000006bb .LASF57
     /tmp/ccpdjtZT.s:3632   .debug_str:00000000000006ff .LASF59
     /tmp/ccpdjtZT.s:3566   .debug_str:0000000000000559 .LASF61
     /tmp/ccpdjtZT.s:3432   .debug_str:000000000000008d .LASF62
     /tmp/ccpdjtZT.s:3674   .debug_str:000000000000086f .LASF63
     /tmp/ccpdjtZT.s:3480   .debug_str:00000000000002cb .LASF146
     /tmp/ccpdjtZT.s:3536   .debug_str:0000000000000484 .LASF64
     /tmp/ccpdjtZT.s:3586   .debug_str:00000000000005d2 .LASF65
     /tmp/ccpdjtZT.s:3582   .debug_str:00000000000005b4 .LASF66
     /tmp/ccpdjtZT.s:3540   .debug_str:0000000000000494 .LASF67
     /tmp/ccpdjtZT.s:3588   .debug_str:00000000000005db .LASF68
     /tmp/ccpdjtZT.s:3690   .debug_str:00000000000008e9 .LASF69
     /tmp/ccpdjtZT.s:3410   .debug_str:0000000000000000 .LASF70
     /tmp/ccpdjtZT.s:3640   .debug_str:0000000000000737 .LASF71
     /tmp/ccpdjtZT.s:3546   .debug_str:00000000000004b6 .LASF72
     /tmp/ccpdjtZT.s:3520   .debug_str:00000000000003f3 .LASF74
     /tmp/ccpdjtZT.s:3580   .debug_str:00000000000005ab .LASF73
     /tmp/ccpdjtZT.s:3494   .debug_str:000000000000033e .LASF75
     /tmp/ccpdjtZT.s:3686   .debug_str:00000000000008ce .LASF147
     /tmp/ccpdjtZT.s:3528   .debug_str:0000000000000434 .LASF148
     /tmp/ccpdjtZT.s:3590   .debug_str:00000000000005e5 .LASF76
GAS LISTING /tmp/ccpdjtZT.s 			page 24


     /tmp/ccpdjtZT.s:3474   .debug_str:0000000000000273 .LASF149
     /tmp/ccpdjtZT.s:3468   .debug_str:000000000000023d .LASF77
     /tmp/ccpdjtZT.s:3544   .debug_str:00000000000004a9 .LASF78
     /tmp/ccpdjtZT.s:3446   .debug_str:0000000000000195 .LASF79
     /tmp/ccpdjtZT.s:3628   .debug_str:00000000000006de .LASF80
     /tmp/ccpdjtZT.s:3698   .debug_str:0000000000000916 .LASF81
     /tmp/ccpdjtZT.s:3438   .debug_str:00000000000000b0 .LASF82
     /tmp/ccpdjtZT.s:3486   .debug_str:00000000000002f2 .LASF83
     /tmp/ccpdjtZT.s:3500   .debug_str:000000000000035e .LASF84
     /tmp/ccpdjtZT.s:3414   .debug_str:0000000000000017 .LASF85
     /tmp/ccpdjtZT.s:3418   .debug_str:0000000000000041 .LASF86
     /tmp/ccpdjtZT.s:3490   .debug_str:0000000000000315 .LASF87
     /tmp/ccpdjtZT.s:3484   .debug_str:00000000000002e9 .LASF88
     /tmp/ccpdjtZT.s:3466   .debug_str:0000000000000228 .LASF89
     /tmp/ccpdjtZT.s:3564   .debug_str:0000000000000552 .LASF90
     /tmp/ccpdjtZT.s:3618   .debug_str:0000000000000697 .LASF91
     /tmp/ccpdjtZT.s:3680   .debug_str:00000000000008a8 .LASF92
     /tmp/ccpdjtZT.s:3676   .debug_str:0000000000000885 .LASF93
     /tmp/ccpdjtZT.s:3506   .debug_str:000000000000038f .LASF94
     /tmp/ccpdjtZT.s:3472   .debug_str:000000000000025f .LASF95
     /tmp/ccpdjtZT.s:3634   .debug_str:0000000000000705 .LASF96
     /tmp/ccpdjtZT.s:3644   .debug_str:000000000000074d .LASF97
     /tmp/ccpdjtZT.s:3604   .debug_str:0000000000000640 .LASF98
     /tmp/ccpdjtZT.s:3450   .debug_str:00000000000001b1 .LASF99
     /tmp/ccpdjtZT.s:3704   .debug_str:000000000000095b .LASF100
     /tmp/ccpdjtZT.s:3492   .debug_str:000000000000032a .LASF101
     /tmp/ccpdjtZT.s:3578   .debug_str:00000000000005a4 .LASF102
     /tmp/ccpdjtZT.s:3694   .debug_str:00000000000008fe .LASF103
     /tmp/ccpdjtZT.s:3434   .debug_str:0000000000000098 .LASF104
     /tmp/ccpdjtZT.s:3504   .debug_str:000000000000037c .LASF105
     /tmp/ccpdjtZT.s:3568   .debug_str:0000000000000569 .LASF106
     /tmp/ccpdjtZT.s:3660   .debug_str:00000000000007e7 .LASF107
     /tmp/ccpdjtZT.s:3430   .debug_str:0000000000000087 .LASF108
     /tmp/ccpdjtZT.s:3710   .debug_str:000000000000098b .LASF109
     /tmp/ccpdjtZT.s:3702   .debug_str:0000000000000950 .LASF110
     /tmp/ccpdjtZT.s:3636   .debug_str:000000000000070d .LASF111
     /tmp/ccpdjtZT.s:3538   .debug_str:0000000000000489 .LASF112
     /tmp/ccpdjtZT.s:3548   .debug_str:00000000000004c4 .LASF113
     /tmp/ccpdjtZT.s:3458   .debug_str:0000000000000200 .LASF114
     /tmp/ccpdjtZT.s:3608   .debug_str:0000000000000654 .LASF115
     /tmp/ccpdjtZT.s:3426   .debug_str:0000000000000073 .LASF116
     /tmp/ccpdjtZT.s:3518   .debug_str:00000000000003dd .LASF117
     /tmp/ccpdjtZT.s:3658   .debug_str:00000000000007e2 .LASF118
     /tmp/ccpdjtZT.s:3666   .debug_str:0000000000000822 .LASF119
     /tmp/ccpdjtZT.s:3514   .debug_str:00000000000003cc .LASF120
     /tmp/ccpdjtZT.s:3436   .debug_str:000000000000009f .LASF121
     /tmp/ccpdjtZT.s:3646   .debug_str:0000000000000761 .LASF122
     /tmp/ccpdjtZT.s:3452   .debug_str:00000000000001c5 .LASF123
     /tmp/ccpdjtZT.s:3684   .debug_str:00000000000008b9 .LASF124
     /tmp/ccpdjtZT.s:3476   .debug_str:0000000000000282 .LASF125
     /tmp/ccpdjtZT.s:3708   .debug_str:000000000000097a .LASF126
     /tmp/ccpdjtZT.s:3562   .debug_str:0000000000000537 .LASF127
     /tmp/ccpdjtZT.s:582    .text:00000000000002fc .LFB47
     /tmp/ccpdjtZT.s:603    .text:0000000000000318 .LFE47
     /tmp/ccpdjtZT.s:3696   .debug_str:0000000000000911 .LASF130
     /tmp/ccpdjtZT.s:277    .text:000000000000013c .LFB46
     /tmp/ccpdjtZT.s:332    .text:0000000000000198 .LFE46
GAS LISTING /tmp/ccpdjtZT.s 			page 25


     /tmp/ccpdjtZT.s:307    .text:0000000000000174 .LBB24
     /tmp/ccpdjtZT.s:315    .text:000000000000017c .LBE24
     /tmp/ccpdjtZT.s:3075   .debug_loc:0000000000000000 .LLST7
     /tmp/ccpdjtZT.s:3083   .debug_loc:0000000000000024 .LLST8
     /tmp/ccpdjtZT.s:293    .text:0000000000000158 .LVL17
     /tmp/ccpdjtZT.s:319    .text:0000000000000184 .LVL21
     /tmp/ccpdjtZT.s:537    .text:00000000000002c0 .LFB45
     /tmp/ccpdjtZT.s:576    .text:00000000000002fc .LFE45
     /tmp/ccpdjtZT.s:550    .text:00000000000002d0 .LBB30
     /tmp/ccpdjtZT.s:559    .text:00000000000002e0 .LBE30
     /tmp/ccpdjtZT.s:3090   .debug_loc:0000000000000047 .LLST18
     /tmp/ccpdjtZT.s:3098   .debug_loc:000000000000006b .LLST19
     /tmp/ccpdjtZT.s:563    .text:00000000000002e8 .LVL46
     /tmp/ccpdjtZT.s:477    .text:0000000000000270 .LFB44
     /tmp/ccpdjtZT.s:531    .text:00000000000002c0 .LFE44
     /tmp/ccpdjtZT.s:3600   .debug_str:0000000000000634 .LASF128
     /tmp/ccpdjtZT.s:3106   .debug_loc:0000000000000096 .LLST16
     /tmp/ccpdjtZT.s:497    .text:000000000000028c .LBB28
     /tmp/ccpdjtZT.s:510    .text:000000000000029c .LBE28
     /tmp/ccpdjtZT.s:3128   .debug_loc:00000000000000f5 .LLST17
     /tmp/ccpdjtZT.s:507    .text:000000000000029c .LVL40
     /tmp/ccpdjtZT.s:514    .text:00000000000002a8 .LVL41
     /tmp/ccpdjtZT.s:452    .text:0000000000000270 .LFE43
     /tmp/ccpdjtZT.s:3139   .debug_loc:000000000000012b .LLST9
     /tmp/ccpdjtZT.s:3157   .debug_loc:0000000000000177 .LLST10
     /tmp/ccpdjtZT.s:3572   .debug_str:000000000000057f .LASF129
     /tmp/ccpdjtZT.s:3175   .debug_loc:00000000000001c3 .LLST11
     /tmp/ccpdjtZT.s:373    .text:00000000000001d4 .LBB26
     /tmp/ccpdjtZT.s:419    .text:0000000000000234 .LBE26
     /tmp/ccpdjtZT.s:3226   .debug_loc:0000000000000280 .LLST12
     /tmp/ccpdjtZT.s:3273   .debug_loc:000000000000032a .LLST13
     /tmp/ccpdjtZT.s:3287   .debug_loc:0000000000000363 .LLST14
     /tmp/ccpdjtZT.s:3301   .debug_loc:000000000000039c .LLST15
     /tmp/ccpdjtZT.s:406    .text:0000000000000224 .LVL28
     /tmp/ccpdjtZT.s:369    .text:00000000000001d0 .LVL24
     /tmp/ccpdjtZT.s:423    .text:0000000000000240 .LVL32
     /tmp/ccpdjtZT.s:427    .text:000000000000024c .LVL33
     /tmp/ccpdjtZT.s:158    .text:00000000000000a0 .LFB42
     /tmp/ccpdjtZT.s:271    .text:000000000000013c .LFE42
     /tmp/ccpdjtZT.s:3312   .debug_loc:00000000000003d2 .LLST4
     /tmp/ccpdjtZT.s:180    .text:00000000000000c4 .LBB18
     /tmp/ccpdjtZT.s:194    .text:00000000000000cc .LBE18
     /tmp/ccpdjtZT.s:3323   .debug_loc:0000000000000408 .LLST5
     /tmp/ccpdjtZT.s:200    .text:00000000000000d4 .LBB20
     /tmp/ccpdjtZT.s:208    .text:00000000000000d8 .LBE20
     /tmp/ccpdjtZT.s:3332   .debug_loc:000000000000042e .LLST6
     /tmp/ccpdjtZT.s:243    .text:0000000000000118 .LBB22
     /tmp/ccpdjtZT.s:258    .text:0000000000000124 .LBE22
     /tmp/ccpdjtZT.s:219    .text:00000000000000ec .LVL12
     /tmp/ccpdjtZT.s:227    .text:0000000000000104 .LVL13
     /tmp/ccpdjtZT.s:268    .text:0000000000000138 .LVL16
     /tmp/ccpdjtZT.s:117    .text:0000000000000078 .LFB41
     /tmp/ccpdjtZT.s:145    .text:00000000000000a0 .LFE41
     /tmp/ccpdjtZT.s:3339   .debug_loc:0000000000000451 .LLST3
     /tmp/ccpdjtZT.s:134    .text:0000000000000090 .LVL7
     /tmp/ccpdjtZT.s:75     .text:0000000000000050 .LFB40
     /tmp/ccpdjtZT.s:103    .text:0000000000000078 .LFE40
GAS LISTING /tmp/ccpdjtZT.s 			page 26


     /tmp/ccpdjtZT.s:3353   .debug_loc:000000000000048a .LLST2
     /tmp/ccpdjtZT.s:92     .text:0000000000000068 .LVL5
     /tmp/ccpdjtZT.s:43     .text:0000000000000028 .LFB39
     /tmp/ccpdjtZT.s:69     .text:0000000000000050 .LFE39
     /tmp/ccpdjtZT.s:3367   .debug_loc:00000000000004c3 .LLST1
     /tmp/ccpdjtZT.s:58     .text:0000000000000040 .LVL3
     /tmp/ccpdjtZT.s:10     .text:0000000000000000 .LFB38
     /tmp/ccpdjtZT.s:37     .text:0000000000000028 .LFE38
     /tmp/ccpdjtZT.s:3381   .debug_loc:00000000000004fc .LLST0
     /tmp/ccpdjtZT.s:26     .text:0000000000000018 .LVL1
     /tmp/ccpdjtZT.s:3594   .debug_str:00000000000005fe .LASF132
     /tmp/ccpdjtZT.s:3428   .debug_str:000000000000007d .LASF131
     /tmp/ccpdjtZT.s:3692   .debug_str:00000000000008f2 .LASF133
     /tmp/ccpdjtZT.s:3464   .debug_str:0000000000000223 .LASF134
     /tmp/ccpdjtZT.s:3420   .debug_str:000000000000004a .LASF150
     /tmp/ccpdjtZT.s:3454   .debug_str:00000000000001e1 .LASF135
     /tmp/ccpdjtZT.s:3524   .debug_str:0000000000000411 .LASF136
     /tmp/ccpdjtZT.s:3584   .debug_str:00000000000005ba .LASF137
     /tmp/ccpdjtZT.s:306    .text:0000000000000174 .LVL19
     /tmp/ccpdjtZT.s:313    .text:000000000000017c .LVL20
     /tmp/ccpdjtZT.s:549    .text:00000000000002d0 .LVL44
     /tmp/ccpdjtZT.s:557    .text:00000000000002e0 .LVL45
     /tmp/ccpdjtZT.s:480    .text:0000000000000270 .LVL37
     /tmp/ccpdjtZT.s:502    .text:0000000000000290 .LVL39
     /tmp/ccpdjtZT.s:523    .text:00000000000002b4 .LVL42
     /tmp/ccpdjtZT.s:527    .text:00000000000002bc .LVL43
     /tmp/ccpdjtZT.s:496    .text:000000000000028c .LVL38
     /tmp/ccpdjtZT.s:343    .text:0000000000000198 .LVL22
     /tmp/ccpdjtZT.s:366    .text:00000000000001c8 .LVL23
     /tmp/ccpdjtZT.s:444    .text:0000000000000264 .LVL35
     /tmp/ccpdjtZT.s:447    .text:0000000000000268 .LVL36
     /tmp/ccpdjtZT.s:390    .text:0000000000000200 .LVL26
     /tmp/ccpdjtZT.s:395    .text:0000000000000208 .LVL27
     /tmp/ccpdjtZT.s:409    .text:0000000000000228 .LVL29
     /tmp/ccpdjtZT.s:413    .text:000000000000022c .LVL30
     /tmp/ccpdjtZT.s:415    .text:0000000000000230 .LVL31
     /tmp/ccpdjtZT.s:372    .text:00000000000001d4 .LVL25
     /tmp/ccpdjtZT.s:439    .text:000000000000025c .LVL34
     /tmp/ccpdjtZT.s:198    .text:00000000000000d4 .LVL10
     /tmp/ccpdjtZT.s:237    .text:0000000000000110 .LVL14
     /tmp/ccpdjtZT.s:262    .text:000000000000012c .LVL15
     /tmp/ccpdjtZT.s:179    .text:00000000000000c4 .LVL8
     /tmp/ccpdjtZT.s:190    .text:00000000000000cc .LVL9
     /tmp/ccpdjtZT.s:206    .text:00000000000000d8 .LVL11
     /tmp/ccpdjtZT.s:122    .text:0000000000000078 .LVL6
     /tmp/ccpdjtZT.s:80     .text:0000000000000050 .LVL4
     /tmp/ccpdjtZT.s:46     .text:0000000000000028 .LVL2
     /tmp/ccpdjtZT.s:14     .text:0000000000000000 .LVL0
     /tmp/ccpdjtZT.s:624    .debug_info:0000000000000000 .Ldebug_info0
     /tmp/ccpdjtZT.s:106    .gcc_except_table:0000000000000000 .LLSDA40
     /tmp/ccpdjtZT.s:147    .gcc_except_table:0000000000000004 .LLSDA41
     /tmp/ccpdjtZT.s:454    .gcc_except_table:0000000000000008 .LLSDA43

UNDEFINED SYMBOLS
_ZN15MemoryAllocator9mem_allocEm
_ZN15MemoryAllocator8mem_freeEPKv
__gxx_personality_v0
GAS LISTING /tmp/ccpdjtZT.s 			page 27


_ZN9Scheduler3getEv
_ZN3TCB13contextSwitchEPNS_7ContextES1_
_ZN9Scheduler3putEP3TCB
_ZN5Riscv10popSppSpieEv
_Unwind_Resume
_ZdlPv
