GAS LISTING /tmp/ccIkDnju.s 			page 1


   1              		.file	"tcb.cpp"
   2              		.option pic
   3              		.option norelax
   4              		.text
   5              	.Ltext0:
   6              		.align	2
   7              		.globl	_ZN3TCBnwEm
   9              	_ZN3TCBnwEm:
  10              	.LFB41:
  11              		.file 1 "src/tcb.cpp"
   1:src/tcb.cpp   **** //
   2:src/tcb.cpp   **** // Created by os on 5/19/24.
   3:src/tcb.cpp   **** //
   4:src/tcb.cpp   **** 
   5:src/tcb.cpp   **** #include "../h/tcb.hpp"
   6:src/tcb.cpp   **** 
   7:src/tcb.cpp   **** 
   8:src/tcb.cpp   **** TCB *TCB::running = nullptr;
   9:src/tcb.cpp   **** uint64 TCB::timeSliceCounter = 0;
  10:src/tcb.cpp   **** 
  11:src/tcb.cpp   **** void *TCB::operator new(size_t n)
  12:src/tcb.cpp   **** {
  12              		.loc 1 12 1
  13              		.cfi_startproc
  14              	.LVL0:
  15 0000 130101FF 		addi	sp,sp,-16
  16              		.cfi_def_cfa_offset 16
  17 0004 23341100 		sd	ra,8(sp)
  18 0008 23308100 		sd	s0,0(sp)
  19              		.cfi_offset 1, -8
  20              		.cfi_offset 8, -16
  21 000c 13040101 		addi	s0,sp,16
  22              		.cfi_def_cfa 8, 0
  13:src/tcb.cpp   ****     return MemoryAllocator::mem_alloc(n);
  23              		.loc 1 13 5
  24              		.loc 1 13 38 is_stmt 0
  25 0010 97000000 		call	_ZN15MemoryAllocator9mem_allocEm@plt
  25      E7800000 
  26              	.LVL1:
  14:src/tcb.cpp   **** }
  27              		.loc 1 14 1
  28 0018 83308100 		ld	ra,8(sp)
  29              		.cfi_restore 1
  30 001c 03340100 		ld	s0,0(sp)
  31              		.cfi_restore 8
  32              		.cfi_def_cfa 2, 16
  33 0020 13010101 		addi	sp,sp,16
  34              		.cfi_def_cfa_offset 0
  35 0024 67800000 		jr	ra
  36              		.cfi_endproc
  37              	.LFE41:
  39              		.align	2
  40              		.globl	_ZN3TCBnaEm
  42              	_ZN3TCBnaEm:
  43              	.LFB42:
  15:src/tcb.cpp   **** 
  16:src/tcb.cpp   **** void *TCB::operator new[](size_t n)
GAS LISTING /tmp/ccIkDnju.s 			page 2


  17:src/tcb.cpp   **** {
  44              		.loc 1 17 1 is_stmt 1
  45              		.cfi_startproc
  46              	.LVL2:
  47 0028 130101FF 		addi	sp,sp,-16
  48              		.cfi_def_cfa_offset 16
  49 002c 23341100 		sd	ra,8(sp)
  50 0030 23308100 		sd	s0,0(sp)
  51              		.cfi_offset 1, -8
  52              		.cfi_offset 8, -16
  53 0034 13040101 		addi	s0,sp,16
  54              		.cfi_def_cfa 8, 0
  18:src/tcb.cpp   ****     return MemoryAllocator::mem_alloc(n);
  55              		.loc 1 18 5
  56              		.loc 1 18 38 is_stmt 0
  57 0038 97000000 		call	_ZN15MemoryAllocator9mem_allocEm@plt
  57      E7800000 
  58              	.LVL3:
  19:src/tcb.cpp   **** }
  59              		.loc 1 19 1
  60 0040 83308100 		ld	ra,8(sp)
  61              		.cfi_restore 1
  62 0044 03340100 		ld	s0,0(sp)
  63              		.cfi_restore 8
  64              		.cfi_def_cfa 2, 16
  65 0048 13010101 		addi	sp,sp,16
  66              		.cfi_def_cfa_offset 0
  67 004c 67800000 		jr	ra
  68              		.cfi_endproc
  69              	.LFE42:
  71              		.align	2
  72              		.globl	_ZN3TCBdlEPv
  74              	_ZN3TCBdlEPv:
  75              	.LFB43:
  20:src/tcb.cpp   **** 
  21:src/tcb.cpp   **** void TCB::operator delete(void *p) noexcept
  22:src/tcb.cpp   **** {
  76              		.loc 1 22 1 is_stmt 1
  77              		.cfi_startproc
  78              		.cfi_personality 0x9b,DW.ref.__gxx_personality_v0
  79              		.cfi_lsda 0x1b,.LLSDA43
  80              	.LVL4:
  81 0050 130101FF 		addi	sp,sp,-16
  82              		.cfi_def_cfa_offset 16
  83 0054 23341100 		sd	ra,8(sp)
  84 0058 23308100 		sd	s0,0(sp)
  85              		.cfi_offset 1, -8
  86              		.cfi_offset 8, -16
  87 005c 13040101 		addi	s0,sp,16
  88              		.cfi_def_cfa 8, 0
  23:src/tcb.cpp   ****     MemoryAllocator::mem_free(p);
  89              		.loc 1 23 5
  90              		.loc 1 23 30 is_stmt 0
  91 0060 97000000 		call	_ZN15MemoryAllocator8mem_freeEPKv@plt
  91      E7800000 
  92              	.LVL5:
  24:src/tcb.cpp   **** }
GAS LISTING /tmp/ccIkDnju.s 			page 3


  93              		.loc 1 24 1
  94 0068 83308100 		ld	ra,8(sp)
  95              		.cfi_restore 1
  96 006c 03340100 		ld	s0,0(sp)
  97              		.cfi_restore 8
  98              		.cfi_def_cfa 2, 16
  99 0070 13010101 		addi	sp,sp,16
 100              		.cfi_def_cfa_offset 0
 101 0074 67800000 		jr	ra
 102              		.cfi_endproc
 103              	.LFE43:
 104              		.globl	__gxx_personality_v0
 105              		.section	.gcc_except_table,"a",@progbits
 106              	.LLSDA43:
 107 0000 FF       		.byte	0xff
 108 0001 FF       		.byte	0xff
 109 0002 03       		.byte	0x3
 110 0003 00       		.byte	0
 111              		.text
 113              		.align	2
 114              		.globl	_ZN3TCBdaEPv
 116              	_ZN3TCBdaEPv:
 117              	.LFB44:
  25:src/tcb.cpp   **** 
  26:src/tcb.cpp   **** void TCB::operator delete[](void *p) noexcept
  27:src/tcb.cpp   **** {
 118              		.loc 1 27 1 is_stmt 1
 119              		.cfi_startproc
 120              		.cfi_personality 0x9b,DW.ref.__gxx_personality_v0
 121              		.cfi_lsda 0x1b,.LLSDA44
 122              	.LVL6:
 123 0078 130101FF 		addi	sp,sp,-16
 124              		.cfi_def_cfa_offset 16
 125 007c 23341100 		sd	ra,8(sp)
 126 0080 23308100 		sd	s0,0(sp)
 127              		.cfi_offset 1, -8
 128              		.cfi_offset 8, -16
 129 0084 13040101 		addi	s0,sp,16
 130              		.cfi_def_cfa 8, 0
  28:src/tcb.cpp   ****     MemoryAllocator::mem_free(p);
 131              		.loc 1 28 5
 132              		.loc 1 28 30 is_stmt 0
 133 0088 97000000 		call	_ZN15MemoryAllocator8mem_freeEPKv@plt
 133      E7800000 
 134              	.LVL7:
  29:src/tcb.cpp   **** }
 135              		.loc 1 29 1
 136 0090 83308100 		ld	ra,8(sp)
 137              		.cfi_restore 1
 138 0094 03340100 		ld	s0,0(sp)
 139              		.cfi_restore 8
 140              		.cfi_def_cfa 2, 16
 141 0098 13010101 		addi	sp,sp,16
 142              		.cfi_def_cfa_offset 0
 143 009c 67800000 		jr	ra
 144              		.cfi_endproc
 145              	.LFE44:
GAS LISTING /tmp/ccIkDnju.s 			page 4


 146              		.section	.gcc_except_table
 147              	.LLSDA44:
 148 0004 FF       		.byte	0xff
 149 0005 FF       		.byte	0xff
 150 0006 03       		.byte	0x3
 151 0007 00       		.byte	0
 152              		.text
 154              		.align	2
 155              		.globl	_ZN3TCB8dispatchEv
 157              	_ZN3TCB8dispatchEv:
 158              	.LFB46:
  30:src/tcb.cpp   **** 
  31:src/tcb.cpp   **** void TCB::yield(){
  32:src/tcb.cpp   ****     //__asm__ volatile("li a0, 0x13");
  33:src/tcb.cpp   ****     //__asm__ volatile("ecall");
  34:src/tcb.cpp   ****     TCB::timeSliceCounter=0;
  35:src/tcb.cpp   ****     TCB::dispatch();
  36:src/tcb.cpp   **** }
  37:src/tcb.cpp   **** 
  38:src/tcb.cpp   **** void TCB::dispatch(){
 159              		.loc 1 38 21 is_stmt 1
 160              		.cfi_startproc
 161 00a0 130101FE 		addi	sp,sp,-32
 162              		.cfi_def_cfa_offset 32
 163 00a4 233C1100 		sd	ra,24(sp)
 164 00a8 23388100 		sd	s0,16(sp)
 165 00ac 23349100 		sd	s1,8(sp)
 166              		.cfi_offset 1, -8
 167              		.cfi_offset 8, -16
 168              		.cfi_offset 9, -24
 169 00b0 13040102 		addi	s0,sp,32
 170              		.cfi_def_cfa 8, 0
  39:src/tcb.cpp   **** 
  40:src/tcb.cpp   ****     TCB* old= running;
 171              		.loc 1 40 5
 172              		.loc 1 40 10 is_stmt 0
 173 00b4 97040000 		ld	s1,.LANCHOR0
 173      83B40400 
 174              	.LVL8:
  41:src/tcb.cpp   ****     if(!old->isFinished() && !old->blocked){
 175              		.loc 1 41 5 is_stmt 1
 176              	.LBB14:
 177              	.LBB15:
 178              		.file 2 "src/../h/tcb.hpp"
   1:src/../h/tcb.hpp **** //
   2:src/../h/tcb.hpp **** // Created by os on 5/19/24.
   3:src/../h/tcb.hpp **** //
   4:src/../h/tcb.hpp **** 
   5:src/../h/tcb.hpp **** #ifndef PROJEKAT_TCB_HPP
   6:src/../h/tcb.hpp **** #define PROJEKAT_TCB_HPP
   7:src/../h/tcb.hpp **** #include "../lib/hw.h"
   8:src/../h/tcb.hpp **** #include "scheduler.hpp"
   9:src/../h/tcb.hpp **** #include "riscv.hpp"
  10:src/../h/tcb.hpp **** 
  11:src/../h/tcb.hpp **** class TCB {
  12:src/../h/tcb.hpp **** 
  13:src/../h/tcb.hpp ****     void *operator new(size_t n);
GAS LISTING /tmp/ccIkDnju.s 			page 5


  14:src/../h/tcb.hpp **** 
  15:src/../h/tcb.hpp ****     void *operator new[](size_t n);
  16:src/../h/tcb.hpp **** 
  17:src/../h/tcb.hpp ****     void operator delete(void *p) noexcept;
  18:src/../h/tcb.hpp **** 
  19:src/../h/tcb.hpp ****     void operator delete[](void *p) noexcept;
  20:src/../h/tcb.hpp **** 
  21:src/../h/tcb.hpp **** public:
  22:src/../h/tcb.hpp ****     ~TCB(){ delete stack;}
  23:src/../h/tcb.hpp ****     bool isFinished() const {return finished;}
 179              		.loc 2 23 30
 180              		.loc 2 23 37 is_stmt 0
 181 00bc 83C70403 		lbu	a5,48(s1)
 182              	.LVL9:
 183              	.LBE15:
 184              	.LBE14:
 185              		.loc 1 41 27
 186 00c0 63960700 		bnez	a5,.L10
 187              		.loc 1 41 36 discriminator 1
 188 00c4 83C71403 		lbu	a5,49(s1)
 189              		.loc 1 41 27 discriminator 1
 190 00c8 638C0702 		beqz	a5,.L12
 191              	.L10:
  42:src/tcb.cpp   ****         Scheduler::put(old);
  43:src/tcb.cpp   ****     }
  44:src/tcb.cpp   ****     running = Scheduler::get();
 192              		.loc 1 44 5 is_stmt 1
 193              		.loc 1 44 29 is_stmt 0
 194 00cc 97000000 		call	_ZN9Scheduler3getEv@plt
 194      E7800000 
 195              	.LVL10:
 196              		.loc 1 44 13
 197 00d4 97070000 		sd	a0,.LANCHOR0,a5
 197      23B0A700 
  45:src/tcb.cpp   ****     TCB::contextSwitch(&old->context, &running->context);
 198              		.loc 1 45 5 is_stmt 1
 199              		.loc 1 45 23 is_stmt 0
 200 00dc 93058501 		addi	a1,a0,24
 201 00e0 13858401 		addi	a0,s1,24
 202 00e4 97000000 		call	_ZN3TCB13contextSwitchEPNS_7ContextES1_@plt
 202      E7800000 
 203              	.LVL11:
  46:src/tcb.cpp   **** }
 204              		.loc 1 46 1
 205 00ec 83308101 		ld	ra,24(sp)
 206              		.cfi_remember_state
 207              		.cfi_restore 1
 208 00f0 03340101 		ld	s0,16(sp)
 209              		.cfi_restore 8
 210              		.cfi_def_cfa 2, 32
 211 00f4 83348100 		ld	s1,8(sp)
 212              		.cfi_restore 9
 213              	.LVL12:
 214 00f8 13010102 		addi	sp,sp,32
 215              		.cfi_def_cfa_offset 0
 216 00fc 67800000 		jr	ra
 217              	.LVL13:
GAS LISTING /tmp/ccIkDnju.s 			page 6


 218              	.L12:
 219              		.cfi_restore_state
  42:src/tcb.cpp   ****         Scheduler::put(old);
 220              		.loc 1 42 9 is_stmt 1
  42:src/tcb.cpp   ****         Scheduler::put(old);
 221              		.loc 1 42 23 is_stmt 0
 222 0100 13850400 		mv	a0,s1
 223 0104 97000000 		call	_ZN9Scheduler3putEP3TCB@plt
 223      E7800000 
 224              	.LVL14:
 225 010c 6FF01FFC 		j	.L10
 226              		.cfi_endproc
 227              	.LFE46:
 229              		.align	2
 230              		.globl	_ZN3TCB5yieldEv
 232              	_ZN3TCB5yieldEv:
 233              	.LFB45:
  31:src/tcb.cpp   ****     //__asm__ volatile("li a0, 0x13");
 234              		.loc 1 31 18 is_stmt 1
 235              		.cfi_startproc
 236 0110 130101FF 		addi	sp,sp,-16
 237              		.cfi_def_cfa_offset 16
 238 0114 23341100 		sd	ra,8(sp)
 239 0118 23308100 		sd	s0,0(sp)
 240              		.cfi_offset 1, -8
 241              		.cfi_offset 8, -16
 242 011c 13040101 		addi	s0,sp,16
 243              		.cfi_def_cfa 8, 0
  34:src/tcb.cpp   ****     TCB::dispatch();
 244              		.loc 1 34 5
  34:src/tcb.cpp   ****     TCB::dispatch();
 245              		.loc 1 34 26 is_stmt 0
 246 0120 97070000 		sd	zero,.LANCHOR0+8,a5
 246      23B00700 
  35:src/tcb.cpp   **** }
 247              		.loc 1 35 5 is_stmt 1
  35:src/tcb.cpp   **** }
 248              		.loc 1 35 18 is_stmt 0
 249 0128 97000000 		call	_ZN3TCB8dispatchEv
 249      E7800000 
 250              	.LVL15:
  36:src/tcb.cpp   **** 
 251              		.loc 1 36 1
 252 0130 83308100 		ld	ra,8(sp)
 253              		.cfi_restore 1
 254 0134 03340100 		ld	s0,0(sp)
 255              		.cfi_restore 8
 256              		.cfi_def_cfa 2, 16
 257 0138 13010101 		addi	sp,sp,16
 258              		.cfi_def_cfa_offset 0
 259 013c 67800000 		jr	ra
 260              		.cfi_endproc
 261              	.LFE45:
 263              		.align	2
 264              		.globl	_ZN3TCB13threadWrapperEv
 266              	_ZN3TCB13threadWrapperEv:
 267              	.LFB50:
GAS LISTING /tmp/ccIkDnju.s 			page 7


  47:src/tcb.cpp   **** 
  48:src/tcb.cpp   **** TCB *TCB::createThread(Body body, void * argument, void*stek) {
  49:src/tcb.cpp   ****     return new TCB(body,DEFAULT_TIME_SLICE, argument, stek);
  50:src/tcb.cpp   **** }
  51:src/tcb.cpp   **** 
  52:src/tcb.cpp   **** void TCB::deleteThread(TCB* thread){
  53:src/tcb.cpp   ****     delete thread;
  54:src/tcb.cpp   **** }
  55:src/tcb.cpp   **** 
  56:src/tcb.cpp   **** 
  57:src/tcb.cpp   **** int TCB::exitThread(){
  58:src/tcb.cpp   ****     TCB::running->setFinished(true);
  59:src/tcb.cpp   ****     TCB::yield();
  60:src/tcb.cpp   ****     return 0;
  61:src/tcb.cpp   **** }
  62:src/tcb.cpp   **** 
  63:src/tcb.cpp   **** 
  64:src/tcb.cpp   **** void TCB::threadWrapper() {
 268              		.loc 1 64 27 is_stmt 1
 269              		.cfi_startproc
 270 0140 130101FE 		addi	sp,sp,-32
 271              		.cfi_def_cfa_offset 32
 272 0144 233C1100 		sd	ra,24(sp)
 273 0148 23388100 		sd	s0,16(sp)
 274 014c 23349100 		sd	s1,8(sp)
 275              		.cfi_offset 1, -8
 276              		.cfi_offset 8, -16
 277              		.cfi_offset 9, -24
 278 0150 13040102 		addi	s0,sp,32
 279              		.cfi_def_cfa 8, 0
  65:src/tcb.cpp   **** 
  66:src/tcb.cpp   ****     Riscv::popSppSpie();
 280              		.loc 1 66 5
 281              		.loc 1 66 22 is_stmt 0
 282 0154 97000000 		call	_ZN5Riscv10popSppSpieEv@plt
 282      E7800000 
 283              	.LVL16:
  67:src/tcb.cpp   ****     running->body(running->argument);
 284              		.loc 1 67 5 is_stmt 1
 285              		.loc 1 67 14 is_stmt 0
 286 015c 97040000 		lla	s1,.LANCHOR0
 286      93840400 
 287 0164 83B70400 		ld	a5,0(s1)
 288 0168 03B70700 		ld	a4,0(a5)
 289              		.loc 1 67 18
 290 016c 03B58700 		ld	a0,8(a5)
 291 0170 E7000700 		jalr	a4
 292              	.LVL17:
  68:src/tcb.cpp   ****     running->setFinished(true);
 293              		.loc 1 68 5 is_stmt 1
 294              		.loc 1 68 25 is_stmt 0
 295 0174 83B70400 		ld	a5,0(s1)
 296              	.LVL18:
 297              	.LBB16:
 298              	.LBB17:
  24:src/../h/tcb.hpp ****     void setFinished(bool f) { finished = f;}
 299              		.loc 2 24 32 is_stmt 1
GAS LISTING /tmp/ccIkDnju.s 			page 8


 300              		.loc 2 24 41 is_stmt 0
 301 0178 13071000 		li	a4,1
 302 017c 2388E702 		sb	a4,48(a5)
 303              	.LVL19:
 304              	.LBE17:
 305              	.LBE16:
  69:src/tcb.cpp   ****     TCB::yield();
 306              		.loc 1 69 5 is_stmt 1
 307              		.loc 1 69 15 is_stmt 0
 308 0180 97000000 		call	_ZN3TCB5yieldEv
 308      E7800000 
 309              	.LVL20:
  70:src/tcb.cpp   **** }
 310              		.loc 1 70 1
 311 0188 83308101 		ld	ra,24(sp)
 312              		.cfi_restore 1
 313 018c 03340101 		ld	s0,16(sp)
 314              		.cfi_restore 8
 315              		.cfi_def_cfa 2, 32
 316 0190 83348100 		ld	s1,8(sp)
 317              		.cfi_restore 9
 318 0194 13010102 		addi	sp,sp,32
 319              		.cfi_def_cfa_offset 0
 320 0198 67800000 		jr	ra
 321              		.cfi_endproc
 322              	.LFE50:
 324              		.align	2
 325              		.globl	_ZN3TCB12createThreadEPFvPvES0_S0_
 327              	_ZN3TCB12createThreadEPFvPvES0_S0_:
 328              	.LFB47:
  48:src/tcb.cpp   ****     return new TCB(body,DEFAULT_TIME_SLICE, argument, stek);
 329              		.loc 1 48 63 is_stmt 1
 330              		.cfi_startproc
 331              		.cfi_personality 0x9b,DW.ref.__gxx_personality_v0
 332              		.cfi_lsda 0x1b,.LLSDA47
 333              	.LVL21:
 334 019c 130101FD 		addi	sp,sp,-48
 335              		.cfi_def_cfa_offset 48
 336 01a0 23341102 		sd	ra,40(sp)
 337 01a4 23308102 		sd	s0,32(sp)
 338 01a8 233C9100 		sd	s1,24(sp)
 339 01ac 23382101 		sd	s2,16(sp)
 340 01b0 23343101 		sd	s3,8(sp)
 341 01b4 23304101 		sd	s4,0(sp)
 342              		.cfi_offset 1, -8
 343              		.cfi_offset 8, -16
 344              		.cfi_offset 9, -24
 345              		.cfi_offset 18, -32
 346              		.cfi_offset 19, -40
 347              		.cfi_offset 20, -48
 348 01b8 13040103 		addi	s0,sp,48
 349              		.cfi_def_cfa 8, 0
 350 01bc 93090500 		mv	s3,a0
 351 01c0 138A0500 		mv	s4,a1
 352 01c4 13090600 		mv	s2,a2
  49:src/tcb.cpp   **** }
 353              		.loc 1 49 5
GAS LISTING /tmp/ccIkDnju.s 			page 9


  49:src/tcb.cpp   **** }
 354              		.loc 1 49 59 is_stmt 0
 355 01c8 13058003 		li	a0,56
 356              	.LVL22:
 357              	.LEHB0:
 358 01cc 97000000 		call	_ZN3TCBnwEm
 358      E7800000 
 359              	.LVL23:
 360              	.LEHE0:
 361 01d4 93040500 		mv	s1,a0
 362              	.LVL24:
 363              	.LBB18:
 364              	.LBB19:
  25:src/../h/tcb.hpp **** 
  26:src/../h/tcb.hpp ****     uint64 getTimeSlice() const { return timeSlice; }
  27:src/../h/tcb.hpp **** 
  28:src/../h/tcb.hpp ****     static TCB* running;
  29:src/../h/tcb.hpp ****     using Body = void(*)(void*);
  30:src/../h/tcb.hpp ****     static TCB *createThread(Body body, void *arg, void*stek);
  31:src/../h/tcb.hpp ****     static void deleteThread(TCB *thread);
  32:src/../h/tcb.hpp ****     static int exitThread();
  33:src/../h/tcb.hpp ****     static void yield();
  34:src/../h/tcb.hpp ****     void setBlocked(bool b);
  35:src/../h/tcb.hpp **** 
  36:src/../h/tcb.hpp **** private:
  37:src/../h/tcb.hpp ****     explicit TCB(Body body, uint64 timeSlice, void* arg, void* stek): body(body), argument(arg), st
  38:src/../h/tcb.hpp ****     context({
  39:src/../h/tcb.hpp ****             (uint64) &threadWrapper,
  40:src/../h/tcb.hpp ****             stack != nullptr ? (uint64) &stack[DEFAULT_STACK_SIZE] : 0
  41:src/../h/tcb.hpp ****                 }),
  42:src/../h/tcb.hpp ****                 timeSlice(timeSlice),
  43:src/../h/tcb.hpp ****                 finished(false),
  44:src/../h/tcb.hpp ****                 blocked(false)
 365              		.loc 2 44 30
 366 01d8 23303501 		sd	s3,0(a0)
 367 01dc 23344501 		sd	s4,8(a0)
  37:src/../h/tcb.hpp ****     context({
 368              		.loc 2 37 117
 369 01e0 B7870000 		li	a5,32768
 370 01e4 B307F900 		add	a5,s2,a5
 371              		.loc 2 44 30
 372 01e8 2338F500 		sd	a5,16(a0)
 373 01ec 17070000 		lla	a4,_ZN3TCB13threadWrapperEv
 373      13070700 
 374 01f4 233CE500 		sd	a4,24(a0)
  40:src/../h/tcb.hpp ****                 }),
 375              		.loc 2 40 30
 376 01f8 638A0702 		beqz	a5,.L21
  40:src/../h/tcb.hpp ****                 }),
 377              		.loc 2 40 41
 378 01fc 37960000 		li	a2,36864
 379 0200 3309C900 		add	s2,s2,a2
 380              	.LVL25:
 381              	.L18:
 382              		.loc 2 44 30
 383 0204 23B02403 		sd	s2,32(s1)
 384 0208 93072000 		li	a5,2
GAS LISTING /tmp/ccIkDnju.s 			page 10


 385              	.LVL26:
 386 020c 23B4F402 		sd	a5,40(s1)
 387 0210 23880402 		sb	zero,48(s1)
 388 0214 A3880402 		sb	zero,49(s1)
  45:src/../h/tcb.hpp ****     {
  46:src/../h/tcb.hpp ****         if(body!= nullptr) Scheduler::put(this);
 389              		.loc 2 46 9 is_stmt 1
 390 0218 638C0902 		beqz	s3,.L17
 391              		.loc 2 46 28
 392              		.loc 2 46 42 is_stmt 0
 393 021c 13850400 		mv	a0,s1
 394              	.LEHB1:
 395 0220 97000000 		call	_ZN9Scheduler3putEP3TCB@plt
 395      E7800000 
 396              	.LVL27:
 397              	.LEHE1:
 398 0228 6F008002 		j	.L17
 399              	.LVL28:
 400              	.L21:
  40:src/../h/tcb.hpp ****                 }),
 401              		.loc 2 40 30
 402 022c 13090000 		li	s2,0
 403              	.LVL29:
 404 0230 6FF05FFD 		j	.L18
 405              	.LVL30:
 406              	.L22:
 407 0234 13090500 		mv	s2,a0
 408              	.LBE19:
 409              	.LBE18:
  49:src/tcb.cpp   **** }
 410              		.loc 1 49 59
 411 0238 13850400 		mv	a0,s1
 412 023c 97000000 		call	_ZN3TCBdlEPv
 412      E7800000 
 413              	.LVL31:
 414 0244 13050900 		mv	a0,s2
 415              	.LEHB2:
 416 0248 97000000 		call	_Unwind_Resume@plt
 416      E7800000 
 417              	.LVL32:
 418              	.LEHE2:
 419              	.L17:
  50:src/tcb.cpp   **** 
 420              		.loc 1 50 1
 421 0250 13850400 		mv	a0,s1
 422 0254 83308102 		ld	ra,40(sp)
 423              		.cfi_restore 1
 424 0258 03340102 		ld	s0,32(sp)
 425              		.cfi_restore 8
 426              		.cfi_def_cfa 2, 48
 427 025c 83348101 		ld	s1,24(sp)
 428              		.cfi_restore 9
 429              	.LVL33:
 430 0260 03390101 		ld	s2,16(sp)
 431              		.cfi_restore 18
 432 0264 83398100 		ld	s3,8(sp)
 433              		.cfi_restore 19
GAS LISTING /tmp/ccIkDnju.s 			page 11


 434              	.LVL34:
 435 0268 033A0100 		ld	s4,0(sp)
 436              		.cfi_restore 20
 437              	.LVL35:
 438 026c 13010103 		addi	sp,sp,48
 439              		.cfi_def_cfa_offset 0
 440 0270 67800000 		jr	ra
 441              		.cfi_endproc
 442              	.LFE47:
 443              		.section	.gcc_except_table
 444              	.LLSDA47:
 445 0008 FF       		.byte	0xff
 446 0009 FF       		.byte	0xff
 447 000a 03       		.byte	0x3
 448 000b 27       		.byte	0x27
 449 000c 00000000 		.4byte	.LEHB0-.LFB47
 450 0010 00000000 		.4byte	.LEHE0-.LEHB0
 451 0014 00000000 		.4byte	0
 452 0018 00       		.byte	0
 453 0019 00000000 		.4byte	.LEHB1-.LFB47
 454 001d 00000000 		.4byte	.LEHE1-.LEHB1
 455 0021 00000000 		.4byte	.L22-.LFB47
 456 0025 00       		.byte	0
 457 0026 00000000 		.4byte	.LEHB2-.LFB47
 458 002a 00000000 		.4byte	.LEHE2-.LEHB2
 459 002e 00000000 		.4byte	0
 460 0032 00       		.byte	0
 461              		.text
 463              		.align	2
 464              		.globl	_ZN3TCB12deleteThreadEPS_
 466              	_ZN3TCB12deleteThreadEPS_:
 467              	.LFB48:
  52:src/tcb.cpp   ****     delete thread;
 468              		.loc 1 52 36 is_stmt 1
 469              		.cfi_startproc
 470              	.LVL36:
  53:src/tcb.cpp   **** }
 471              		.loc 1 53 5
  53:src/tcb.cpp   **** }
 472              		.loc 1 53 18 is_stmt 0
 473 0274 63060504 		beqz	a0,.L28
  52:src/tcb.cpp   ****     delete thread;
 474              		.loc 1 52 36
 475 0278 130101FE 		addi	sp,sp,-32
 476              		.cfi_def_cfa_offset 32
 477 027c 233C1100 		sd	ra,24(sp)
 478 0280 23388100 		sd	s0,16(sp)
 479 0284 23349100 		sd	s1,8(sp)
 480              		.cfi_offset 1, -8
 481              		.cfi_offset 8, -16
 482              		.cfi_offset 9, -24
 483 0288 13040102 		addi	s0,sp,32
 484              		.cfi_def_cfa 8, 0
 485 028c 93040500 		mv	s1,a0
 486              	.LVL37:
 487              	.LBB20:
 488              	.LBB21:
GAS LISTING /tmp/ccIkDnju.s 			page 12


  22:src/../h/tcb.hpp ****     bool isFinished() const {return finished;}
 489              		.loc 2 22 13 is_stmt 1
  22:src/../h/tcb.hpp ****     bool isFinished() const {return finished;}
 490              		.loc 2 22 20 is_stmt 0
 491 0290 03350501 		ld	a0,16(a0)
 492              	.LVL38:
  22:src/../h/tcb.hpp ****     bool isFinished() const {return finished;}
 493              		.loc 2 22 25
 494 0294 63060500 		beqz	a0,.L26
  22:src/../h/tcb.hpp ****     bool isFinished() const {return finished;}
 495              		.loc 2 22 20
 496 0298 97000000 		call	_ZdlPv@plt
 496      E7800000 
 497              	.LVL39:
 498              	.L26:
 499              	.LBE21:
 500              	.LBE20:
  53:src/tcb.cpp   **** }
 501              		.loc 1 53 12
 502 02a0 13850400 		mv	a0,s1
 503 02a4 97000000 		call	_ZN3TCBdlEPv
 503      E7800000 
 504              	.LVL40:
  54:src/tcb.cpp   **** 
 505              		.loc 1 54 1
 506 02ac 83308101 		ld	ra,24(sp)
 507              		.cfi_restore 1
 508 02b0 03340101 		ld	s0,16(sp)
 509              		.cfi_restore 8
 510              		.cfi_def_cfa 2, 32
 511 02b4 83348100 		ld	s1,8(sp)
 512              		.cfi_restore 9
 513              	.LVL41:
 514 02b8 13010102 		addi	sp,sp,32
 515              		.cfi_def_cfa_offset 0
 516 02bc 67800000 		jr	ra
 517              	.LVL42:
 518              	.L28:
 519 02c0 67800000 		ret
 520              		.cfi_endproc
 521              	.LFE48:
 523              		.align	2
 524              		.globl	_ZN3TCB10exitThreadEv
 526              	_ZN3TCB10exitThreadEv:
 527              	.LFB49:
  57:src/tcb.cpp   ****     TCB::running->setFinished(true);
 528              		.loc 1 57 22 is_stmt 1
 529              		.cfi_startproc
 530 02c4 130101FF 		addi	sp,sp,-16
 531              		.cfi_def_cfa_offset 16
 532 02c8 23341100 		sd	ra,8(sp)
 533 02cc 23308100 		sd	s0,0(sp)
 534              		.cfi_offset 1, -8
 535              		.cfi_offset 8, -16
 536 02d0 13040101 		addi	s0,sp,16
 537              		.cfi_def_cfa 8, 0
  58:src/tcb.cpp   ****     TCB::yield();
GAS LISTING /tmp/ccIkDnju.s 			page 13


 538              		.loc 1 58 5
 539              	.LVL43:
 540              	.LBB22:
 541              	.LBB23:
  24:src/../h/tcb.hpp **** 
 542              		.loc 2 24 32
  24:src/../h/tcb.hpp **** 
 543              		.loc 2 24 41 is_stmt 0
 544 02d4 97070000 		ld	a5,.LANCHOR0
 544      83B70700 
 545 02dc 13071000 		li	a4,1
 546 02e0 2388E702 		sb	a4,48(a5)
 547              	.LVL44:
 548              	.LBE23:
 549              	.LBE22:
  59:src/tcb.cpp   ****     return 0;
 550              		.loc 1 59 5 is_stmt 1
  59:src/tcb.cpp   ****     return 0;
 551              		.loc 1 59 15 is_stmt 0
 552 02e4 97000000 		call	_ZN3TCB5yieldEv
 552      E7800000 
 553              	.LVL45:
  60:src/tcb.cpp   **** }
 554              		.loc 1 60 5 is_stmt 1
  61:src/tcb.cpp   **** 
 555              		.loc 1 61 1 is_stmt 0
 556 02ec 13050000 		li	a0,0
 557 02f0 83308100 		ld	ra,8(sp)
 558              		.cfi_restore 1
 559 02f4 03340100 		ld	s0,0(sp)
 560              		.cfi_restore 8
 561              		.cfi_def_cfa 2, 16
 562 02f8 13010101 		addi	sp,sp,16
 563              		.cfi_def_cfa_offset 0
 564 02fc 67800000 		jr	ra
 565              		.cfi_endproc
 566              	.LFE49:
 568              		.align	2
 569              		.globl	_ZN3TCB10setBlockedEb
 571              	_ZN3TCB10setBlockedEb:
 572              	.LFB51:
  71:src/tcb.cpp   **** 
  72:src/tcb.cpp   **** void TCB::setBlocked(bool b) {
 573              		.loc 1 72 30 is_stmt 1
 574              		.cfi_startproc
 575              	.LVL46:
 576 0300 130101FF 		addi	sp,sp,-16
 577              		.cfi_def_cfa_offset 16
 578 0304 23348100 		sd	s0,8(sp)
 579              		.cfi_offset 8, -8
 580 0308 13040101 		addi	s0,sp,16
 581              		.cfi_def_cfa 8, 0
  73:src/tcb.cpp   ****     this->blocked = b;
 582              		.loc 1 73 5
 583              		.loc 1 73 19 is_stmt 0
 584 030c A308B502 		sb	a1,49(a0)
  74:src/tcb.cpp   **** }
GAS LISTING /tmp/ccIkDnju.s 			page 14


 585              		.loc 1 74 1
 586 0310 03348100 		ld	s0,8(sp)
 587              		.cfi_restore 8
 588              		.cfi_def_cfa 2, 16
 589 0314 13010101 		addi	sp,sp,16
 590              		.cfi_def_cfa_offset 0
 591 0318 67800000 		jr	ra
 592              		.cfi_endproc
 593              	.LFE51:
 595              		.globl	_ZN3TCB16timeSliceCounterE
 596              		.globl	_ZN3TCB7runningE
 597              		.bss
 598              		.align	3
 599              		.set	.LANCHOR0,. + 0
 602              	_ZN3TCB7runningE:
 603 0000 00000000 		.zero	8
 603      00000000 
 606              	_ZN3TCB16timeSliceCounterE:
 607 0008 00000000 		.zero	8
 607      00000000 
 608              		.text
 609              	.Letext0:
 610              		.file 3 "src/../h/../lib/hw.h"
 611              		.file 4 "src/../h/MemoryAllocator.hpp"
 612              		.file 5 "src/../h/scheduler.hpp"
 613              		.file 6 "src/../h/list.hpp"
 614              		.file 7 "src/../h/riscv.hpp"
 3834              		.align	3
 3837              	DW.ref.__gxx_personality_v0:
 3838 0000 00000000 		.dword	__gxx_personality_v0
 3838      00000000 
 3839              		.ident	"GCC: (Ubuntu 9.3.0-17ubuntu1~20.04) 9.3.0"
 3840              		.section	.note.GNU-stack,"",@progbits
GAS LISTING /tmp/ccIkDnju.s 			page 15

