GAS LISTING /tmp/ccO8ELOo.s 			page 1


   1              		.file	"tcb.cpp"
   2              		.option pic
   3              		.option norelax
   4              		.text
   5              	.Ltext0:
   6              		.align	2
   7              		.globl	_ZN3TCBnwEm
   9              	_ZN3TCBnwEm:
  10              	.LFB40:
  11              		.file 1 "src/tcb.cpp"
   1:src/tcb.cpp   **** //
   2:src/tcb.cpp   **** // Created by os on 5/19/24.
   3:src/tcb.cpp   **** //
   4:src/tcb.cpp   **** 
   5:src/tcb.cpp   **** #include "../h/tcb.hpp"
   6:src/tcb.cpp   **** 
   7:src/tcb.cpp   **** 
   8:src/tcb.cpp   **** TCB *TCB::running = nullptr;
   9:src/tcb.cpp   **** uint64 TCB::timeSliceCounter = 0;
  10:src/tcb.cpp   **** 
  11:src/tcb.cpp   **** void *TCB::operator new(size_t n)
  12:src/tcb.cpp   **** {
  12              		.loc 1 12 1
  13              		.cfi_startproc
  14              	.LVL0:
  15 0000 130101FF 		addi	sp,sp,-16
  16              		.cfi_def_cfa_offset 16
  17 0004 23341100 		sd	ra,8(sp)
  18 0008 23308100 		sd	s0,0(sp)
  19              		.cfi_offset 1, -8
  20              		.cfi_offset 8, -16
  21 000c 13040101 		addi	s0,sp,16
  22              		.cfi_def_cfa 8, 0
  13:src/tcb.cpp   ****     return MemoryAllocator::mem_alloc(n);
  23              		.loc 1 13 5
  24              		.loc 1 13 38 is_stmt 0
  25 0010 97000000 		call	_ZN15MemoryAllocator9mem_allocEm@plt
  25      E7800000 
  26              	.LVL1:
  14:src/tcb.cpp   **** }
  27              		.loc 1 14 1
  28 0018 83308100 		ld	ra,8(sp)
  29              		.cfi_restore 1
  30 001c 03340100 		ld	s0,0(sp)
  31              		.cfi_restore 8
  32              		.cfi_def_cfa 2, 16
  33 0020 13010101 		addi	sp,sp,16
  34              		.cfi_def_cfa_offset 0
  35 0024 67800000 		jr	ra
  36              		.cfi_endproc
  37              	.LFE40:
  39              		.align	2
  40              		.globl	_ZN3TCBnaEm
  42              	_ZN3TCBnaEm:
  43              	.LFB41:
  15:src/tcb.cpp   **** 
  16:src/tcb.cpp   **** void *TCB::operator new[](size_t n)
GAS LISTING /tmp/ccO8ELOo.s 			page 2


  17:src/tcb.cpp   **** {
  44              		.loc 1 17 1 is_stmt 1
  45              		.cfi_startproc
  46              	.LVL2:
  47 0028 130101FF 		addi	sp,sp,-16
  48              		.cfi_def_cfa_offset 16
  49 002c 23341100 		sd	ra,8(sp)
  50 0030 23308100 		sd	s0,0(sp)
  51              		.cfi_offset 1, -8
  52              		.cfi_offset 8, -16
  53 0034 13040101 		addi	s0,sp,16
  54              		.cfi_def_cfa 8, 0
  18:src/tcb.cpp   ****     return MemoryAllocator::mem_alloc(n);
  55              		.loc 1 18 5
  56              		.loc 1 18 38 is_stmt 0
  57 0038 97000000 		call	_ZN15MemoryAllocator9mem_allocEm@plt
  57      E7800000 
  58              	.LVL3:
  19:src/tcb.cpp   **** }
  59              		.loc 1 19 1
  60 0040 83308100 		ld	ra,8(sp)
  61              		.cfi_restore 1
  62 0044 03340100 		ld	s0,0(sp)
  63              		.cfi_restore 8
  64              		.cfi_def_cfa 2, 16
  65 0048 13010101 		addi	sp,sp,16
  66              		.cfi_def_cfa_offset 0
  67 004c 67800000 		jr	ra
  68              		.cfi_endproc
  69              	.LFE41:
  71              		.align	2
  72              		.globl	_ZN3TCBdlEPv
  74              	_ZN3TCBdlEPv:
  75              	.LFB42:
  20:src/tcb.cpp   **** 
  21:src/tcb.cpp   **** void TCB::operator delete(void *p) noexcept
  22:src/tcb.cpp   **** {
  76              		.loc 1 22 1 is_stmt 1
  77              		.cfi_startproc
  78              		.cfi_personality 0x9b,DW.ref.__gxx_personality_v0
  79              		.cfi_lsda 0x1b,.LLSDA42
  80              	.LVL4:
  81 0050 130101FF 		addi	sp,sp,-16
  82              		.cfi_def_cfa_offset 16
  83 0054 23341100 		sd	ra,8(sp)
  84 0058 23308100 		sd	s0,0(sp)
  85              		.cfi_offset 1, -8
  86              		.cfi_offset 8, -16
  87 005c 13040101 		addi	s0,sp,16
  88              		.cfi_def_cfa 8, 0
  23:src/tcb.cpp   ****     MemoryAllocator::mem_free(p);
  89              		.loc 1 23 5
  90              		.loc 1 23 30 is_stmt 0
  91 0060 97000000 		call	_ZN15MemoryAllocator8mem_freeEPKv@plt
  91      E7800000 
  92              	.LVL5:
  24:src/tcb.cpp   **** }
GAS LISTING /tmp/ccO8ELOo.s 			page 3


  93              		.loc 1 24 1
  94 0068 83308100 		ld	ra,8(sp)
  95              		.cfi_restore 1
  96 006c 03340100 		ld	s0,0(sp)
  97              		.cfi_restore 8
  98              		.cfi_def_cfa 2, 16
  99 0070 13010101 		addi	sp,sp,16
 100              		.cfi_def_cfa_offset 0
 101 0074 67800000 		jr	ra
 102              		.cfi_endproc
 103              	.LFE42:
 104              		.globl	__gxx_personality_v0
 105              		.section	.gcc_except_table,"a",@progbits
 106              	.LLSDA42:
 107 0000 FF       		.byte	0xff
 108 0001 FF       		.byte	0xff
 109 0002 03       		.byte	0x3
 110 0003 00       		.byte	0
 111              		.text
 113              		.align	2
 114              		.globl	_ZN3TCBdaEPv
 116              	_ZN3TCBdaEPv:
 117              	.LFB43:
  25:src/tcb.cpp   **** 
  26:src/tcb.cpp   **** void TCB::operator delete[](void *p) noexcept
  27:src/tcb.cpp   **** {
 118              		.loc 1 27 1 is_stmt 1
 119              		.cfi_startproc
 120              		.cfi_personality 0x9b,DW.ref.__gxx_personality_v0
 121              		.cfi_lsda 0x1b,.LLSDA43
 122              	.LVL6:
 123 0078 130101FF 		addi	sp,sp,-16
 124              		.cfi_def_cfa_offset 16
 125 007c 23341100 		sd	ra,8(sp)
 126 0080 23308100 		sd	s0,0(sp)
 127              		.cfi_offset 1, -8
 128              		.cfi_offset 8, -16
 129 0084 13040101 		addi	s0,sp,16
 130              		.cfi_def_cfa 8, 0
  28:src/tcb.cpp   ****     MemoryAllocator::mem_free(p);
 131              		.loc 1 28 5
 132              		.loc 1 28 30 is_stmt 0
 133 0088 97000000 		call	_ZN15MemoryAllocator8mem_freeEPKv@plt
 133      E7800000 
 134              	.LVL7:
  29:src/tcb.cpp   **** }
 135              		.loc 1 29 1
 136 0090 83308100 		ld	ra,8(sp)
 137              		.cfi_restore 1
 138 0094 03340100 		ld	s0,0(sp)
 139              		.cfi_restore 8
 140              		.cfi_def_cfa 2, 16
 141 0098 13010101 		addi	sp,sp,16
 142              		.cfi_def_cfa_offset 0
 143 009c 67800000 		jr	ra
 144              		.cfi_endproc
 145              	.LFE43:
GAS LISTING /tmp/ccO8ELOo.s 			page 4


 146              		.section	.gcc_except_table
 147              	.LLSDA43:
 148 0004 FF       		.byte	0xff
 149 0005 FF       		.byte	0xff
 150 0006 03       		.byte	0x3
 151 0007 00       		.byte	0
 152              		.text
 154              		.align	2
 155              		.globl	_ZN3TCB5yieldEv
 157              	_ZN3TCB5yieldEv:
 158              	.LFB44:
  30:src/tcb.cpp   **** 
  31:src/tcb.cpp   **** void TCB::yield(){
 159              		.loc 1 31 18 is_stmt 1
 160              		.cfi_startproc
 161 00a0 130101FF 		addi	sp,sp,-16
 162              		.cfi_def_cfa_offset 16
 163 00a4 23348100 		sd	s0,8(sp)
 164              		.cfi_offset 8, -8
 165 00a8 13040101 		addi	s0,sp,16
 166              		.cfi_def_cfa 8, 0
  32:src/tcb.cpp   ****     __asm__ volatile("li a0, 0x13");
 167              		.loc 1 32 5
 168              		.loc 1 32 36 is_stmt 0
 169              	#APP
 170              	# 32 "src/tcb.cpp" 1
  33              	    __asm__ volatile("ecall");
 171              		li a0, 0x13
 172              	# 0 "" 2
 173              		.loc 1 33 5 is_stmt 1
 174              		.loc 1 33 30 is_stmt 0
 175              	# 33 "src/tcb.cpp" 1
  34              	}
 176              		ecall
 177              	# 0 "" 2
 178              		.loc 1 34 1
 179              	#NO_APP
 180 00b4 03348100 		ld	s0,8(sp)
 181              		.cfi_restore 8
 182              		.cfi_def_cfa 2, 16
 183 00b8 13010101 		addi	sp,sp,16
 184              		.cfi_def_cfa_offset 0
 185 00bc 67800000 		jr	ra
 186              		.cfi_endproc
 187              	.LFE44:
 189              		.align	2
 190              		.globl	_ZN3TCB13threadWrapperEv
 192              	_ZN3TCB13threadWrapperEv:
 193              	.LFB49:
  35:src/tcb.cpp   **** 
  36:src/tcb.cpp   **** void TCB::dispatch(){
  37:src/tcb.cpp   **** 
  38:src/tcb.cpp   ****     TCB* old= running;
  39:src/tcb.cpp   ****     if(!old->isFinished()){
  40:src/tcb.cpp   ****         Scheduler::put(old);
  41:src/tcb.cpp   ****     }
  42:src/tcb.cpp   ****     running = Scheduler::get();
GAS LISTING /tmp/ccO8ELOo.s 			page 5


  43:src/tcb.cpp   ****     TCB::contextSwitch(&old->context, &running->context);
  44:src/tcb.cpp   **** }
  45:src/tcb.cpp   **** 
  46:src/tcb.cpp   **** TCB *TCB::createThread(Body body) {
  47:src/tcb.cpp   ****     return new TCB(body,TIME_SLICE);
  48:src/tcb.cpp   **** }
  49:src/tcb.cpp   **** 
  50:src/tcb.cpp   **** void TCB::deleteThread(TCB* thread){
  51:src/tcb.cpp   ****     delete thread;
  52:src/tcb.cpp   **** }
  53:src/tcb.cpp   **** 
  54:src/tcb.cpp   **** 
  55:src/tcb.cpp   **** int TCB::exitThread() {
  56:src/tcb.cpp   ****     TCB::running->setFinished(true);
  57:src/tcb.cpp   ****     TCB::yield();
  58:src/tcb.cpp   ****     return 0;
  59:src/tcb.cpp   **** }
  60:src/tcb.cpp   **** 
  61:src/tcb.cpp   **** 
  62:src/tcb.cpp   **** void TCB::threadWrapper() {
 194              		.loc 1 62 27 is_stmt 1
 195              		.cfi_startproc
 196 00c0 130101FE 		addi	sp,sp,-32
 197              		.cfi_def_cfa_offset 32
 198 00c4 233C1100 		sd	ra,24(sp)
 199 00c8 23388100 		sd	s0,16(sp)
 200 00cc 23349100 		sd	s1,8(sp)
 201              		.cfi_offset 1, -8
 202              		.cfi_offset 8, -16
 203              		.cfi_offset 9, -24
 204 00d0 13040102 		addi	s0,sp,32
 205              		.cfi_def_cfa 8, 0
  63:src/tcb.cpp   **** 
  64:src/tcb.cpp   ****     Riscv::popSppSpie();
 206              		.loc 1 64 5
 207              		.loc 1 64 22 is_stmt 0
 208 00d4 97000000 		call	_ZN5Riscv10popSppSpieEv@plt
 208      E7800000 
 209              	.LVL8:
  65:src/tcb.cpp   ****     running->body();
 210              		.loc 1 65 5 is_stmt 1
 211              		.loc 1 65 14 is_stmt 0
 212 00dc 97040000 		lla	s1,.LANCHOR0
 212      93840400 
 213 00e4 83B70400 		ld	a5,0(s1)
 214 00e8 83B70700 		ld	a5,0(a5)
 215              		.loc 1 65 18
 216 00ec E7800700 		jalr	a5
 217              	.LVL9:
  66:src/tcb.cpp   ****     running->setFinished(true);
 218              		.loc 1 66 5 is_stmt 1
 219              		.loc 1 66 25 is_stmt 0
 220 00f0 83B70400 		ld	a5,0(s1)
 221              	.LVL10:
 222              	.LBB11:
 223              	.LBB12:
 224              		.file 2 "src/../h/tcb.hpp"
GAS LISTING /tmp/ccO8ELOo.s 			page 6


   1:src/../h/tcb.hpp **** //
   2:src/../h/tcb.hpp **** // Created by os on 5/19/24.
   3:src/../h/tcb.hpp **** //
   4:src/../h/tcb.hpp **** 
   5:src/../h/tcb.hpp **** #ifndef PROJEKAT_TCB_HPP
   6:src/../h/tcb.hpp **** #define PROJEKAT_TCB_HPP
   7:src/../h/tcb.hpp **** #include "../lib/hw.h"
   8:src/../h/tcb.hpp **** #include "scheduler.hpp"
   9:src/../h/tcb.hpp **** #include "riscv.hpp"
  10:src/../h/tcb.hpp **** class TCB {
  11:src/../h/tcb.hpp **** 
  12:src/../h/tcb.hpp ****     void *operator new(size_t n);
  13:src/../h/tcb.hpp **** 
  14:src/../h/tcb.hpp ****     void *operator new[](size_t n);
  15:src/../h/tcb.hpp **** 
  16:src/../h/tcb.hpp ****     void operator delete(void *p) noexcept;
  17:src/../h/tcb.hpp **** 
  18:src/../h/tcb.hpp ****     void operator delete[](void *p) noexcept;
  19:src/../h/tcb.hpp **** 
  20:src/../h/tcb.hpp **** public:
  21:src/../h/tcb.hpp ****     ~TCB(){TCB::operator delete[](stack);}
  22:src/../h/tcb.hpp ****     bool isFinished() const {return finished;}
  23:src/../h/tcb.hpp ****     void setFinished(bool finished) { TCB::finished = finished;}
 225              		.loc 2 23 39 is_stmt 1
 226              		.loc 2 23 53 is_stmt 0
 227 00f4 13071000 		li	a4,1
 228 00f8 2384E702 		sb	a4,40(a5)
 229              	.LVL11:
 230              	.LBE12:
 231              	.LBE11:
  67:src/tcb.cpp   ****     TCB::yield();
 232              		.loc 1 67 5 is_stmt 1
 233              		.loc 1 67 15 is_stmt 0
 234 00fc 97000000 		call	_ZN3TCB5yieldEv
 234      E7800000 
 235              	.LVL12:
  68:src/tcb.cpp   **** }
 236              		.loc 1 68 1
 237 0104 83308101 		ld	ra,24(sp)
 238              		.cfi_restore 1
 239 0108 03340101 		ld	s0,16(sp)
 240              		.cfi_restore 8
 241              		.cfi_def_cfa 2, 32
 242 010c 83348100 		ld	s1,8(sp)
 243              		.cfi_restore 9
 244 0110 13010102 		addi	sp,sp,32
 245              		.cfi_def_cfa_offset 0
 246 0114 67800000 		jr	ra
 247              		.cfi_endproc
 248              	.LFE49:
 250              		.align	2
 251              		.globl	_ZN3TCB8dispatchEv
 253              	_ZN3TCB8dispatchEv:
 254              	.LFB45:
  36:src/tcb.cpp   **** 
 255              		.loc 1 36 21 is_stmt 1
 256              		.cfi_startproc
GAS LISTING /tmp/ccO8ELOo.s 			page 7


 257 0118 130101FE 		addi	sp,sp,-32
 258              		.cfi_def_cfa_offset 32
 259 011c 233C1100 		sd	ra,24(sp)
 260 0120 23388100 		sd	s0,16(sp)
 261 0124 23349100 		sd	s1,8(sp)
 262              		.cfi_offset 1, -8
 263              		.cfi_offset 8, -16
 264              		.cfi_offset 9, -24
 265 0128 13040102 		addi	s0,sp,32
 266              		.cfi_def_cfa 8, 0
  38:src/tcb.cpp   ****     if(!old->isFinished()){
 267              		.loc 1 38 5
  38:src/tcb.cpp   ****     if(!old->isFinished()){
 268              		.loc 1 38 10 is_stmt 0
 269 012c 97040000 		ld	s1,.LANCHOR0
 269      83B40400 
 270              	.LVL13:
  39:src/tcb.cpp   ****         Scheduler::put(old);
 271              		.loc 1 39 5 is_stmt 1
 272              	.LBB13:
 273              	.LBB14:
  22:src/../h/tcb.hpp ****     void setFinished(bool finished) { TCB::finished = finished;}
 274              		.loc 2 22 30
  22:src/../h/tcb.hpp ****     void setFinished(bool finished) { TCB::finished = finished;}
 275              		.loc 2 22 37 is_stmt 0
 276 0134 83C78402 		lbu	a5,40(s1)
 277              	.LVL14:
 278              	.LBE14:
 279              	.LBE13:
  39:src/tcb.cpp   ****         Scheduler::put(old);
 280              		.loc 1 39 5
 281 0138 638C0702 		beqz	a5,.L16
 282              	.L14:
  42:src/tcb.cpp   ****     TCB::contextSwitch(&old->context, &running->context);
 283              		.loc 1 42 5 is_stmt 1
  42:src/tcb.cpp   ****     TCB::contextSwitch(&old->context, &running->context);
 284              		.loc 1 42 29 is_stmt 0
 285 013c 97000000 		call	_ZN9Scheduler3getEv@plt
 285      E7800000 
 286              	.LVL15:
  42:src/tcb.cpp   ****     TCB::contextSwitch(&old->context, &running->context);
 287              		.loc 1 42 13
 288 0144 97070000 		sd	a0,.LANCHOR0,a5
 288      23B0A700 
  43:src/tcb.cpp   **** }
 289              		.loc 1 43 5 is_stmt 1
  43:src/tcb.cpp   **** }
 290              		.loc 1 43 23 is_stmt 0
 291 014c 93050501 		addi	a1,a0,16
 292 0150 13850401 		addi	a0,s1,16
 293 0154 97000000 		call	_ZN3TCB13contextSwitchEPNS_7ContextES1_@plt
 293      E7800000 
 294              	.LVL16:
  44:src/tcb.cpp   **** 
 295              		.loc 1 44 1
 296 015c 83308101 		ld	ra,24(sp)
 297              		.cfi_remember_state
GAS LISTING /tmp/ccO8ELOo.s 			page 8


 298              		.cfi_restore 1
 299 0160 03340101 		ld	s0,16(sp)
 300              		.cfi_restore 8
 301              		.cfi_def_cfa 2, 32
 302 0164 83348100 		ld	s1,8(sp)
 303              		.cfi_restore 9
 304              	.LVL17:
 305 0168 13010102 		addi	sp,sp,32
 306              		.cfi_def_cfa_offset 0
 307 016c 67800000 		jr	ra
 308              	.LVL18:
 309              	.L16:
 310              		.cfi_restore_state
  40:src/tcb.cpp   ****     }
 311              		.loc 1 40 9 is_stmt 1
  40:src/tcb.cpp   ****     }
 312              		.loc 1 40 23 is_stmt 0
 313 0170 13850400 		mv	a0,s1
 314 0174 97000000 		call	_ZN9Scheduler3putEP3TCB@plt
 314      E7800000 
 315              	.LVL19:
 316 017c 6FF01FFC 		j	.L14
 317              		.cfi_endproc
 318              	.LFE45:
 320              		.align	2
 321              		.globl	_ZN3TCB12createThreadEPFvvE
 323              	_ZN3TCB12createThreadEPFvvE:
 324              	.LFB46:
  46:src/tcb.cpp   ****     return new TCB(body,TIME_SLICE);
 325              		.loc 1 46 35 is_stmt 1
 326              		.cfi_startproc
 327              		.cfi_personality 0x9b,DW.ref.__gxx_personality_v0
 328              		.cfi_lsda 0x1b,.LLSDA46
 329              	.LVL20:
 330 0180 130101FE 		addi	sp,sp,-32
 331              		.cfi_def_cfa_offset 32
 332 0184 233C1100 		sd	ra,24(sp)
 333 0188 23388100 		sd	s0,16(sp)
 334 018c 23349100 		sd	s1,8(sp)
 335 0190 23302101 		sd	s2,0(sp)
 336              		.cfi_offset 1, -8
 337              		.cfi_offset 8, -16
 338              		.cfi_offset 9, -24
 339              		.cfi_offset 18, -32
 340 0194 13040102 		addi	s0,sp,32
 341              		.cfi_def_cfa 8, 0
 342 0198 13090500 		mv	s2,a0
  47:src/tcb.cpp   **** }
 343              		.loc 1 47 5
  47:src/tcb.cpp   **** }
 344              		.loc 1 47 35 is_stmt 0
 345 019c 13050003 		li	a0,48
 346              	.LVL21:
 347              	.LEHB0:
 348 01a0 97000000 		call	_ZN3TCBnwEm
 348      E7800000 
 349              	.LVL22:
GAS LISTING /tmp/ccO8ELOo.s 			page 9


 350              	.LEHE0:
 351 01a8 93040500 		mv	s1,a0
 352              	.LVL23:
 353              	.LBB18:
 354              	.LBB19:
  24:src/../h/tcb.hpp ****     uint64 getTimeSlice() const { return timeSlice; }
  25:src/../h/tcb.hpp **** 
  26:src/../h/tcb.hpp ****     static TCB* running;
  27:src/../h/tcb.hpp ****     using Body = void(*)();
  28:src/../h/tcb.hpp **** 
  29:src/../h/tcb.hpp ****     static TCB *createThread(Body body);
  30:src/../h/tcb.hpp ****     static void deleteThread(TCB *thread);
  31:src/../h/tcb.hpp ****     static int exitThread();
  32:src/../h/tcb.hpp ****     static void yield();
  33:src/../h/tcb.hpp **** 
  34:src/../h/tcb.hpp **** private:
  35:src/../h/tcb.hpp ****     explicit TCB(Body body, uint64 timeSlice): body(body), stack(body != nullptr ? (uint64*)TCB::op
  36:src/../h/tcb.hpp ****     context({
  37:src/../h/tcb.hpp ****             (uint64) &threadWrapper,
  38:src/../h/tcb.hpp ****             stack != nullptr ? (uint64) &stack[STACK_SIZE] : 0
  39:src/../h/tcb.hpp ****                 }),
  40:src/../h/tcb.hpp ****                 timeSlice(timeSlice),
  41:src/../h/tcb.hpp ****                 finished(false)
 355              		.loc 2 41 31
 356 01ac 23302501 		sd	s2,0(a0)
  35:src/../h/tcb.hpp ****     context({
 357              		.loc 2 35 82
 358 01b0 630A0900 		beqz	s2,.L22
  35:src/../h/tcb.hpp ****     context({
 359              		.loc 2 35 112
 360 01b4 13050040 		li	a0,1024
 361              	.LEHB1:
 362 01b8 97000000 		call	_ZN3TCBnaEm
 362      E7800000 
 363              	.LVL24:
 364 01c0 6F008000 		j	.L18
 365              	.L22:
  35:src/../h/tcb.hpp ****     context({
 366              		.loc 2 35 82
 367 01c4 13050000 		li	a0,0
 368              	.L18:
 369              		.loc 2 41 31
 370 01c8 23B4A400 		sd	a0,8(s1)
 371 01cc 97070000 		lla	a5,_ZN3TCB13threadWrapperEv
 371      93870700 
 372 01d4 23B8F400 		sd	a5,16(s1)
  38:src/../h/tcb.hpp ****                 }),
 373              		.loc 2 38 30
 374 01d8 63080502 		beqz	a0,.L23
  38:src/../h/tcb.hpp ****                 }),
 375              		.loc 2 38 41
 376 01dc B7270000 		li	a5,8192
 377 01e0 B307F500 		add	a5,a0,a5
 378              	.L19:
 379              		.loc 2 41 31
 380 01e4 23BCF400 		sd	a5,24(s1)
 381 01e8 93072000 		li	a5,2
GAS LISTING /tmp/ccO8ELOo.s 			page 10


 382 01ec 23B0F402 		sd	a5,32(s1)
 383 01f0 23840402 		sb	zero,40(s1)
  42:src/../h/tcb.hpp ****     {
  43:src/../h/tcb.hpp ****         if(body!= nullptr) Scheduler::put(this);
 384              		.loc 2 43 9 is_stmt 1
 385 01f4 630C0902 		beqz	s2,.L17
 386              		.loc 2 43 28
 387              		.loc 2 43 42 is_stmt 0
 388 01f8 13850400 		mv	a0,s1
 389 01fc 97000000 		call	_ZN9Scheduler3putEP3TCB@plt
 389      E7800000 
 390              	.LVL25:
 391              	.LEHE1:
 392 0204 6F008002 		j	.L17
 393              	.L23:
  38:src/../h/tcb.hpp ****                 }),
 394              		.loc 2 38 30
 395 0208 93070000 		li	a5,0
 396 020c 6FF09FFD 		j	.L19
 397              	.L24:
 398 0210 13090500 		mv	s2,a0
 399              	.LVL26:
 400              	.LBE19:
 401              	.LBE18:
  47:src/tcb.cpp   **** }
 402              		.loc 1 47 35
 403 0214 13850400 		mv	a0,s1
 404 0218 97000000 		call	_ZN3TCBdlEPv
 404      E7800000 
 405              	.LVL27:
 406 0220 13050900 		mv	a0,s2
 407              	.LEHB2:
 408 0224 97000000 		call	_Unwind_Resume@plt
 408      E7800000 
 409              	.LVL28:
 410              	.LEHE2:
 411              	.L17:
  48:src/tcb.cpp   **** 
 412              		.loc 1 48 1
 413 022c 13850400 		mv	a0,s1
 414 0230 83308101 		ld	ra,24(sp)
 415              		.cfi_restore 1
 416 0234 03340101 		ld	s0,16(sp)
 417              		.cfi_restore 8
 418              		.cfi_def_cfa 2, 32
 419 0238 83348100 		ld	s1,8(sp)
 420              		.cfi_restore 9
 421              	.LVL29:
 422 023c 03390100 		ld	s2,0(sp)
 423              		.cfi_restore 18
 424              	.LVL30:
 425 0240 13010102 		addi	sp,sp,32
 426              		.cfi_def_cfa_offset 0
 427 0244 67800000 		jr	ra
 428              		.cfi_endproc
 429              	.LFE46:
 430              		.section	.gcc_except_table
GAS LISTING /tmp/ccO8ELOo.s 			page 11


 431              	.LLSDA46:
 432 0008 FF       		.byte	0xff
 433 0009 FF       		.byte	0xff
 434 000a 03       		.byte	0x3
 435 000b 27       		.byte	0x27
 436 000c 00000000 		.4byte	.LEHB0-.LFB46
 437 0010 00000000 		.4byte	.LEHE0-.LEHB0
 438 0014 00000000 		.4byte	0
 439 0018 00       		.byte	0
 440 0019 00000000 		.4byte	.LEHB1-.LFB46
 441 001d 00000000 		.4byte	.LEHE1-.LEHB1
 442 0021 00000000 		.4byte	.L24-.LFB46
 443 0025 00       		.byte	0
 444 0026 00000000 		.4byte	.LEHB2-.LFB46
 445 002a 00000000 		.4byte	.LEHE2-.LEHB2
 446 002e 00000000 		.4byte	0
 447 0032 00       		.byte	0
 448              		.text
 450              		.align	2
 451              		.globl	_ZN3TCB12deleteThreadEPS_
 453              	_ZN3TCB12deleteThreadEPS_:
 454              	.LFB47:
  50:src/tcb.cpp   ****     delete thread;
 455              		.loc 1 50 36 is_stmt 1
 456              		.cfi_startproc
 457              	.LVL31:
  51:src/tcb.cpp   **** }
 458              		.loc 1 51 5
  51:src/tcb.cpp   **** }
 459              		.loc 1 51 18 is_stmt 0
 460 0248 63040504 		beqz	a0,.L29
  50:src/tcb.cpp   ****     delete thread;
 461              		.loc 1 50 36
 462 024c 130101FE 		addi	sp,sp,-32
 463              		.cfi_def_cfa_offset 32
 464 0250 233C1100 		sd	ra,24(sp)
 465 0254 23388100 		sd	s0,16(sp)
 466 0258 23349100 		sd	s1,8(sp)
 467              		.cfi_offset 1, -8
 468              		.cfi_offset 8, -16
 469              		.cfi_offset 9, -24
 470 025c 13040102 		addi	s0,sp,32
 471              		.cfi_def_cfa 8, 0
 472 0260 93040500 		mv	s1,a0
 473              	.LVL32:
 474              	.LBB20:
 475              	.LBB21:
  21:src/../h/tcb.hpp ****     bool isFinished() const {return finished;}
 476              		.loc 2 21 12 is_stmt 1
  21:src/../h/tcb.hpp ****     bool isFinished() const {return finished;}
 477              		.loc 2 21 34 is_stmt 0
 478 0264 03358500 		ld	a0,8(a0)
 479              	.LVL33:
 480 0268 97000000 		call	_ZN3TCBdaEPv
 480      E7800000 
 481              	.LVL34:
 482              	.LBE21:
GAS LISTING /tmp/ccO8ELOo.s 			page 12


 483              	.LBE20:
  51:src/tcb.cpp   **** }
 484              		.loc 1 51 12
 485 0270 13850400 		mv	a0,s1
 486 0274 97000000 		call	_ZN3TCBdlEPv
 486      E7800000 
 487              	.LVL35:
  52:src/tcb.cpp   **** 
 488              		.loc 1 52 1
 489 027c 83308101 		ld	ra,24(sp)
 490              		.cfi_restore 1
 491 0280 03340101 		ld	s0,16(sp)
 492              		.cfi_restore 8
 493              		.cfi_def_cfa 2, 32
 494 0284 83348100 		ld	s1,8(sp)
 495              		.cfi_restore 9
 496              	.LVL36:
 497 0288 13010102 		addi	sp,sp,32
 498              		.cfi_def_cfa_offset 0
 499 028c 67800000 		jr	ra
 500              	.LVL37:
 501              	.L29:
 502 0290 67800000 		ret
 503              		.cfi_endproc
 504              	.LFE47:
 506              		.align	2
 507              		.globl	_ZN3TCB10exitThreadEv
 509              	_ZN3TCB10exitThreadEv:
 510              	.LFB48:
  55:src/tcb.cpp   ****     TCB::running->setFinished(true);
 511              		.loc 1 55 23 is_stmt 1
 512              		.cfi_startproc
 513 0294 130101FF 		addi	sp,sp,-16
 514              		.cfi_def_cfa_offset 16
 515 0298 23341100 		sd	ra,8(sp)
 516 029c 23308100 		sd	s0,0(sp)
 517              		.cfi_offset 1, -8
 518              		.cfi_offset 8, -16
 519 02a0 13040101 		addi	s0,sp,16
 520              		.cfi_def_cfa 8, 0
  56:src/tcb.cpp   ****     TCB::yield();
 521              		.loc 1 56 5
 522              	.LVL38:
 523              	.LBB22:
 524              	.LBB23:
  23:src/../h/tcb.hpp ****     uint64 getTimeSlice() const { return timeSlice; }
 525              		.loc 2 23 39
  23:src/../h/tcb.hpp ****     uint64 getTimeSlice() const { return timeSlice; }
 526              		.loc 2 23 53 is_stmt 0
 527 02a4 97070000 		ld	a5,.LANCHOR0
 527      83B70700 
 528 02ac 13071000 		li	a4,1
 529 02b0 2384E702 		sb	a4,40(a5)
 530              	.LVL39:
 531              	.LBE23:
 532              	.LBE22:
  57:src/tcb.cpp   ****     return 0;
GAS LISTING /tmp/ccO8ELOo.s 			page 13


 533              		.loc 1 57 5 is_stmt 1
  57:src/tcb.cpp   ****     return 0;
 534              		.loc 1 57 15 is_stmt 0
 535 02b4 97000000 		call	_ZN3TCB5yieldEv
 535      E7800000 
 536              	.LVL40:
  58:src/tcb.cpp   **** }
 537              		.loc 1 58 5 is_stmt 1
  59:src/tcb.cpp   **** 
 538              		.loc 1 59 1 is_stmt 0
 539 02bc 13050000 		li	a0,0
 540 02c0 83308100 		ld	ra,8(sp)
 541              		.cfi_restore 1
 542 02c4 03340100 		ld	s0,0(sp)
 543              		.cfi_restore 8
 544              		.cfi_def_cfa 2, 16
 545 02c8 13010101 		addi	sp,sp,16
 546              		.cfi_def_cfa_offset 0
 547 02cc 67800000 		jr	ra
 548              		.cfi_endproc
 549              	.LFE48:
 551              		.globl	_ZN3TCB16timeSliceCounterE
 552              		.globl	_ZN3TCB7runningE
 553              		.bss
 554              		.align	3
 555              		.set	.LANCHOR0,. + 0
 558              	_ZN3TCB7runningE:
 559 0000 00000000 		.zero	8
 559      00000000 
 562              	_ZN3TCB16timeSliceCounterE:
 563 0008 00000000 		.zero	8
 563      00000000 
 564              		.text
 565              	.Letext0:
 566              		.file 3 "src/../h/../lib/hw.h"
 567              		.file 4 "src/../h/MemoryAllocator.hpp"
 568              		.file 5 "src/../h/scheduler.hpp"
 569              		.file 6 "src/../h/riscv.hpp"
 3281              		.align	3
 3284              	DW.ref.__gxx_personality_v0:
 3285 0000 00000000 		.dword	__gxx_personality_v0
 3285      00000000 
 3286              		.ident	"GCC: (Ubuntu 9.3.0-17ubuntu1~20.04) 9.3.0"
 3287              		.section	.note.GNU-stack,"",@progbits
GAS LISTING /tmp/ccO8ELOo.s 			page 14


DEFINED SYMBOLS
                            *ABS*:0000000000000000 tcb.cpp
     /tmp/ccO8ELOo.s:9      .text:0000000000000000 _ZN3TCBnwEm
     /tmp/ccO8ELOo.s:13     .text:0000000000000000 .L0 
     /tmp/ccO8ELOo.s:15     .text:0000000000000000 .L0 
     /tmp/ccO8ELOo.s:16     .text:0000000000000004 .L0 
     /tmp/ccO8ELOo.s:19     .text:000000000000000c .L0 
     /tmp/ccO8ELOo.s:20     .text:000000000000000c .L0 
     /tmp/ccO8ELOo.s:22     .text:0000000000000010 .L0 
     /tmp/ccO8ELOo.s:24     .text:0000000000000010 .L0 
     /tmp/ccO8ELOo.s:25     .text:0000000000000010 .L0 
     /tmp/ccO8ELOo.s:28     .text:0000000000000018 .L0 
     /tmp/ccO8ELOo.s:29     .text:000000000000001c .L0 
     /tmp/ccO8ELOo.s:31     .text:0000000000000020 .L0 
     /tmp/ccO8ELOo.s:32     .text:0000000000000020 .L0 
     /tmp/ccO8ELOo.s:34     .text:0000000000000024 .L0 
     /tmp/ccO8ELOo.s:36     .text:0000000000000028 .L0 
     /tmp/ccO8ELOo.s:42     .text:0000000000000028 _ZN3TCBnaEm
     /tmp/ccO8ELOo.s:45     .text:0000000000000028 .L0 
     /tmp/ccO8ELOo.s:47     .text:0000000000000028 .L0 
     /tmp/ccO8ELOo.s:48     .text:000000000000002c .L0 
     /tmp/ccO8ELOo.s:51     .text:0000000000000034 .L0 
     /tmp/ccO8ELOo.s:52     .text:0000000000000034 .L0 
     /tmp/ccO8ELOo.s:54     .text:0000000000000038 .L0 
     /tmp/ccO8ELOo.s:56     .text:0000000000000038 .L0 
     /tmp/ccO8ELOo.s:57     .text:0000000000000038 .L0 
     /tmp/ccO8ELOo.s:60     .text:0000000000000040 .L0 
     /tmp/ccO8ELOo.s:61     .text:0000000000000044 .L0 
     /tmp/ccO8ELOo.s:63     .text:0000000000000048 .L0 
     /tmp/ccO8ELOo.s:64     .text:0000000000000048 .L0 
     /tmp/ccO8ELOo.s:66     .text:000000000000004c .L0 
     /tmp/ccO8ELOo.s:68     .text:0000000000000050 .L0 
     /tmp/ccO8ELOo.s:74     .text:0000000000000050 _ZN3TCBdlEPv
     /tmp/ccO8ELOo.s:77     .text:0000000000000050 .L0 
     /tmp/ccO8ELOo.s:3284   .data.rel.local.DW.ref.__gxx_personality_v0:0000000000000000 DW.ref.__gxx_personality_v0
     /tmp/ccO8ELOo.s:81     .text:0000000000000050 .L0 
     /tmp/ccO8ELOo.s:82     .text:0000000000000054 .L0 
     /tmp/ccO8ELOo.s:85     .text:000000000000005c .L0 
     /tmp/ccO8ELOo.s:86     .text:000000000000005c .L0 
     /tmp/ccO8ELOo.s:88     .text:0000000000000060 .L0 
     /tmp/ccO8ELOo.s:90     .text:0000000000000060 .L0 
     /tmp/ccO8ELOo.s:91     .text:0000000000000060 .L0 
     /tmp/ccO8ELOo.s:94     .text:0000000000000068 .L0 
     /tmp/ccO8ELOo.s:95     .text:000000000000006c .L0 
     /tmp/ccO8ELOo.s:97     .text:0000000000000070 .L0 
     /tmp/ccO8ELOo.s:98     .text:0000000000000070 .L0 
     /tmp/ccO8ELOo.s:100    .text:0000000000000074 .L0 
     /tmp/ccO8ELOo.s:102    .text:0000000000000078 .L0 
     /tmp/ccO8ELOo.s:116    .text:0000000000000078 _ZN3TCBdaEPv
     /tmp/ccO8ELOo.s:119    .text:0000000000000078 .L0 
     /tmp/ccO8ELOo.s:123    .text:0000000000000078 .L0 
     /tmp/ccO8ELOo.s:124    .text:000000000000007c .L0 
     /tmp/ccO8ELOo.s:127    .text:0000000000000084 .L0 
     /tmp/ccO8ELOo.s:128    .text:0000000000000084 .L0 
     /tmp/ccO8ELOo.s:130    .text:0000000000000088 .L0 
     /tmp/ccO8ELOo.s:132    .text:0000000000000088 .L0 
     /tmp/ccO8ELOo.s:133    .text:0000000000000088 .L0 
GAS LISTING /tmp/ccO8ELOo.s 			page 15


     /tmp/ccO8ELOo.s:136    .text:0000000000000090 .L0 
     /tmp/ccO8ELOo.s:137    .text:0000000000000094 .L0 
     /tmp/ccO8ELOo.s:139    .text:0000000000000098 .L0 
     /tmp/ccO8ELOo.s:140    .text:0000000000000098 .L0 
     /tmp/ccO8ELOo.s:142    .text:000000000000009c .L0 
     /tmp/ccO8ELOo.s:144    .text:00000000000000a0 .L0 
     /tmp/ccO8ELOo.s:157    .text:00000000000000a0 _ZN3TCB5yieldEv
     /tmp/ccO8ELOo.s:160    .text:00000000000000a0 .L0 
     /tmp/ccO8ELOo.s:161    .text:00000000000000a0 .L0 
     /tmp/ccO8ELOo.s:162    .text:00000000000000a4 .L0 
     /tmp/ccO8ELOo.s:164    .text:00000000000000a8 .L0 
     /tmp/ccO8ELOo.s:166    .text:00000000000000ac .L0 
     /tmp/ccO8ELOo.s:168    .text:00000000000000ac .L0 
         src/tcb.cpp:32     .text:00000000000000ac .L0 
     /tmp/ccO8ELOo.s:174    .text:00000000000000b0 .L0 
         src/tcb.cpp:33     .text:00000000000000b0 .L0 
     /tmp/ccO8ELOo.s:180    .text:00000000000000b4 .L0 
     /tmp/ccO8ELOo.s:181    .text:00000000000000b8 .L0 
     /tmp/ccO8ELOo.s:182    .text:00000000000000b8 .L0 
     /tmp/ccO8ELOo.s:184    .text:00000000000000bc .L0 
     /tmp/ccO8ELOo.s:186    .text:00000000000000c0 .L0 
     /tmp/ccO8ELOo.s:192    .text:00000000000000c0 _ZN3TCB13threadWrapperEv
     /tmp/ccO8ELOo.s:195    .text:00000000000000c0 .L0 
     /tmp/ccO8ELOo.s:196    .text:00000000000000c0 .L0 
     /tmp/ccO8ELOo.s:197    .text:00000000000000c4 .L0 
     /tmp/ccO8ELOo.s:201    .text:00000000000000d0 .L0 
     /tmp/ccO8ELOo.s:202    .text:00000000000000d0 .L0 
     /tmp/ccO8ELOo.s:203    .text:00000000000000d0 .L0 
     /tmp/ccO8ELOo.s:205    .text:00000000000000d4 .L0 
     /tmp/ccO8ELOo.s:207    .text:00000000000000d4 .L0 
     /tmp/ccO8ELOo.s:208    .text:00000000000000d4 .L0 
     /tmp/ccO8ELOo.s:211    .text:00000000000000dc .L0 
     /tmp/ccO8ELOo.s:212    .text:00000000000000dc .L0 
     /tmp/ccO8ELOo.s:216    .text:00000000000000ec .L0 
     /tmp/ccO8ELOo.s:219    .text:00000000000000f0 .L0 
     /tmp/ccO8ELOo.s:220    .text:00000000000000f0 .L0 
     /tmp/ccO8ELOo.s:226    .text:00000000000000f4 .L0 
     /tmp/ccO8ELOo.s:227    .text:00000000000000f4 .L0 
     /tmp/ccO8ELOo.s:233    .text:00000000000000fc .L0 
     /tmp/ccO8ELOo.s:234    .text:00000000000000fc .L0 
     /tmp/ccO8ELOo.s:237    .text:0000000000000104 .L0 
     /tmp/ccO8ELOo.s:238    .text:0000000000000108 .L0 
     /tmp/ccO8ELOo.s:240    .text:000000000000010c .L0 
     /tmp/ccO8ELOo.s:241    .text:000000000000010c .L0 
     /tmp/ccO8ELOo.s:243    .text:0000000000000110 .L0 
     /tmp/ccO8ELOo.s:245    .text:0000000000000114 .L0 
     /tmp/ccO8ELOo.s:247    .text:0000000000000118 .L0 
     /tmp/ccO8ELOo.s:253    .text:0000000000000118 _ZN3TCB8dispatchEv
     /tmp/ccO8ELOo.s:256    .text:0000000000000118 .L0 
     /tmp/ccO8ELOo.s:257    .text:0000000000000118 .L0 
     /tmp/ccO8ELOo.s:258    .text:000000000000011c .L0 
     /tmp/ccO8ELOo.s:262    .text:0000000000000128 .L0 
     /tmp/ccO8ELOo.s:263    .text:0000000000000128 .L0 
     /tmp/ccO8ELOo.s:264    .text:0000000000000128 .L0 
     /tmp/ccO8ELOo.s:266    .text:000000000000012c .L0 
     /tmp/ccO8ELOo.s:268    .text:000000000000012c .L0 
     /tmp/ccO8ELOo.s:269    .text:000000000000012c .L0 
GAS LISTING /tmp/ccO8ELOo.s 			page 16


     /tmp/ccO8ELOo.s:274    .text:0000000000000134 .L0 
     /tmp/ccO8ELOo.s:275    .text:0000000000000134 .L0 
     /tmp/ccO8ELOo.s:276    .text:0000000000000134 .L0 
     /tmp/ccO8ELOo.s:281    .text:0000000000000138 .L0 
     /tmp/ccO8ELOo.s:284    .text:000000000000013c .L0 
     /tmp/ccO8ELOo.s:285    .text:000000000000013c .L0 
     /tmp/ccO8ELOo.s:288    .text:0000000000000144 .L0 
     /tmp/ccO8ELOo.s:290    .text:000000000000014c .L0 
     /tmp/ccO8ELOo.s:291    .text:000000000000014c .L0 
     /tmp/ccO8ELOo.s:296    .text:000000000000015c .L0 
     /tmp/ccO8ELOo.s:297    .text:0000000000000160 .L0 
     /tmp/ccO8ELOo.s:298    .text:0000000000000160 .L0 
     /tmp/ccO8ELOo.s:300    .text:0000000000000164 .L0 
     /tmp/ccO8ELOo.s:301    .text:0000000000000164 .L0 
     /tmp/ccO8ELOo.s:303    .text:0000000000000168 .L0 
     /tmp/ccO8ELOo.s:306    .text:000000000000016c .L0 
     /tmp/ccO8ELOo.s:310    .text:0000000000000170 .L0 
     /tmp/ccO8ELOo.s:312    .text:0000000000000170 .L0 
     /tmp/ccO8ELOo.s:313    .text:0000000000000170 .L0 
     /tmp/ccO8ELOo.s:317    .text:0000000000000180 .L0 
     /tmp/ccO8ELOo.s:323    .text:0000000000000180 _ZN3TCB12createThreadEPFvvE
     /tmp/ccO8ELOo.s:326    .text:0000000000000180 .L0 
     /tmp/ccO8ELOo.s:330    .text:0000000000000180 .L0 
     /tmp/ccO8ELOo.s:331    .text:0000000000000184 .L0 
     /tmp/ccO8ELOo.s:336    .text:0000000000000194 .L0 
     /tmp/ccO8ELOo.s:337    .text:0000000000000194 .L0 
     /tmp/ccO8ELOo.s:338    .text:0000000000000194 .L0 
     /tmp/ccO8ELOo.s:339    .text:0000000000000194 .L0 
     /tmp/ccO8ELOo.s:341    .text:0000000000000198 .L0 
     /tmp/ccO8ELOo.s:344    .text:000000000000019c .L0 
     /tmp/ccO8ELOo.s:345    .text:000000000000019c .L0 
     /tmp/ccO8ELOo.s:356    .text:00000000000001ac .L0 
     /tmp/ccO8ELOo.s:358    .text:00000000000001b0 .L0 
     /tmp/ccO8ELOo.s:360    .text:00000000000001b4 .L0 
     /tmp/ccO8ELOo.s:367    .text:00000000000001c4 .L0 
     /tmp/ccO8ELOo.s:370    .text:00000000000001c8 .L0 
     /tmp/ccO8ELOo.s:374    .text:00000000000001d8 .L0 
     /tmp/ccO8ELOo.s:376    .text:00000000000001dc .L0 
     /tmp/ccO8ELOo.s:380    .text:00000000000001e4 .L0 
     /tmp/ccO8ELOo.s:385    .text:00000000000001f4 .L0 
     /tmp/ccO8ELOo.s:387    .text:00000000000001f8 .L0 
     /tmp/ccO8ELOo.s:388    .text:00000000000001f8 .L0 
     /tmp/ccO8ELOo.s:395    .text:0000000000000208 .L0 
     /tmp/ccO8ELOo.s:403    .text:0000000000000214 .L0 
     /tmp/ccO8ELOo.s:413    .text:000000000000022c .L0 
     /tmp/ccO8ELOo.s:415    .text:0000000000000234 .L0 
     /tmp/ccO8ELOo.s:417    .text:0000000000000238 .L0 
     /tmp/ccO8ELOo.s:418    .text:0000000000000238 .L0 
     /tmp/ccO8ELOo.s:420    .text:000000000000023c .L0 
     /tmp/ccO8ELOo.s:423    .text:0000000000000240 .L0 
     /tmp/ccO8ELOo.s:426    .text:0000000000000244 .L0 
     /tmp/ccO8ELOo.s:428    .text:0000000000000248 .L0 
     /tmp/ccO8ELOo.s:453    .text:0000000000000248 _ZN3TCB12deleteThreadEPS_
     /tmp/ccO8ELOo.s:456    .text:0000000000000248 .L0 
     /tmp/ccO8ELOo.s:458    .text:0000000000000248 .L0 
     /tmp/ccO8ELOo.s:459    .text:0000000000000248 .L0 
     /tmp/ccO8ELOo.s:460    .text:0000000000000248 .L0 
GAS LISTING /tmp/ccO8ELOo.s 			page 17


     /tmp/ccO8ELOo.s:462    .text:000000000000024c .L0 
     /tmp/ccO8ELOo.s:463    .text:0000000000000250 .L0 
     /tmp/ccO8ELOo.s:467    .text:000000000000025c .L0 
     /tmp/ccO8ELOo.s:468    .text:000000000000025c .L0 
     /tmp/ccO8ELOo.s:469    .text:000000000000025c .L0 
     /tmp/ccO8ELOo.s:471    .text:0000000000000260 .L0 
     /tmp/ccO8ELOo.s:477    .text:0000000000000264 .L0 
     /tmp/ccO8ELOo.s:478    .text:0000000000000264 .L0 
     /tmp/ccO8ELOo.s:485    .text:0000000000000270 .L0 
     /tmp/ccO8ELOo.s:489    .text:000000000000027c .L0 
     /tmp/ccO8ELOo.s:490    .text:0000000000000280 .L0 
     /tmp/ccO8ELOo.s:492    .text:0000000000000284 .L0 
     /tmp/ccO8ELOo.s:493    .text:0000000000000284 .L0 
     /tmp/ccO8ELOo.s:495    .text:0000000000000288 .L0 
     /tmp/ccO8ELOo.s:498    .text:000000000000028c .L0 
     /tmp/ccO8ELOo.s:503    .text:0000000000000294 .L0 
     /tmp/ccO8ELOo.s:509    .text:0000000000000294 _ZN3TCB10exitThreadEv
     /tmp/ccO8ELOo.s:512    .text:0000000000000294 .L0 
     /tmp/ccO8ELOo.s:513    .text:0000000000000294 .L0 
     /tmp/ccO8ELOo.s:514    .text:0000000000000298 .L0 
     /tmp/ccO8ELOo.s:517    .text:00000000000002a0 .L0 
     /tmp/ccO8ELOo.s:518    .text:00000000000002a0 .L0 
     /tmp/ccO8ELOo.s:520    .text:00000000000002a4 .L0 
     /tmp/ccO8ELOo.s:525    .text:00000000000002a4 .L0 
     /tmp/ccO8ELOo.s:526    .text:00000000000002a4 .L0 
     /tmp/ccO8ELOo.s:527    .text:00000000000002a4 .L0 
     /tmp/ccO8ELOo.s:534    .text:00000000000002b4 .L0 
     /tmp/ccO8ELOo.s:535    .text:00000000000002b4 .L0 
     /tmp/ccO8ELOo.s:538    .text:00000000000002bc .L0 
     /tmp/ccO8ELOo.s:539    .text:00000000000002bc .L0 
     /tmp/ccO8ELOo.s:541    .text:00000000000002c4 .L0 
     /tmp/ccO8ELOo.s:543    .text:00000000000002c8 .L0 
     /tmp/ccO8ELOo.s:544    .text:00000000000002c8 .L0 
     /tmp/ccO8ELOo.s:546    .text:00000000000002cc .L0 
     /tmp/ccO8ELOo.s:548    .text:00000000000002d0 .L0 
     /tmp/ccO8ELOo.s:562    .bss:0000000000000008 _ZN3TCB16timeSliceCounterE
     /tmp/ccO8ELOo.s:558    .bss:0000000000000000 _ZN3TCB7runningE
     /tmp/ccO8ELOo.s:555    .bss:0000000000000000 .LANCHOR0
     /tmp/ccO8ELOo.s:570    .text:00000000000002d0 .L0 
     /tmp/ccO8ELOo.s:212    .text:00000000000000dc .L0 
     /tmp/ccO8ELOo.s:269    .text:000000000000012c .L0 
     /tmp/ccO8ELOo.s:288    .text:0000000000000144 .L0 
     /tmp/ccO8ELOo.s:371    .text:00000000000001cc .L0 
     /tmp/ccO8ELOo.s:527    .text:00000000000002a4 .L0 
     /tmp/ccO8ELOo.s:309    .text:0000000000000170 .L16
     /tmp/ccO8ELOo.s:282    .text:000000000000013c .L14
     /tmp/ccO8ELOo.s:365    .text:00000000000001c4 .L22
     /tmp/ccO8ELOo.s:368    .text:00000000000001c8 .L18
     /tmp/ccO8ELOo.s:393    .text:0000000000000208 .L23
     /tmp/ccO8ELOo.s:411    .text:000000000000022c .L17
     /tmp/ccO8ELOo.s:378    .text:00000000000001e4 .L19
     /tmp/ccO8ELOo.s:501    .text:0000000000000290 .L29
     /tmp/ccO8ELOo.s:347    .text:00000000000001a0 .LEHB0
     /tmp/ccO8ELOo.s:324    .text:0000000000000180 .LFB46
     /tmp/ccO8ELOo.s:350    .text:00000000000001a8 .LEHE0
     /tmp/ccO8ELOo.s:361    .text:00000000000001b8 .LEHB1
     /tmp/ccO8ELOo.s:391    .text:0000000000000204 .LEHE1
GAS LISTING /tmp/ccO8ELOo.s 			page 18


     /tmp/ccO8ELOo.s:397    .text:0000000000000210 .L24
     /tmp/ccO8ELOo.s:407    .text:0000000000000224 .LEHB2
     /tmp/ccO8ELOo.s:410    .text:000000000000022c .LEHE2
     /tmp/ccO8ELOo.s:1819   .debug_abbrev:0000000000000000 .Ldebug_abbrev0
     /tmp/ccO8ELOo.s:3024   .debug_str:00000000000000b0 .LASF127
     /tmp/ccO8ELOo.s:3132   .debug_str:00000000000004c6 .LASF128
     /tmp/ccO8ELOo.s:3134   .debug_str:00000000000004d2 .LASF129
     /tmp/ccO8ELOo.s:5      .text:0000000000000000 .Ltext0
     /tmp/ccO8ELOo.s:565    .text:00000000000002d0 .Letext0
     /tmp/ccO8ELOo.s:2996   .debug_line:0000000000000000 .Ldebug_line0
     /tmp/ccO8ELOo.s:3150   .debug_str:0000000000000557 .LASF0
     /tmp/ccO8ELOo.s:3162   .debug_str:000000000000058a .LASF1
     /tmp/ccO8ELOo.s:3130   .debug_str:00000000000004b8 .LASF2
     /tmp/ccO8ELOo.s:3104   .debug_str:0000000000000418 .LASF4
     /tmp/ccO8ELOo.s:3204   .debug_str:00000000000006b5 .LASF3
     /tmp/ccO8ELOo.s:3026   .debug_str:0000000000000174 .LASF5
     /tmp/ccO8ELOo.s:3164   .debug_str:000000000000059d .LASF6
     /tmp/ccO8ELOo.s:3148   .debug_str:0000000000000544 .LASF7
     /tmp/ccO8ELOo.s:3242   .debug_str:0000000000000804 .LASF8
     /tmp/ccO8ELOo.s:3088   .debug_str:0000000000000379 .LASF9
     /tmp/ccO8ELOo.s:3178   .debug_str:00000000000005f3 .LASF10
     /tmp/ccO8ELOo.s:3234   .debug_str:00000000000007b5 .LASF11
     /tmp/ccO8ELOo.s:3030   .debug_str:0000000000000180 .LASF12
     /tmp/ccO8ELOo.s:3002   .debug_str:0000000000000029 .LASF13
     /tmp/ccO8ELOo.s:3040   .debug_str:00000000000001e2 .LASF14
     /tmp/ccO8ELOo.s:3196   .debug_str:0000000000000679 .LASF15
     /tmp/ccO8ELOo.s:3048   .debug_str:0000000000000228 .LASF16
     /tmp/ccO8ELOo.s:3146   .debug_str:0000000000000534 .LASF26
     /tmp/ccO8ELOo.s:3072   .debug_str:0000000000000300 .LASF30
     /tmp/ccO8ELOo.s:3236   .debug_str:00000000000007c4 .LASF17
     /tmp/ccO8ELOo.s:3220   .debug_str:0000000000000746 .LASF18
     /tmp/ccO8ELOo.s:3172   .debug_str:00000000000005c7 .LASF19
     /tmp/ccO8ELOo.s:3208   .debug_str:00000000000006d8 .LASF32
     /tmp/ccO8ELOo.s:3238   .debug_str:00000000000007c9 .LASF34
     /tmp/ccO8ELOo.s:3110   .debug_str:000000000000043d .LASF20
     /tmp/ccO8ELOo.s:2998   .debug_str:0000000000000000 .LASF29
     /tmp/ccO8ELOo.s:3054   .debug_str:0000000000000274 .LASF55
     /tmp/ccO8ELOo.s:3246   .debug_str:000000000000081b .LASF21
     /tmp/ccO8ELOo.s:3218   .debug_str:0000000000000725 .LASF23
     /tmp/ccO8ELOo.s:3182   .debug_str:000000000000061e .LASF22
     /tmp/ccO8ELOo.s:3266   .debug_str:00000000000008ab .LASF24
     /tmp/ccO8ELOo.s:3170   .debug_str:00000000000005c2 .LASF57
     /tmp/ccO8ELOo.s:3228   .debug_str:000000000000077b .LASF59
     /tmp/ccO8ELOo.s:3070   .debug_str:00000000000002fb .LASF25
     /tmp/ccO8ELOo.s:3176   .debug_str:00000000000005e9 .LASF27
     /tmp/ccO8ELOo.s:3076   .debug_str:0000000000000315 .LASF28
     /tmp/ccO8ELOo.s:3100   .debug_str:00000000000003dc .LASF130
     /tmp/ccO8ELOo.s:3036   .debug_str:00000000000001c0 .LASF131
     /tmp/ccO8ELOo.s:3126   .debug_str:00000000000004a1 .LASF132
     /tmp/ccO8ELOo.s:3008   .debug_str:000000000000005c .LASF31
     /tmp/ccO8ELOo.s:3252   .debug_str:0000000000000848 .LASF33
     /tmp/ccO8ELOo.s:3022   .debug_str:00000000000000a4 .LASF35
     /tmp/ccO8ELOo.s:3084   .debug_str:0000000000000352 .LASF36
     /tmp/ccO8ELOo.s:3090   .debug_str:0000000000000387 .LASF37
     /tmp/ccO8ELOo.s:3214   .debug_str:0000000000000700 .LASF38
     /tmp/ccO8ELOo.s:3192   .debug_str:0000000000000661 .LASF40
     /tmp/ccO8ELOo.s:3108   .debug_str:000000000000042a .LASF39
GAS LISTING /tmp/ccO8ELOo.s 			page 19


     /tmp/ccO8ELOo.s:3230   .debug_str:0000000000000797 .LASF41
     /tmp/ccO8ELOo.s:3056   .debug_str:000000000000029b .LASF42
     /tmp/ccO8ELOo.s:3186   .debug_str:000000000000063a .LASF43
     /tmp/ccO8ELOo.s:3166   .debug_str:00000000000005b0 .LASF46
     /tmp/ccO8ELOo.s:3086   .debug_str:0000000000000362 .LASF48
     /tmp/ccO8ELOo.s:3136   .debug_str:00000000000004f0 .LASF44
     /tmp/ccO8ELOo.s:3272   .debug_str:00000000000008e0 .LASF45
     /tmp/ccO8ELOo.s:3128   .debug_str:00000000000004ab .LASF47
     /tmp/ccO8ELOo.s:3222   .debug_str:000000000000074b .LASF49
     /tmp/ccO8ELOo.s:3062   .debug_str:00000000000002c4 .LASF133
     /tmp/ccO8ELOo.s:3118   .debug_str:0000000000000463 .LASF50
     /tmp/ccO8ELOo.s:3180   .debug_str:0000000000000602 .LASF51
     /tmp/ccO8ELOo.s:3188   .debug_str:0000000000000646 .LASF134
     /tmp/ccO8ELOo.s:3042   .debug_str:00000000000001ee .LASF52
     /tmp/ccO8ELOo.s:3006   .debug_str:0000000000000042 .LASF53
     /tmp/ccO8ELOo.s:3106   .debug_str:000000000000041f .LASF54
     /tmp/ccO8ELOo.s:3190   .debug_str:000000000000064b .LASF56
     /tmp/ccO8ELOo.s:3198   .debug_str:000000000000068f .LASF58
     /tmp/ccO8ELOo.s:3142   .debug_str:000000000000051e .LASF60
     /tmp/ccO8ELOo.s:3082   .debug_str:0000000000000341 .LASF135
     /tmp/ccO8ELOo.s:3112   .debug_str:000000000000044b .LASF61
     /tmp/ccO8ELOo.s:3156   .debug_str:0000000000000574 .LASF62
     /tmp/ccO8ELOo.s:3116   .debug_str:000000000000045b .LASF63
     /tmp/ccO8ELOo.s:3158   .debug_str:000000000000057a .LASF64
     /tmp/ccO8ELOo.s:3254   .debug_str:0000000000000855 .LASF65
     /tmp/ccO8ELOo.s:3206   .debug_str:00000000000006c7 .LASF66
     /tmp/ccO8ELOo.s:3120   .debug_str:0000000000000470 .LASF67
     /tmp/ccO8ELOo.s:3096   .debug_str:00000000000003c2 .LASF68
     /tmp/ccO8ELOo.s:3122   .debug_str:000000000000047b .LASF69
     /tmp/ccO8ELOo.s:3094   .debug_str:00000000000003a9 .LASF71
     /tmp/ccO8ELOo.s:3154   .debug_str:000000000000056b .LASF70
     /tmp/ccO8ELOo.s:3068   .debug_str:00000000000002e8 .LASF72
     /tmp/ccO8ELOo.s:3250   .debug_str:000000000000083a .LASF136
     /tmp/ccO8ELOo.s:3102   .debug_str:00000000000003f0 .LASF137
     /tmp/ccO8ELOo.s:3160   .debug_str:0000000000000584 .LASF73
     /tmp/ccO8ELOo.s:3194   .debug_str:000000000000066e .LASF74
     /tmp/ccO8ELOo.s:3264   .debug_str:0000000000000893 .LASF75
     /tmp/ccO8ELOo.s:3020   .debug_str:0000000000000096 .LASF76
     /tmp/ccO8ELOo.s:3060   .debug_str:00000000000002a9 .LASF77
     /tmp/ccO8ELOo.s:3074   .debug_str:0000000000000308 .LASF78
     /tmp/ccO8ELOo.s:3000   .debug_str:000000000000000f .LASF79
     /tmp/ccO8ELOo.s:3004   .debug_str:0000000000000039 .LASF80
     /tmp/ccO8ELOo.s:3216   .debug_str:0000000000000710 .LASF81
     /tmp/ccO8ELOo.s:3058   .debug_str:00000000000002a0 .LASF82
     /tmp/ccO8ELOo.s:3044   .debug_str:00000000000001fb .LASF83
     /tmp/ccO8ELOo.s:3140   .debug_str:0000000000000517 .LASF84
     /tmp/ccO8ELOo.s:3184   .debug_str:0000000000000627 .LASF85
     /tmp/ccO8ELOo.s:3244   .debug_str:0000000000000814 .LASF86
     /tmp/ccO8ELOo.s:3240   .debug_str:00000000000007f1 .LASF87
     /tmp/ccO8ELOo.s:3080   .debug_str:0000000000000339 .LASF88
     /tmp/ccO8ELOo.s:3050   .debug_str:000000000000023e .LASF89
     /tmp/ccO8ELOo.s:3200   .debug_str:0000000000000695 .LASF90
     /tmp/ccO8ELOo.s:3210   .debug_str:00000000000006dd .LASF91
     /tmp/ccO8ELOo.s:3064   .debug_str:00000000000002cc .LASF92
     /tmp/ccO8ELOo.s:3032   .debug_str:0000000000000190 .LASF93
     /tmp/ccO8ELOo.s:3270   .debug_str:00000000000008d8 .LASF94
     /tmp/ccO8ELOo.s:3066   .debug_str:00000000000002d4 .LASF95
GAS LISTING /tmp/ccO8ELOo.s 			page 20


     /tmp/ccO8ELOo.s:3152   .debug_str:0000000000000564 .LASF96
     /tmp/ccO8ELOo.s:3260   .debug_str:000000000000087b .LASF97
     /tmp/ccO8ELOo.s:3016   .debug_str:000000000000007e .LASF98
     /tmp/ccO8ELOo.s:3078   .debug_str:0000000000000326 .LASF99
     /tmp/ccO8ELOo.s:3144   .debug_str:000000000000052e .LASF100
     /tmp/ccO8ELOo.s:3226   .debug_str:0000000000000769 .LASF101
     /tmp/ccO8ELOo.s:3014   .debug_str:0000000000000078 .LASF102
     /tmp/ccO8ELOo.s:3276   .debug_str:0000000000000908 .LASF103
     /tmp/ccO8ELOo.s:3268   .debug_str:00000000000008cd .LASF104
     /tmp/ccO8ELOo.s:3202   .debug_str:000000000000069d .LASF105
     /tmp/ccO8ELOo.s:3114   .debug_str:0000000000000450 .LASF106
     /tmp/ccO8ELOo.s:3124   .debug_str:0000000000000489 .LASF107
     /tmp/ccO8ELOo.s:3038   .debug_str:00000000000001d8 .LASF108
     /tmp/ccO8ELOo.s:3174   .debug_str:00000000000005d3 .LASF109
     /tmp/ccO8ELOo.s:3010   .debug_str:0000000000000064 .LASF110
     /tmp/ccO8ELOo.s:3092   .debug_str:0000000000000393 .LASF111
     /tmp/ccO8ELOo.s:3224   .debug_str:0000000000000764 .LASF112
     /tmp/ccO8ELOo.s:3232   .debug_str:00000000000007a4 .LASF113
     /tmp/ccO8ELOo.s:3028   .debug_str:000000000000017b .LASF114
     /tmp/ccO8ELOo.s:3018   .debug_str:0000000000000085 .LASF115
     /tmp/ccO8ELOo.s:3212   .debug_str:00000000000006f1 .LASF116
     /tmp/ccO8ELOo.s:3034   .debug_str:00000000000001a4 .LASF117
     /tmp/ccO8ELOo.s:3248   .debug_str:0000000000000825 .LASF118
     /tmp/ccO8ELOo.s:3052   .debug_str:0000000000000252 .LASF119
     /tmp/ccO8ELOo.s:3274   .debug_str:00000000000008f7 .LASF120
     /tmp/ccO8ELOo.s:3138   .debug_str:00000000000004fc .LASF121
     /tmp/ccO8ELOo.s:193    .text:00000000000000c0 .LFB49
     /tmp/ccO8ELOo.s:248    .text:0000000000000118 .LFE49
     /tmp/ccO8ELOo.s:222    .text:00000000000000f4 .LBB11
     /tmp/ccO8ELOo.s:231    .text:00000000000000fc .LBE11
     /tmp/ccO8ELOo.s:2780   .debug_loc:0000000000000000 .LLST4
     /tmp/ccO8ELOo.s:2788   .debug_loc:0000000000000024 .LLST5
     /tmp/ccO8ELOo.s:209    .text:00000000000000dc .LVL8
     /tmp/ccO8ELOo.s:235    .text:0000000000000104 .LVL12
     /tmp/ccO8ELOo.s:510    .text:0000000000000294 .LFB48
     /tmp/ccO8ELOo.s:549    .text:00000000000002d0 .LFE48
     /tmp/ccO8ELOo.s:523    .text:00000000000002a4 .LBB22
     /tmp/ccO8ELOo.s:532    .text:00000000000002b4 .LBE22
     /tmp/ccO8ELOo.s:2795   .debug_loc:0000000000000047 .LLST13
     /tmp/ccO8ELOo.s:2803   .debug_loc:000000000000006b .LLST14
     /tmp/ccO8ELOo.s:536    .text:00000000000002bc .LVL40
     /tmp/ccO8ELOo.s:454    .text:0000000000000248 .LFB47
     /tmp/ccO8ELOo.s:504    .text:0000000000000294 .LFE47
     /tmp/ccO8ELOo.s:3168   .debug_str:00000000000005bb .LASF122
     /tmp/ccO8ELOo.s:2811   .debug_loc:0000000000000096 .LLST11
     /tmp/ccO8ELOo.s:474    .text:0000000000000264 .LBB20
     /tmp/ccO8ELOo.s:483    .text:0000000000000270 .LBE20
     /tmp/ccO8ELOo.s:2833   .debug_loc:00000000000000f5 .LLST12
     /tmp/ccO8ELOo.s:481    .text:0000000000000270 .LVL34
     /tmp/ccO8ELOo.s:487    .text:000000000000027c .LVL35
     /tmp/ccO8ELOo.s:429    .text:0000000000000248 .LFE46
     /tmp/ccO8ELOo.s:2844   .debug_loc:000000000000012b .LLST8
     /tmp/ccO8ELOo.s:353    .text:00000000000001ac .LBB18
     /tmp/ccO8ELOo.s:401    .text:0000000000000214 .LBE18
     /tmp/ccO8ELOo.s:2873   .debug_loc:00000000000001a0 .LLST9
     /tmp/ccO8ELOo.s:2898   .debug_loc:0000000000000202 .LLST10
     /tmp/ccO8ELOo.s:363    .text:00000000000001c0 .LVL24
GAS LISTING /tmp/ccO8ELOo.s 			page 21


     /tmp/ccO8ELOo.s:390    .text:0000000000000204 .LVL25
     /tmp/ccO8ELOo.s:349    .text:00000000000001a8 .LVL22
     /tmp/ccO8ELOo.s:405    .text:0000000000000220 .LVL27
     /tmp/ccO8ELOo.s:409    .text:000000000000022c .LVL28
     /tmp/ccO8ELOo.s:254    .text:0000000000000118 .LFB45
     /tmp/ccO8ELOo.s:318    .text:0000000000000180 .LFE45
     /tmp/ccO8ELOo.s:2909   .debug_loc:0000000000000238 .LLST6
     /tmp/ccO8ELOo.s:272    .text:0000000000000134 .LBB13
     /tmp/ccO8ELOo.s:279    .text:0000000000000138 .LBE13
     /tmp/ccO8ELOo.s:2920   .debug_loc:000000000000026e .LLST7
     /tmp/ccO8ELOo.s:286    .text:0000000000000144 .LVL15
     /tmp/ccO8ELOo.s:294    .text:000000000000015c .LVL16
     /tmp/ccO8ELOo.s:315    .text:000000000000017c .LVL19
     /tmp/ccO8ELOo.s:158    .text:00000000000000a0 .LFB44
     /tmp/ccO8ELOo.s:187    .text:00000000000000c0 .LFE44
     /tmp/ccO8ELOo.s:117    .text:0000000000000078 .LFB43
     /tmp/ccO8ELOo.s:145    .text:00000000000000a0 .LFE43
     /tmp/ccO8ELOo.s:2927   .debug_loc:0000000000000291 .LLST3
     /tmp/ccO8ELOo.s:134    .text:0000000000000090 .LVL7
     /tmp/ccO8ELOo.s:75     .text:0000000000000050 .LFB42
     /tmp/ccO8ELOo.s:103    .text:0000000000000078 .LFE42
     /tmp/ccO8ELOo.s:2941   .debug_loc:00000000000002ca .LLST2
     /tmp/ccO8ELOo.s:92     .text:0000000000000068 .LVL5
     /tmp/ccO8ELOo.s:43     .text:0000000000000028 .LFB41
     /tmp/ccO8ELOo.s:69     .text:0000000000000050 .LFE41
     /tmp/ccO8ELOo.s:2955   .debug_loc:0000000000000303 .LLST1
     /tmp/ccO8ELOo.s:58     .text:0000000000000040 .LVL3
     /tmp/ccO8ELOo.s:10     .text:0000000000000000 .LFB40
     /tmp/ccO8ELOo.s:37     .text:0000000000000028 .LFE40
     /tmp/ccO8ELOo.s:2969   .debug_loc:000000000000033c .LLST0
     /tmp/ccO8ELOo.s:26     .text:0000000000000018 .LVL1
     /tmp/ccO8ELOo.s:3262   .debug_str:000000000000088e .LASF123
     /tmp/ccO8ELOo.s:3258   .debug_str:000000000000086a .LASF125
     /tmp/ccO8ELOo.s:3012   .debug_str:000000000000006e .LASF124
     /tmp/ccO8ELOo.s:3256   .debug_str:000000000000085e .LASF126
     /tmp/ccO8ELOo.s:3098   .debug_str:00000000000003cd .LASF138
     /tmp/ccO8ELOo.s:3046   .debug_str:0000000000000210 .LASF139
     /tmp/ccO8ELOo.s:221    .text:00000000000000f4 .LVL10
     /tmp/ccO8ELOo.s:229    .text:00000000000000fc .LVL11
     /tmp/ccO8ELOo.s:522    .text:00000000000002a4 .LVL38
     /tmp/ccO8ELOo.s:530    .text:00000000000002b4 .LVL39
     /tmp/ccO8ELOo.s:457    .text:0000000000000248 .LVL31
     /tmp/ccO8ELOo.s:479    .text:0000000000000268 .LVL33
     /tmp/ccO8ELOo.s:496    .text:0000000000000288 .LVL36
     /tmp/ccO8ELOo.s:500    .text:0000000000000290 .LVL37
     /tmp/ccO8ELOo.s:473    .text:0000000000000264 .LVL32
     /tmp/ccO8ELOo.s:329    .text:0000000000000180 .LVL20
     /tmp/ccO8ELOo.s:346    .text:00000000000001a0 .LVL21
     /tmp/ccO8ELOo.s:399    .text:0000000000000214 .LVL26
     /tmp/ccO8ELOo.s:424    .text:0000000000000240 .LVL30
     /tmp/ccO8ELOo.s:352    .text:00000000000001ac .LVL23
     /tmp/ccO8ELOo.s:421    .text:000000000000023c .LVL29
     /tmp/ccO8ELOo.s:270    .text:0000000000000134 .LVL13
     /tmp/ccO8ELOo.s:304    .text:0000000000000168 .LVL17
     /tmp/ccO8ELOo.s:308    .text:0000000000000170 .LVL18
     /tmp/ccO8ELOo.s:277    .text:0000000000000138 .LVL14
     /tmp/ccO8ELOo.s:122    .text:0000000000000078 .LVL6
GAS LISTING /tmp/ccO8ELOo.s 			page 22


     /tmp/ccO8ELOo.s:80     .text:0000000000000050 .LVL4
     /tmp/ccO8ELOo.s:46     .text:0000000000000028 .LVL2
     /tmp/ccO8ELOo.s:14     .text:0000000000000000 .LVL0
     /tmp/ccO8ELOo.s:571    .debug_info:0000000000000000 .Ldebug_info0
     /tmp/ccO8ELOo.s:106    .gcc_except_table:0000000000000000 .LLSDA42
     /tmp/ccO8ELOo.s:147    .gcc_except_table:0000000000000004 .LLSDA43
     /tmp/ccO8ELOo.s:431    .gcc_except_table:0000000000000008 .LLSDA46

UNDEFINED SYMBOLS
_ZN15MemoryAllocator9mem_allocEm
_ZN15MemoryAllocator8mem_freeEPKv
__gxx_personality_v0
_ZN5Riscv10popSppSpieEv
_ZN9Scheduler3getEv
_ZN3TCB13contextSwitchEPNS_7ContextES1_
_ZN9Scheduler3putEP3TCB
_Unwind_Resume
