GAS LISTING /tmp/ccx9SuF0.s 			page 1


   1              		.file	"tcb.cpp"
   2              		.option pic
   3              		.option norelax
   4              		.text
   5              	.Ltext0:
   6              		.align	2
   7              		.globl	_ZN3TCBnwEm
   9              	_ZN3TCBnwEm:
  10              	.LFB40:
  11              		.file 1 "src/tcb.cpp"
   1:src/tcb.cpp   **** //
   2:src/tcb.cpp   **** // Created by os on 5/19/24.
   3:src/tcb.cpp   **** //
   4:src/tcb.cpp   **** 
   5:src/tcb.cpp   **** #include "../h/tcb.hpp"
   6:src/tcb.cpp   **** 
   7:src/tcb.cpp   **** 
   8:src/tcb.cpp   **** TCB *TCB::running = nullptr;
   9:src/tcb.cpp   **** uint64 TCB::timeSliceCounter = 0;
  10:src/tcb.cpp   **** 
  11:src/tcb.cpp   **** void *TCB::operator new(size_t n)
  12:src/tcb.cpp   **** {
  12              		.loc 1 12 1
  13              		.cfi_startproc
  14              	.LVL0:
  15 0000 130101FF 		addi	sp,sp,-16
  16              		.cfi_def_cfa_offset 16
  17 0004 23341100 		sd	ra,8(sp)
  18 0008 23308100 		sd	s0,0(sp)
  19              		.cfi_offset 1, -8
  20              		.cfi_offset 8, -16
  21 000c 13040101 		addi	s0,sp,16
  22              		.cfi_def_cfa 8, 0
  13:src/tcb.cpp   ****     return MemoryAllocator::mem_alloc(n);
  23              		.loc 1 13 5
  24              		.loc 1 13 38 is_stmt 0
  25 0010 97000000 		call	_ZN15MemoryAllocator9mem_allocEm@plt
  25      E7800000 
  26              	.LVL1:
  14:src/tcb.cpp   **** }
  27              		.loc 1 14 1
  28 0018 83308100 		ld	ra,8(sp)
  29              		.cfi_restore 1
  30 001c 03340100 		ld	s0,0(sp)
  31              		.cfi_restore 8
  32              		.cfi_def_cfa 2, 16
  33 0020 13010101 		addi	sp,sp,16
  34              		.cfi_def_cfa_offset 0
  35 0024 67800000 		jr	ra
  36              		.cfi_endproc
  37              	.LFE40:
  39              		.align	2
  40              		.globl	_ZN3TCBnaEm
  42              	_ZN3TCBnaEm:
  43              	.LFB41:
  15:src/tcb.cpp   **** 
  16:src/tcb.cpp   **** void *TCB::operator new[](size_t n)
GAS LISTING /tmp/ccx9SuF0.s 			page 2


  17:src/tcb.cpp   **** {
  44              		.loc 1 17 1 is_stmt 1
  45              		.cfi_startproc
  46              	.LVL2:
  47 0028 130101FF 		addi	sp,sp,-16
  48              		.cfi_def_cfa_offset 16
  49 002c 23341100 		sd	ra,8(sp)
  50 0030 23308100 		sd	s0,0(sp)
  51              		.cfi_offset 1, -8
  52              		.cfi_offset 8, -16
  53 0034 13040101 		addi	s0,sp,16
  54              		.cfi_def_cfa 8, 0
  18:src/tcb.cpp   ****     return MemoryAllocator::mem_alloc(n);
  55              		.loc 1 18 5
  56              		.loc 1 18 38 is_stmt 0
  57 0038 97000000 		call	_ZN15MemoryAllocator9mem_allocEm@plt
  57      E7800000 
  58              	.LVL3:
  19:src/tcb.cpp   **** }
  59              		.loc 1 19 1
  60 0040 83308100 		ld	ra,8(sp)
  61              		.cfi_restore 1
  62 0044 03340100 		ld	s0,0(sp)
  63              		.cfi_restore 8
  64              		.cfi_def_cfa 2, 16
  65 0048 13010101 		addi	sp,sp,16
  66              		.cfi_def_cfa_offset 0
  67 004c 67800000 		jr	ra
  68              		.cfi_endproc
  69              	.LFE41:
  71              		.align	2
  72              		.globl	_ZN3TCBdlEPv
  74              	_ZN3TCBdlEPv:
  75              	.LFB42:
  20:src/tcb.cpp   **** 
  21:src/tcb.cpp   **** void TCB::operator delete(void *p) noexcept
  22:src/tcb.cpp   **** {
  76              		.loc 1 22 1 is_stmt 1
  77              		.cfi_startproc
  78              		.cfi_personality 0x9b,DW.ref.__gxx_personality_v0
  79              		.cfi_lsda 0x1b,.LLSDA42
  80              	.LVL4:
  81 0050 130101FF 		addi	sp,sp,-16
  82              		.cfi_def_cfa_offset 16
  83 0054 23341100 		sd	ra,8(sp)
  84 0058 23308100 		sd	s0,0(sp)
  85              		.cfi_offset 1, -8
  86              		.cfi_offset 8, -16
  87 005c 13040101 		addi	s0,sp,16
  88              		.cfi_def_cfa 8, 0
  23:src/tcb.cpp   ****     MemoryAllocator::mem_free(p);
  89              		.loc 1 23 5
  90              		.loc 1 23 30 is_stmt 0
  91 0060 97000000 		call	_ZN15MemoryAllocator8mem_freeEPKv@plt
  91      E7800000 
  92              	.LVL5:
  24:src/tcb.cpp   **** }
GAS LISTING /tmp/ccx9SuF0.s 			page 3


  93              		.loc 1 24 1
  94 0068 83308100 		ld	ra,8(sp)
  95              		.cfi_restore 1
  96 006c 03340100 		ld	s0,0(sp)
  97              		.cfi_restore 8
  98              		.cfi_def_cfa 2, 16
  99 0070 13010101 		addi	sp,sp,16
 100              		.cfi_def_cfa_offset 0
 101 0074 67800000 		jr	ra
 102              		.cfi_endproc
 103              	.LFE42:
 104              		.globl	__gxx_personality_v0
 105              		.section	.gcc_except_table,"a",@progbits
 106              	.LLSDA42:
 107 0000 FF       		.byte	0xff
 108 0001 FF       		.byte	0xff
 109 0002 03       		.byte	0x3
 110 0003 00       		.byte	0
 111              		.text
 113              		.align	2
 114              		.globl	_ZN3TCBdaEPv
 116              	_ZN3TCBdaEPv:
 117              	.LFB43:
  25:src/tcb.cpp   **** 
  26:src/tcb.cpp   **** void TCB::operator delete[](void *p) noexcept
  27:src/tcb.cpp   **** {
 118              		.loc 1 27 1 is_stmt 1
 119              		.cfi_startproc
 120              		.cfi_personality 0x9b,DW.ref.__gxx_personality_v0
 121              		.cfi_lsda 0x1b,.LLSDA43
 122              	.LVL6:
 123 0078 130101FF 		addi	sp,sp,-16
 124              		.cfi_def_cfa_offset 16
 125 007c 23341100 		sd	ra,8(sp)
 126 0080 23308100 		sd	s0,0(sp)
 127              		.cfi_offset 1, -8
 128              		.cfi_offset 8, -16
 129 0084 13040101 		addi	s0,sp,16
 130              		.cfi_def_cfa 8, 0
  28:src/tcb.cpp   ****     MemoryAllocator::mem_free(p);
 131              		.loc 1 28 5
 132              		.loc 1 28 30 is_stmt 0
 133 0088 97000000 		call	_ZN15MemoryAllocator8mem_freeEPKv@plt
 133      E7800000 
 134              	.LVL7:
  29:src/tcb.cpp   **** }
 135              		.loc 1 29 1
 136 0090 83308100 		ld	ra,8(sp)
 137              		.cfi_restore 1
 138 0094 03340100 		ld	s0,0(sp)
 139              		.cfi_restore 8
 140              		.cfi_def_cfa 2, 16
 141 0098 13010101 		addi	sp,sp,16
 142              		.cfi_def_cfa_offset 0
 143 009c 67800000 		jr	ra
 144              		.cfi_endproc
 145              	.LFE43:
GAS LISTING /tmp/ccx9SuF0.s 			page 4


 146              		.section	.gcc_except_table
 147              	.LLSDA43:
 148 0004 FF       		.byte	0xff
 149 0005 FF       		.byte	0xff
 150 0006 03       		.byte	0x3
 151 0007 00       		.byte	0
 152              		.text
 154              		.align	2
 155              		.globl	_ZN3TCB5yieldEv
 157              	_ZN3TCB5yieldEv:
 158              	.LFB44:
  30:src/tcb.cpp   **** 
  31:src/tcb.cpp   **** void TCB::yield(){
 159              		.loc 1 31 18 is_stmt 1
 160              		.cfi_startproc
 161 00a0 130101FF 		addi	sp,sp,-16
 162              		.cfi_def_cfa_offset 16
 163 00a4 23348100 		sd	s0,8(sp)
 164              		.cfi_offset 8, -8
 165 00a8 13040101 		addi	s0,sp,16
 166              		.cfi_def_cfa 8, 0
  32:src/tcb.cpp   ****     __asm__ volatile("li a0, 0x13");
 167              		.loc 1 32 5
 168              		.loc 1 32 36 is_stmt 0
 169              	#APP
 170              	# 32 "src/tcb.cpp" 1
  33              	    __asm__ volatile("ecall");
 171              		li a0, 0x13
 172              	# 0 "" 2
 173              		.loc 1 33 5 is_stmt 1
 174              		.loc 1 33 30 is_stmt 0
 175              	# 33 "src/tcb.cpp" 1
  34              	}
 176              		ecall
 177              	# 0 "" 2
 178              		.loc 1 34 1
 179              	#NO_APP
 180 00b4 03348100 		ld	s0,8(sp)
 181              		.cfi_restore 8
 182              		.cfi_def_cfa 2, 16
 183 00b8 13010101 		addi	sp,sp,16
 184              		.cfi_def_cfa_offset 0
 185 00bc 67800000 		jr	ra
 186              		.cfi_endproc
 187              	.LFE44:
 189              		.align	2
 190              		.globl	_ZN3TCB13threadWrapperEv
 192              	_ZN3TCB13threadWrapperEv:
 193              	.LFB49:
  35:src/tcb.cpp   **** 
  36:src/tcb.cpp   **** void TCB::dispatch(){
  37:src/tcb.cpp   **** 
  38:src/tcb.cpp   ****     TCB* old= running;
  39:src/tcb.cpp   ****     if(!old->isFinished() && !old->blocked){
  40:src/tcb.cpp   ****         Scheduler::put(old);
  41:src/tcb.cpp   ****     }
  42:src/tcb.cpp   ****     running = Scheduler::get();
GAS LISTING /tmp/ccx9SuF0.s 			page 5


  43:src/tcb.cpp   ****     TCB::contextSwitch(&old->context, &running->context);
  44:src/tcb.cpp   **** }
  45:src/tcb.cpp   **** 
  46:src/tcb.cpp   **** TCB *TCB::createThread(Body body, void * argument, void*stek) {
  47:src/tcb.cpp   ****     return new TCB(body,DEFAULT_TIME_SLICE, argument, stek);
  48:src/tcb.cpp   **** }
  49:src/tcb.cpp   **** 
  50:src/tcb.cpp   **** void TCB::deleteThread(TCB* thread){
  51:src/tcb.cpp   ****     delete thread;
  52:src/tcb.cpp   **** }
  53:src/tcb.cpp   **** 
  54:src/tcb.cpp   **** 
  55:src/tcb.cpp   **** int TCB::exitThread(){
  56:src/tcb.cpp   ****     TCB::running->setFinished(true);
  57:src/tcb.cpp   ****     TCB::dispatch();
  58:src/tcb.cpp   ****     return 0;
  59:src/tcb.cpp   **** }
  60:src/tcb.cpp   **** 
  61:src/tcb.cpp   **** 
  62:src/tcb.cpp   **** void TCB::threadWrapper() {
 194              		.loc 1 62 27 is_stmt 1
 195              		.cfi_startproc
 196 00c0 130101FE 		addi	sp,sp,-32
 197              		.cfi_def_cfa_offset 32
 198 00c4 233C1100 		sd	ra,24(sp)
 199 00c8 23388100 		sd	s0,16(sp)
 200 00cc 23349100 		sd	s1,8(sp)
 201              		.cfi_offset 1, -8
 202              		.cfi_offset 8, -16
 203              		.cfi_offset 9, -24
 204 00d0 13040102 		addi	s0,sp,32
 205              		.cfi_def_cfa 8, 0
  63:src/tcb.cpp   **** 
  64:src/tcb.cpp   ****     Riscv::popSppSpie();
 206              		.loc 1 64 5
 207              		.loc 1 64 22 is_stmt 0
 208 00d4 97000000 		call	_ZN5Riscv10popSppSpieEv@plt
 208      E7800000 
 209              	.LVL8:
  65:src/tcb.cpp   ****     running->body(running->argument);
 210              		.loc 1 65 5 is_stmt 1
 211              		.loc 1 65 14 is_stmt 0
 212 00dc 97040000 		lla	s1,.LANCHOR0
 212      93840400 
 213 00e4 83B70400 		ld	a5,0(s1)
 214 00e8 03B70700 		ld	a4,0(a5)
 215              		.loc 1 65 18
 216 00ec 03B58700 		ld	a0,8(a5)
 217 00f0 E7000700 		jalr	a4
 218              	.LVL9:
  66:src/tcb.cpp   ****     running->setFinished(true);
 219              		.loc 1 66 5 is_stmt 1
 220              		.loc 1 66 25 is_stmt 0
 221 00f4 83B70400 		ld	a5,0(s1)
 222              	.LVL10:
 223              	.LBB14:
 224              	.LBB15:
GAS LISTING /tmp/ccx9SuF0.s 			page 6


 225              		.file 2 "src/../h/tcb.hpp"
   1:src/../h/tcb.hpp **** //
   2:src/../h/tcb.hpp **** // Created by os on 5/19/24.
   3:src/../h/tcb.hpp **** //
   4:src/../h/tcb.hpp **** 
   5:src/../h/tcb.hpp **** #ifndef PROJEKAT_TCB_HPP
   6:src/../h/tcb.hpp **** #define PROJEKAT_TCB_HPP
   7:src/../h/tcb.hpp **** #include "../lib/hw.h"
   8:src/../h/tcb.hpp **** #include "scheduler.hpp"
   9:src/../h/tcb.hpp **** #include "riscv.hpp"
  10:src/../h/tcb.hpp **** 
  11:src/../h/tcb.hpp **** class TCB {
  12:src/../h/tcb.hpp **** 
  13:src/../h/tcb.hpp ****     void *operator new(size_t n);
  14:src/../h/tcb.hpp **** 
  15:src/../h/tcb.hpp ****     void *operator new[](size_t n);
  16:src/../h/tcb.hpp **** 
  17:src/../h/tcb.hpp ****     void operator delete(void *p) noexcept;
  18:src/../h/tcb.hpp **** 
  19:src/../h/tcb.hpp ****     void operator delete[](void *p) noexcept;
  20:src/../h/tcb.hpp **** 
  21:src/../h/tcb.hpp **** public:
  22:src/../h/tcb.hpp ****     ~TCB(){TCB::operator delete[](stack);}
  23:src/../h/tcb.hpp ****     bool isFinished() const {return finished;}
  24:src/../h/tcb.hpp ****     void setFinished(bool f) { TCB::finished = f;}
 226              		.loc 2 24 32 is_stmt 1
 227              		.loc 2 24 46 is_stmt 0
 228 00f8 13071000 		li	a4,1
 229 00fc 2388E702 		sb	a4,48(a5)
 230              	.LVL11:
 231              	.LBE15:
 232              	.LBE14:
  67:src/tcb.cpp   ****     TCB::yield();
 233              		.loc 1 67 5 is_stmt 1
 234              		.loc 1 67 15 is_stmt 0
 235 0100 97000000 		call	_ZN3TCB5yieldEv
 235      E7800000 
 236              	.LVL12:
  68:src/tcb.cpp   **** }
 237              		.loc 1 68 1
 238 0108 83308101 		ld	ra,24(sp)
 239              		.cfi_restore 1
 240 010c 03340101 		ld	s0,16(sp)
 241              		.cfi_restore 8
 242              		.cfi_def_cfa 2, 32
 243 0110 83348100 		ld	s1,8(sp)
 244              		.cfi_restore 9
 245 0114 13010102 		addi	sp,sp,32
 246              		.cfi_def_cfa_offset 0
 247 0118 67800000 		jr	ra
 248              		.cfi_endproc
 249              	.LFE49:
 251              		.align	2
 252              		.globl	_ZN3TCB8dispatchEv
 254              	_ZN3TCB8dispatchEv:
 255              	.LFB45:
  36:src/tcb.cpp   **** 
GAS LISTING /tmp/ccx9SuF0.s 			page 7


 256              		.loc 1 36 21 is_stmt 1
 257              		.cfi_startproc
 258 011c 130101FE 		addi	sp,sp,-32
 259              		.cfi_def_cfa_offset 32
 260 0120 233C1100 		sd	ra,24(sp)
 261 0124 23388100 		sd	s0,16(sp)
 262 0128 23349100 		sd	s1,8(sp)
 263              		.cfi_offset 1, -8
 264              		.cfi_offset 8, -16
 265              		.cfi_offset 9, -24
 266 012c 13040102 		addi	s0,sp,32
 267              		.cfi_def_cfa 8, 0
  38:src/tcb.cpp   ****     if(!old->isFinished() && !old->blocked){
 268              		.loc 1 38 5
  38:src/tcb.cpp   ****     if(!old->isFinished() && !old->blocked){
 269              		.loc 1 38 10 is_stmt 0
 270 0130 97040000 		ld	s1,.LANCHOR0
 270      83B40400 
 271              	.LVL13:
  39:src/tcb.cpp   ****         Scheduler::put(old);
 272              		.loc 1 39 5 is_stmt 1
 273              	.LBB16:
 274              	.LBB17:
  23:src/../h/tcb.hpp ****     void setFinished(bool f) { TCB::finished = f;}
 275              		.loc 2 23 30
  23:src/../h/tcb.hpp ****     void setFinished(bool f) { TCB::finished = f;}
 276              		.loc 2 23 37 is_stmt 0
 277 0138 83C70403 		lbu	a5,48(s1)
 278              	.LVL14:
 279              	.LBE17:
 280              	.LBE16:
  39:src/tcb.cpp   ****         Scheduler::put(old);
 281              		.loc 1 39 27
 282 013c 63960700 		bnez	a5,.L14
  39:src/tcb.cpp   ****         Scheduler::put(old);
 283              		.loc 1 39 36 discriminator 1
 284 0140 83C71403 		lbu	a5,49(s1)
  39:src/tcb.cpp   ****         Scheduler::put(old);
 285              		.loc 1 39 27 discriminator 1
 286 0144 638C0702 		beqz	a5,.L16
 287              	.L14:
  42:src/tcb.cpp   ****     TCB::contextSwitch(&old->context, &running->context);
 288              		.loc 1 42 5 is_stmt 1
  42:src/tcb.cpp   ****     TCB::contextSwitch(&old->context, &running->context);
 289              		.loc 1 42 29 is_stmt 0
 290 0148 97000000 		call	_ZN9Scheduler3getEv@plt
 290      E7800000 
 291              	.LVL15:
  42:src/tcb.cpp   ****     TCB::contextSwitch(&old->context, &running->context);
 292              		.loc 1 42 13
 293 0150 97070000 		sd	a0,.LANCHOR0,a5
 293      23B0A700 
  43:src/tcb.cpp   **** }
 294              		.loc 1 43 5 is_stmt 1
  43:src/tcb.cpp   **** }
 295              		.loc 1 43 23 is_stmt 0
 296 0158 93058501 		addi	a1,a0,24
GAS LISTING /tmp/ccx9SuF0.s 			page 8


 297 015c 13858401 		addi	a0,s1,24
 298 0160 97000000 		call	_ZN3TCB13contextSwitchEPNS_7ContextES1_@plt
 298      E7800000 
 299              	.LVL16:
  44:src/tcb.cpp   **** 
 300              		.loc 1 44 1
 301 0168 83308101 		ld	ra,24(sp)
 302              		.cfi_remember_state
 303              		.cfi_restore 1
 304 016c 03340101 		ld	s0,16(sp)
 305              		.cfi_restore 8
 306              		.cfi_def_cfa 2, 32
 307 0170 83348100 		ld	s1,8(sp)
 308              		.cfi_restore 9
 309              	.LVL17:
 310 0174 13010102 		addi	sp,sp,32
 311              		.cfi_def_cfa_offset 0
 312 0178 67800000 		jr	ra
 313              	.LVL18:
 314              	.L16:
 315              		.cfi_restore_state
  40:src/tcb.cpp   ****     }
 316              		.loc 1 40 9 is_stmt 1
  40:src/tcb.cpp   ****     }
 317              		.loc 1 40 23 is_stmt 0
 318 017c 13850400 		mv	a0,s1
 319 0180 97000000 		call	_ZN9Scheduler3putEP3TCB@plt
 319      E7800000 
 320              	.LVL19:
 321 0188 6FF01FFC 		j	.L14
 322              		.cfi_endproc
 323              	.LFE45:
 325              		.align	2
 326              		.globl	_ZN3TCB12createThreadEPFvPvES0_S0_
 328              	_ZN3TCB12createThreadEPFvPvES0_S0_:
 329              	.LFB46:
  46:src/tcb.cpp   ****     return new TCB(body,DEFAULT_TIME_SLICE, argument, stek);
 330              		.loc 1 46 63 is_stmt 1
 331              		.cfi_startproc
 332              		.cfi_personality 0x9b,DW.ref.__gxx_personality_v0
 333              		.cfi_lsda 0x1b,.LLSDA46
 334              	.LVL20:
 335 018c 130101FD 		addi	sp,sp,-48
 336              		.cfi_def_cfa_offset 48
 337 0190 23341102 		sd	ra,40(sp)
 338 0194 23308102 		sd	s0,32(sp)
 339 0198 233C9100 		sd	s1,24(sp)
 340 019c 23382101 		sd	s2,16(sp)
 341 01a0 23343101 		sd	s3,8(sp)
 342 01a4 23304101 		sd	s4,0(sp)
 343              		.cfi_offset 1, -8
 344              		.cfi_offset 8, -16
 345              		.cfi_offset 9, -24
 346              		.cfi_offset 18, -32
 347              		.cfi_offset 19, -40
 348              		.cfi_offset 20, -48
 349 01a8 13040103 		addi	s0,sp,48
GAS LISTING /tmp/ccx9SuF0.s 			page 9


 350              		.cfi_def_cfa 8, 0
 351 01ac 93090500 		mv	s3,a0
 352 01b0 138A0500 		mv	s4,a1
 353 01b4 13090600 		mv	s2,a2
  47:src/tcb.cpp   **** }
 354              		.loc 1 47 5
  47:src/tcb.cpp   **** }
 355              		.loc 1 47 59 is_stmt 0
 356 01b8 13058003 		li	a0,56
 357              	.LVL21:
 358              	.LEHB0:
 359 01bc 97000000 		call	_ZN3TCBnwEm
 359      E7800000 
 360              	.LVL22:
 361              	.LEHE0:
 362 01c4 93040500 		mv	s1,a0
 363              	.LVL23:
 364              	.LBB18:
 365              	.LBB19:
  25:src/../h/tcb.hpp **** 
  26:src/../h/tcb.hpp ****     uint64 getTimeSlice() const { return timeSlice; }
  27:src/../h/tcb.hpp **** 
  28:src/../h/tcb.hpp ****     static TCB* running;
  29:src/../h/tcb.hpp ****     using Body = void(*)(void*);
  30:src/../h/tcb.hpp **** 
  31:src/../h/tcb.hpp ****     static TCB *createThread(Body body, void *arg, void*stek);
  32:src/../h/tcb.hpp ****     static void deleteThread(TCB *thread);
  33:src/../h/tcb.hpp ****     static int exitThread();
  34:src/../h/tcb.hpp ****     static void yield();
  35:src/../h/tcb.hpp ****     void setBlocked(bool b);
  36:src/../h/tcb.hpp **** 
  37:src/../h/tcb.hpp **** private:
  38:src/../h/tcb.hpp ****     explicit TCB(Body body, uint64 timeSlice, void* arg, void* stek): body(body), argument(arg), st
  39:src/../h/tcb.hpp ****     context({
  40:src/../h/tcb.hpp ****             (uint64) &threadWrapper,
  41:src/../h/tcb.hpp ****             stack != nullptr ? (uint64) &stack[DEFAULT_STACK_SIZE] : 0
  42:src/../h/tcb.hpp ****                 }),
  43:src/../h/tcb.hpp ****                 timeSlice(timeSlice),
  44:src/../h/tcb.hpp ****                 finished(false),
  45:src/../h/tcb.hpp ****                 blocked(false)
 366              		.loc 2 45 30
 367 01c8 23303501 		sd	s3,0(a0)
 368 01cc 23344501 		sd	s4,8(a0)
 369 01d0 23382501 		sd	s2,16(a0)
 370 01d4 97070000 		lla	a5,_ZN3TCB13threadWrapperEv
 370      93870700 
 371 01dc 233CF500 		sd	a5,24(a0)
  41:src/../h/tcb.hpp ****                 }),
 372              		.loc 2 41 30
 373 01e0 630A0902 		beqz	s2,.L21
  41:src/../h/tcb.hpp ****                 }),
 374              		.loc 2 41 41
 375 01e4 37860000 		li	a2,32768
 376 01e8 3309C900 		add	s2,s2,a2
 377              	.LVL24:
 378              	.L18:
 379              		.loc 2 45 30
GAS LISTING /tmp/ccx9SuF0.s 			page 10


 380 01ec 23B02403 		sd	s2,32(s1)
 381 01f0 93072000 		li	a5,2
 382 01f4 23B4F402 		sd	a5,40(s1)
 383 01f8 23880402 		sb	zero,48(s1)
 384 01fc A3880402 		sb	zero,49(s1)
  46:src/../h/tcb.hpp ****     {
  47:src/../h/tcb.hpp ****         if(body!= nullptr) Scheduler::put(this);
 385              		.loc 2 47 9 is_stmt 1
 386 0200 638C0902 		beqz	s3,.L17
 387              		.loc 2 47 28
 388              		.loc 2 47 42 is_stmt 0
 389 0204 13850400 		mv	a0,s1
 390              	.LEHB1:
 391 0208 97000000 		call	_ZN9Scheduler3putEP3TCB@plt
 391      E7800000 
 392              	.LVL25:
 393              	.LEHE1:
 394 0210 6F008002 		j	.L17
 395              	.LVL26:
 396              	.L21:
  41:src/../h/tcb.hpp ****                 }),
 397              		.loc 2 41 30
 398 0214 13090000 		li	s2,0
 399              	.LVL27:
 400 0218 6FF05FFD 		j	.L18
 401              	.LVL28:
 402              	.L22:
 403 021c 13090500 		mv	s2,a0
 404              	.LBE19:
 405              	.LBE18:
  47:src/tcb.cpp   **** }
 406              		.loc 1 47 59
 407 0220 13850400 		mv	a0,s1
 408 0224 97000000 		call	_ZN3TCBdlEPv
 408      E7800000 
 409              	.LVL29:
 410 022c 13050900 		mv	a0,s2
 411              	.LEHB2:
 412 0230 97000000 		call	_Unwind_Resume@plt
 412      E7800000 
 413              	.LVL30:
 414              	.LEHE2:
 415              	.L17:
  48:src/tcb.cpp   **** 
 416              		.loc 1 48 1
 417 0238 13850400 		mv	a0,s1
 418 023c 83308102 		ld	ra,40(sp)
 419              		.cfi_restore 1
 420 0240 03340102 		ld	s0,32(sp)
 421              		.cfi_restore 8
 422              		.cfi_def_cfa 2, 48
 423 0244 83348101 		ld	s1,24(sp)
 424              		.cfi_restore 9
 425              	.LVL31:
 426 0248 03390101 		ld	s2,16(sp)
 427              		.cfi_restore 18
 428 024c 83398100 		ld	s3,8(sp)
GAS LISTING /tmp/ccx9SuF0.s 			page 11


 429              		.cfi_restore 19
 430              	.LVL32:
 431 0250 033A0100 		ld	s4,0(sp)
 432              		.cfi_restore 20
 433              	.LVL33:
 434 0254 13010103 		addi	sp,sp,48
 435              		.cfi_def_cfa_offset 0
 436 0258 67800000 		jr	ra
 437              		.cfi_endproc
 438              	.LFE46:
 439              		.section	.gcc_except_table
 440              	.LLSDA46:
 441 0008 FF       		.byte	0xff
 442 0009 FF       		.byte	0xff
 443 000a 03       		.byte	0x3
 444 000b 27       		.byte	0x27
 445 000c 00000000 		.4byte	.LEHB0-.LFB46
 446 0010 00000000 		.4byte	.LEHE0-.LEHB0
 447 0014 00000000 		.4byte	0
 448 0018 00       		.byte	0
 449 0019 00000000 		.4byte	.LEHB1-.LFB46
 450 001d 00000000 		.4byte	.LEHE1-.LEHB1
 451 0021 00000000 		.4byte	.L22-.LFB46
 452 0025 00       		.byte	0
 453 0026 00000000 		.4byte	.LEHB2-.LFB46
 454 002a 00000000 		.4byte	.LEHE2-.LEHB2
 455 002e 00000000 		.4byte	0
 456 0032 00       		.byte	0
 457              		.text
 459              		.align	2
 460              		.globl	_ZN3TCB12deleteThreadEPS_
 462              	_ZN3TCB12deleteThreadEPS_:
 463              	.LFB47:
  50:src/tcb.cpp   ****     delete thread;
 464              		.loc 1 50 36 is_stmt 1
 465              		.cfi_startproc
 466              	.LVL34:
  51:src/tcb.cpp   **** }
 467              		.loc 1 51 5
  51:src/tcb.cpp   **** }
 468              		.loc 1 51 18 is_stmt 0
 469 025c 63040504 		beqz	a0,.L27
  50:src/tcb.cpp   ****     delete thread;
 470              		.loc 1 50 36
 471 0260 130101FE 		addi	sp,sp,-32
 472              		.cfi_def_cfa_offset 32
 473 0264 233C1100 		sd	ra,24(sp)
 474 0268 23388100 		sd	s0,16(sp)
 475 026c 23349100 		sd	s1,8(sp)
 476              		.cfi_offset 1, -8
 477              		.cfi_offset 8, -16
 478              		.cfi_offset 9, -24
 479 0270 13040102 		addi	s0,sp,32
 480              		.cfi_def_cfa 8, 0
 481 0274 93040500 		mv	s1,a0
 482              	.LVL35:
 483              	.LBB20:
GAS LISTING /tmp/ccx9SuF0.s 			page 12


 484              	.LBB21:
  22:src/../h/tcb.hpp ****     bool isFinished() const {return finished;}
 485              		.loc 2 22 12 is_stmt 1
  22:src/../h/tcb.hpp ****     bool isFinished() const {return finished;}
 486              		.loc 2 22 34 is_stmt 0
 487 0278 03350501 		ld	a0,16(a0)
 488              	.LVL36:
 489 027c 97000000 		call	_ZN3TCBdaEPv
 489      E7800000 
 490              	.LVL37:
 491              	.LBE21:
 492              	.LBE20:
  51:src/tcb.cpp   **** }
 493              		.loc 1 51 12
 494 0284 13850400 		mv	a0,s1
 495 0288 97000000 		call	_ZN3TCBdlEPv
 495      E7800000 
 496              	.LVL38:
  52:src/tcb.cpp   **** 
 497              		.loc 1 52 1
 498 0290 83308101 		ld	ra,24(sp)
 499              		.cfi_restore 1
 500 0294 03340101 		ld	s0,16(sp)
 501              		.cfi_restore 8
 502              		.cfi_def_cfa 2, 32
 503 0298 83348100 		ld	s1,8(sp)
 504              		.cfi_restore 9
 505              	.LVL39:
 506 029c 13010102 		addi	sp,sp,32
 507              		.cfi_def_cfa_offset 0
 508 02a0 67800000 		jr	ra
 509              	.LVL40:
 510              	.L27:
 511 02a4 67800000 		ret
 512              		.cfi_endproc
 513              	.LFE47:
 515              		.align	2
 516              		.globl	_ZN3TCB10exitThreadEv
 518              	_ZN3TCB10exitThreadEv:
 519              	.LFB48:
  55:src/tcb.cpp   ****     TCB::running->setFinished(true);
 520              		.loc 1 55 22 is_stmt 1
 521              		.cfi_startproc
 522 02a8 130101FF 		addi	sp,sp,-16
 523              		.cfi_def_cfa_offset 16
 524 02ac 23341100 		sd	ra,8(sp)
 525 02b0 23308100 		sd	s0,0(sp)
 526              		.cfi_offset 1, -8
 527              		.cfi_offset 8, -16
 528 02b4 13040101 		addi	s0,sp,16
 529              		.cfi_def_cfa 8, 0
  56:src/tcb.cpp   ****     TCB::dispatch();
 530              		.loc 1 56 5
 531              	.LVL41:
 532              	.LBB22:
 533              	.LBB23:
  24:src/../h/tcb.hpp **** 
GAS LISTING /tmp/ccx9SuF0.s 			page 13


 534              		.loc 2 24 32
  24:src/../h/tcb.hpp **** 
 535              		.loc 2 24 46 is_stmt 0
 536 02b8 97070000 		ld	a5,.LANCHOR0
 536      83B70700 
 537 02c0 13071000 		li	a4,1
 538 02c4 2388E702 		sb	a4,48(a5)
 539              	.LVL42:
 540              	.LBE23:
 541              	.LBE22:
  57:src/tcb.cpp   ****     return 0;
 542              		.loc 1 57 5 is_stmt 1
  57:src/tcb.cpp   ****     return 0;
 543              		.loc 1 57 18 is_stmt 0
 544 02c8 97000000 		call	_ZN3TCB8dispatchEv
 544      E7800000 
 545              	.LVL43:
  58:src/tcb.cpp   **** }
 546              		.loc 1 58 5 is_stmt 1
  59:src/tcb.cpp   **** 
 547              		.loc 1 59 1 is_stmt 0
 548 02d0 13050000 		li	a0,0
 549 02d4 83308100 		ld	ra,8(sp)
 550              		.cfi_restore 1
 551 02d8 03340100 		ld	s0,0(sp)
 552              		.cfi_restore 8
 553              		.cfi_def_cfa 2, 16
 554 02dc 13010101 		addi	sp,sp,16
 555              		.cfi_def_cfa_offset 0
 556 02e0 67800000 		jr	ra
 557              		.cfi_endproc
 558              	.LFE48:
 560              		.align	2
 561              		.globl	_ZN3TCB10setBlockedEb
 563              	_ZN3TCB10setBlockedEb:
 564              	.LFB50:
  69:src/tcb.cpp   **** 
  70:src/tcb.cpp   **** void TCB::setBlocked(bool b) {
 565              		.loc 1 70 30 is_stmt 1
 566              		.cfi_startproc
 567              	.LVL44:
 568 02e4 130101FF 		addi	sp,sp,-16
 569              		.cfi_def_cfa_offset 16
 570 02e8 23348100 		sd	s0,8(sp)
 571              		.cfi_offset 8, -8
 572 02ec 13040101 		addi	s0,sp,16
 573              		.cfi_def_cfa 8, 0
  71:src/tcb.cpp   ****     this->blocked = b;
 574              		.loc 1 71 5
 575              		.loc 1 71 19 is_stmt 0
 576 02f0 A308B502 		sb	a1,49(a0)
  72:src/tcb.cpp   **** }
 577              		.loc 1 72 1
 578 02f4 03348100 		ld	s0,8(sp)
 579              		.cfi_restore 8
 580              		.cfi_def_cfa 2, 16
 581 02f8 13010101 		addi	sp,sp,16
GAS LISTING /tmp/ccx9SuF0.s 			page 14


 582              		.cfi_def_cfa_offset 0
 583 02fc 67800000 		jr	ra
 584              		.cfi_endproc
 585              	.LFE50:
 587              		.globl	_ZN3TCB16timeSliceCounterE
 588              		.globl	_ZN3TCB7runningE
 589              		.bss
 590              		.align	3
 591              		.set	.LANCHOR0,. + 0
 594              	_ZN3TCB7runningE:
 595 0000 00000000 		.zero	8
 595      00000000 
 598              	_ZN3TCB16timeSliceCounterE:
 599 0008 00000000 		.zero	8
 599      00000000 
 600              		.text
 601              	.Letext0:
 602              		.file 3 "src/../h/../lib/hw.h"
 603              		.file 4 "src/../h/MemoryAllocator.hpp"
 604              		.file 5 "src/../h/scheduler.hpp"
 605              		.file 6 "src/../h/riscv.hpp"
 3509              		.align	3
 3512              	DW.ref.__gxx_personality_v0:
 3513 0000 00000000 		.dword	__gxx_personality_v0
 3513      00000000 
 3514              		.ident	"GCC: (Ubuntu 9.3.0-17ubuntu1~20.04) 9.3.0"
 3515              		.section	.note.GNU-stack,"",@progbits
GAS LISTING /tmp/ccx9SuF0.s 			page 15


DEFINED SYMBOLS
                            *ABS*:0000000000000000 tcb.cpp
     /tmp/ccx9SuF0.s:9      .text:0000000000000000 _ZN3TCBnwEm
     /tmp/ccx9SuF0.s:13     .text:0000000000000000 .L0 
     /tmp/ccx9SuF0.s:15     .text:0000000000000000 .L0 
     /tmp/ccx9SuF0.s:16     .text:0000000000000004 .L0 
     /tmp/ccx9SuF0.s:19     .text:000000000000000c .L0 
     /tmp/ccx9SuF0.s:20     .text:000000000000000c .L0 
     /tmp/ccx9SuF0.s:22     .text:0000000000000010 .L0 
     /tmp/ccx9SuF0.s:24     .text:0000000000000010 .L0 
     /tmp/ccx9SuF0.s:25     .text:0000000000000010 .L0 
     /tmp/ccx9SuF0.s:28     .text:0000000000000018 .L0 
     /tmp/ccx9SuF0.s:29     .text:000000000000001c .L0 
     /tmp/ccx9SuF0.s:31     .text:0000000000000020 .L0 
     /tmp/ccx9SuF0.s:32     .text:0000000000000020 .L0 
     /tmp/ccx9SuF0.s:34     .text:0000000000000024 .L0 
     /tmp/ccx9SuF0.s:36     .text:0000000000000028 .L0 
     /tmp/ccx9SuF0.s:42     .text:0000000000000028 _ZN3TCBnaEm
     /tmp/ccx9SuF0.s:45     .text:0000000000000028 .L0 
     /tmp/ccx9SuF0.s:47     .text:0000000000000028 .L0 
     /tmp/ccx9SuF0.s:48     .text:000000000000002c .L0 
     /tmp/ccx9SuF0.s:51     .text:0000000000000034 .L0 
     /tmp/ccx9SuF0.s:52     .text:0000000000000034 .L0 
     /tmp/ccx9SuF0.s:54     .text:0000000000000038 .L0 
     /tmp/ccx9SuF0.s:56     .text:0000000000000038 .L0 
     /tmp/ccx9SuF0.s:57     .text:0000000000000038 .L0 
     /tmp/ccx9SuF0.s:60     .text:0000000000000040 .L0 
     /tmp/ccx9SuF0.s:61     .text:0000000000000044 .L0 
     /tmp/ccx9SuF0.s:63     .text:0000000000000048 .L0 
     /tmp/ccx9SuF0.s:64     .text:0000000000000048 .L0 
     /tmp/ccx9SuF0.s:66     .text:000000000000004c .L0 
     /tmp/ccx9SuF0.s:68     .text:0000000000000050 .L0 
     /tmp/ccx9SuF0.s:74     .text:0000000000000050 _ZN3TCBdlEPv
     /tmp/ccx9SuF0.s:77     .text:0000000000000050 .L0 
     /tmp/ccx9SuF0.s:3512   .data.rel.local.DW.ref.__gxx_personality_v0:0000000000000000 DW.ref.__gxx_personality_v0
     /tmp/ccx9SuF0.s:81     .text:0000000000000050 .L0 
     /tmp/ccx9SuF0.s:82     .text:0000000000000054 .L0 
     /tmp/ccx9SuF0.s:85     .text:000000000000005c .L0 
     /tmp/ccx9SuF0.s:86     .text:000000000000005c .L0 
     /tmp/ccx9SuF0.s:88     .text:0000000000000060 .L0 
     /tmp/ccx9SuF0.s:90     .text:0000000000000060 .L0 
     /tmp/ccx9SuF0.s:91     .text:0000000000000060 .L0 
     /tmp/ccx9SuF0.s:94     .text:0000000000000068 .L0 
     /tmp/ccx9SuF0.s:95     .text:000000000000006c .L0 
     /tmp/ccx9SuF0.s:97     .text:0000000000000070 .L0 
     /tmp/ccx9SuF0.s:98     .text:0000000000000070 .L0 
     /tmp/ccx9SuF0.s:100    .text:0000000000000074 .L0 
     /tmp/ccx9SuF0.s:102    .text:0000000000000078 .L0 
     /tmp/ccx9SuF0.s:116    .text:0000000000000078 _ZN3TCBdaEPv
     /tmp/ccx9SuF0.s:119    .text:0000000000000078 .L0 
     /tmp/ccx9SuF0.s:123    .text:0000000000000078 .L0 
     /tmp/ccx9SuF0.s:124    .text:000000000000007c .L0 
     /tmp/ccx9SuF0.s:127    .text:0000000000000084 .L0 
     /tmp/ccx9SuF0.s:128    .text:0000000000000084 .L0 
     /tmp/ccx9SuF0.s:130    .text:0000000000000088 .L0 
     /tmp/ccx9SuF0.s:132    .text:0000000000000088 .L0 
     /tmp/ccx9SuF0.s:133    .text:0000000000000088 .L0 
GAS LISTING /tmp/ccx9SuF0.s 			page 16


     /tmp/ccx9SuF0.s:136    .text:0000000000000090 .L0 
     /tmp/ccx9SuF0.s:137    .text:0000000000000094 .L0 
     /tmp/ccx9SuF0.s:139    .text:0000000000000098 .L0 
     /tmp/ccx9SuF0.s:140    .text:0000000000000098 .L0 
     /tmp/ccx9SuF0.s:142    .text:000000000000009c .L0 
     /tmp/ccx9SuF0.s:144    .text:00000000000000a0 .L0 
     /tmp/ccx9SuF0.s:157    .text:00000000000000a0 _ZN3TCB5yieldEv
     /tmp/ccx9SuF0.s:160    .text:00000000000000a0 .L0 
     /tmp/ccx9SuF0.s:161    .text:00000000000000a0 .L0 
     /tmp/ccx9SuF0.s:162    .text:00000000000000a4 .L0 
     /tmp/ccx9SuF0.s:164    .text:00000000000000a8 .L0 
     /tmp/ccx9SuF0.s:166    .text:00000000000000ac .L0 
     /tmp/ccx9SuF0.s:168    .text:00000000000000ac .L0 
         src/tcb.cpp:32     .text:00000000000000ac .L0 
     /tmp/ccx9SuF0.s:174    .text:00000000000000b0 .L0 
         src/tcb.cpp:33     .text:00000000000000b0 .L0 
     /tmp/ccx9SuF0.s:180    .text:00000000000000b4 .L0 
     /tmp/ccx9SuF0.s:181    .text:00000000000000b8 .L0 
     /tmp/ccx9SuF0.s:182    .text:00000000000000b8 .L0 
     /tmp/ccx9SuF0.s:184    .text:00000000000000bc .L0 
     /tmp/ccx9SuF0.s:186    .text:00000000000000c0 .L0 
     /tmp/ccx9SuF0.s:192    .text:00000000000000c0 _ZN3TCB13threadWrapperEv
     /tmp/ccx9SuF0.s:195    .text:00000000000000c0 .L0 
     /tmp/ccx9SuF0.s:196    .text:00000000000000c0 .L0 
     /tmp/ccx9SuF0.s:197    .text:00000000000000c4 .L0 
     /tmp/ccx9SuF0.s:201    .text:00000000000000d0 .L0 
     /tmp/ccx9SuF0.s:202    .text:00000000000000d0 .L0 
     /tmp/ccx9SuF0.s:203    .text:00000000000000d0 .L0 
     /tmp/ccx9SuF0.s:205    .text:00000000000000d4 .L0 
     /tmp/ccx9SuF0.s:207    .text:00000000000000d4 .L0 
     /tmp/ccx9SuF0.s:208    .text:00000000000000d4 .L0 
     /tmp/ccx9SuF0.s:211    .text:00000000000000dc .L0 
     /tmp/ccx9SuF0.s:212    .text:00000000000000dc .L0 
     /tmp/ccx9SuF0.s:216    .text:00000000000000ec .L0 
     /tmp/ccx9SuF0.s:220    .text:00000000000000f4 .L0 
     /tmp/ccx9SuF0.s:221    .text:00000000000000f4 .L0 
     /tmp/ccx9SuF0.s:227    .text:00000000000000f8 .L0 
     /tmp/ccx9SuF0.s:228    .text:00000000000000f8 .L0 
     /tmp/ccx9SuF0.s:234    .text:0000000000000100 .L0 
     /tmp/ccx9SuF0.s:235    .text:0000000000000100 .L0 
     /tmp/ccx9SuF0.s:238    .text:0000000000000108 .L0 
     /tmp/ccx9SuF0.s:239    .text:000000000000010c .L0 
     /tmp/ccx9SuF0.s:241    .text:0000000000000110 .L0 
     /tmp/ccx9SuF0.s:242    .text:0000000000000110 .L0 
     /tmp/ccx9SuF0.s:244    .text:0000000000000114 .L0 
     /tmp/ccx9SuF0.s:246    .text:0000000000000118 .L0 
     /tmp/ccx9SuF0.s:248    .text:000000000000011c .L0 
     /tmp/ccx9SuF0.s:254    .text:000000000000011c _ZN3TCB8dispatchEv
     /tmp/ccx9SuF0.s:257    .text:000000000000011c .L0 
     /tmp/ccx9SuF0.s:258    .text:000000000000011c .L0 
     /tmp/ccx9SuF0.s:259    .text:0000000000000120 .L0 
     /tmp/ccx9SuF0.s:263    .text:000000000000012c .L0 
     /tmp/ccx9SuF0.s:264    .text:000000000000012c .L0 
     /tmp/ccx9SuF0.s:265    .text:000000000000012c .L0 
     /tmp/ccx9SuF0.s:267    .text:0000000000000130 .L0 
     /tmp/ccx9SuF0.s:269    .text:0000000000000130 .L0 
     /tmp/ccx9SuF0.s:270    .text:0000000000000130 .L0 
GAS LISTING /tmp/ccx9SuF0.s 			page 17


     /tmp/ccx9SuF0.s:275    .text:0000000000000138 .L0 
     /tmp/ccx9SuF0.s:276    .text:0000000000000138 .L0 
     /tmp/ccx9SuF0.s:277    .text:0000000000000138 .L0 
     /tmp/ccx9SuF0.s:282    .text:000000000000013c .L0 
     /tmp/ccx9SuF0.s:284    .text:0000000000000140 .L0 
     /tmp/ccx9SuF0.s:286    .text:0000000000000144 .L0 
     /tmp/ccx9SuF0.s:289    .text:0000000000000148 .L0 
     /tmp/ccx9SuF0.s:290    .text:0000000000000148 .L0 
     /tmp/ccx9SuF0.s:293    .text:0000000000000150 .L0 
     /tmp/ccx9SuF0.s:295    .text:0000000000000158 .L0 
     /tmp/ccx9SuF0.s:296    .text:0000000000000158 .L0 
     /tmp/ccx9SuF0.s:301    .text:0000000000000168 .L0 
     /tmp/ccx9SuF0.s:302    .text:000000000000016c .L0 
     /tmp/ccx9SuF0.s:303    .text:000000000000016c .L0 
     /tmp/ccx9SuF0.s:305    .text:0000000000000170 .L0 
     /tmp/ccx9SuF0.s:306    .text:0000000000000170 .L0 
     /tmp/ccx9SuF0.s:308    .text:0000000000000174 .L0 
     /tmp/ccx9SuF0.s:311    .text:0000000000000178 .L0 
     /tmp/ccx9SuF0.s:315    .text:000000000000017c .L0 
     /tmp/ccx9SuF0.s:317    .text:000000000000017c .L0 
     /tmp/ccx9SuF0.s:318    .text:000000000000017c .L0 
     /tmp/ccx9SuF0.s:322    .text:000000000000018c .L0 
     /tmp/ccx9SuF0.s:328    .text:000000000000018c _ZN3TCB12createThreadEPFvPvES0_S0_
     /tmp/ccx9SuF0.s:331    .text:000000000000018c .L0 
     /tmp/ccx9SuF0.s:335    .text:000000000000018c .L0 
     /tmp/ccx9SuF0.s:336    .text:0000000000000190 .L0 
     /tmp/ccx9SuF0.s:343    .text:00000000000001a8 .L0 
     /tmp/ccx9SuF0.s:344    .text:00000000000001a8 .L0 
     /tmp/ccx9SuF0.s:345    .text:00000000000001a8 .L0 
     /tmp/ccx9SuF0.s:346    .text:00000000000001a8 .L0 
     /tmp/ccx9SuF0.s:347    .text:00000000000001a8 .L0 
     /tmp/ccx9SuF0.s:348    .text:00000000000001a8 .L0 
     /tmp/ccx9SuF0.s:350    .text:00000000000001ac .L0 
     /tmp/ccx9SuF0.s:355    .text:00000000000001b8 .L0 
     /tmp/ccx9SuF0.s:356    .text:00000000000001b8 .L0 
     /tmp/ccx9SuF0.s:367    .text:00000000000001c8 .L0 
     /tmp/ccx9SuF0.s:373    .text:00000000000001e0 .L0 
     /tmp/ccx9SuF0.s:375    .text:00000000000001e4 .L0 
     /tmp/ccx9SuF0.s:380    .text:00000000000001ec .L0 
     /tmp/ccx9SuF0.s:386    .text:0000000000000200 .L0 
     /tmp/ccx9SuF0.s:388    .text:0000000000000204 .L0 
     /tmp/ccx9SuF0.s:389    .text:0000000000000204 .L0 
     /tmp/ccx9SuF0.s:398    .text:0000000000000214 .L0 
     /tmp/ccx9SuF0.s:407    .text:0000000000000220 .L0 
     /tmp/ccx9SuF0.s:417    .text:0000000000000238 .L0 
     /tmp/ccx9SuF0.s:419    .text:0000000000000240 .L0 
     /tmp/ccx9SuF0.s:421    .text:0000000000000244 .L0 
     /tmp/ccx9SuF0.s:422    .text:0000000000000244 .L0 
     /tmp/ccx9SuF0.s:424    .text:0000000000000248 .L0 
     /tmp/ccx9SuF0.s:427    .text:000000000000024c .L0 
     /tmp/ccx9SuF0.s:429    .text:0000000000000250 .L0 
     /tmp/ccx9SuF0.s:432    .text:0000000000000254 .L0 
     /tmp/ccx9SuF0.s:435    .text:0000000000000258 .L0 
     /tmp/ccx9SuF0.s:437    .text:000000000000025c .L0 
     /tmp/ccx9SuF0.s:462    .text:000000000000025c _ZN3TCB12deleteThreadEPS_
     /tmp/ccx9SuF0.s:465    .text:000000000000025c .L0 
     /tmp/ccx9SuF0.s:467    .text:000000000000025c .L0 
GAS LISTING /tmp/ccx9SuF0.s 			page 18


     /tmp/ccx9SuF0.s:468    .text:000000000000025c .L0 
     /tmp/ccx9SuF0.s:469    .text:000000000000025c .L0 
     /tmp/ccx9SuF0.s:471    .text:0000000000000260 .L0 
     /tmp/ccx9SuF0.s:472    .text:0000000000000264 .L0 
     /tmp/ccx9SuF0.s:476    .text:0000000000000270 .L0 
     /tmp/ccx9SuF0.s:477    .text:0000000000000270 .L0 
     /tmp/ccx9SuF0.s:478    .text:0000000000000270 .L0 
     /tmp/ccx9SuF0.s:480    .text:0000000000000274 .L0 
     /tmp/ccx9SuF0.s:486    .text:0000000000000278 .L0 
     /tmp/ccx9SuF0.s:487    .text:0000000000000278 .L0 
     /tmp/ccx9SuF0.s:494    .text:0000000000000284 .L0 
     /tmp/ccx9SuF0.s:498    .text:0000000000000290 .L0 
     /tmp/ccx9SuF0.s:499    .text:0000000000000294 .L0 
     /tmp/ccx9SuF0.s:501    .text:0000000000000298 .L0 
     /tmp/ccx9SuF0.s:502    .text:0000000000000298 .L0 
     /tmp/ccx9SuF0.s:504    .text:000000000000029c .L0 
     /tmp/ccx9SuF0.s:507    .text:00000000000002a0 .L0 
     /tmp/ccx9SuF0.s:512    .text:00000000000002a8 .L0 
     /tmp/ccx9SuF0.s:518    .text:00000000000002a8 _ZN3TCB10exitThreadEv
     /tmp/ccx9SuF0.s:521    .text:00000000000002a8 .L0 
     /tmp/ccx9SuF0.s:522    .text:00000000000002a8 .L0 
     /tmp/ccx9SuF0.s:523    .text:00000000000002ac .L0 
     /tmp/ccx9SuF0.s:526    .text:00000000000002b4 .L0 
     /tmp/ccx9SuF0.s:527    .text:00000000000002b4 .L0 
     /tmp/ccx9SuF0.s:529    .text:00000000000002b8 .L0 
     /tmp/ccx9SuF0.s:534    .text:00000000000002b8 .L0 
     /tmp/ccx9SuF0.s:535    .text:00000000000002b8 .L0 
     /tmp/ccx9SuF0.s:536    .text:00000000000002b8 .L0 
     /tmp/ccx9SuF0.s:543    .text:00000000000002c8 .L0 
     /tmp/ccx9SuF0.s:544    .text:00000000000002c8 .L0 
     /tmp/ccx9SuF0.s:547    .text:00000000000002d0 .L0 
     /tmp/ccx9SuF0.s:548    .text:00000000000002d0 .L0 
     /tmp/ccx9SuF0.s:550    .text:00000000000002d8 .L0 
     /tmp/ccx9SuF0.s:552    .text:00000000000002dc .L0 
     /tmp/ccx9SuF0.s:553    .text:00000000000002dc .L0 
     /tmp/ccx9SuF0.s:555    .text:00000000000002e0 .L0 
     /tmp/ccx9SuF0.s:557    .text:00000000000002e4 .L0 
     /tmp/ccx9SuF0.s:563    .text:00000000000002e4 _ZN3TCB10setBlockedEb
     /tmp/ccx9SuF0.s:566    .text:00000000000002e4 .L0 
     /tmp/ccx9SuF0.s:568    .text:00000000000002e4 .L0 
     /tmp/ccx9SuF0.s:569    .text:00000000000002e8 .L0 
     /tmp/ccx9SuF0.s:571    .text:00000000000002ec .L0 
     /tmp/ccx9SuF0.s:573    .text:00000000000002f0 .L0 
     /tmp/ccx9SuF0.s:575    .text:00000000000002f0 .L0 
     /tmp/ccx9SuF0.s:576    .text:00000000000002f0 .L0 
     /tmp/ccx9SuF0.s:578    .text:00000000000002f4 .L0 
     /tmp/ccx9SuF0.s:579    .text:00000000000002f8 .L0 
     /tmp/ccx9SuF0.s:580    .text:00000000000002f8 .L0 
     /tmp/ccx9SuF0.s:582    .text:00000000000002fc .L0 
     /tmp/ccx9SuF0.s:584    .text:0000000000000300 .L0 
     /tmp/ccx9SuF0.s:598    .bss:0000000000000008 _ZN3TCB16timeSliceCounterE
     /tmp/ccx9SuF0.s:594    .bss:0000000000000000 _ZN3TCB7runningE
     /tmp/ccx9SuF0.s:591    .bss:0000000000000000 .LANCHOR0
     /tmp/ccx9SuF0.s:606    .text:0000000000000300 .L0 
     /tmp/ccx9SuF0.s:212    .text:00000000000000dc .L0 
     /tmp/ccx9SuF0.s:270    .text:0000000000000130 .L0 
     /tmp/ccx9SuF0.s:293    .text:0000000000000150 .L0 
GAS LISTING /tmp/ccx9SuF0.s 			page 19


     /tmp/ccx9SuF0.s:370    .text:00000000000001d4 .L0 
     /tmp/ccx9SuF0.s:536    .text:00000000000002b8 .L0 
     /tmp/ccx9SuF0.s:287    .text:0000000000000148 .L14
     /tmp/ccx9SuF0.s:314    .text:000000000000017c .L16
     /tmp/ccx9SuF0.s:396    .text:0000000000000214 .L21
     /tmp/ccx9SuF0.s:415    .text:0000000000000238 .L17
     /tmp/ccx9SuF0.s:378    .text:00000000000001ec .L18
     /tmp/ccx9SuF0.s:510    .text:00000000000002a4 .L27
     /tmp/ccx9SuF0.s:358    .text:00000000000001bc .LEHB0
     /tmp/ccx9SuF0.s:329    .text:000000000000018c .LFB46
     /tmp/ccx9SuF0.s:361    .text:00000000000001c4 .LEHE0
     /tmp/ccx9SuF0.s:390    .text:0000000000000208 .LEHB1
     /tmp/ccx9SuF0.s:393    .text:0000000000000210 .LEHE1
     /tmp/ccx9SuF0.s:402    .text:000000000000021c .L22
     /tmp/ccx9SuF0.s:411    .text:0000000000000230 .LEHB2
     /tmp/ccx9SuF0.s:414    .text:0000000000000238 .LEHE2
     /tmp/ccx9SuF0.s:1931   .debug_abbrev:0000000000000000 .Ldebug_abbrev0
     /tmp/ccx9SuF0.s:3250   .debug_str:00000000000000c3 .LASF130
     /tmp/ccx9SuF0.s:3352   .debug_str:00000000000004cc .LASF131
     /tmp/ccx9SuF0.s:3354   .debug_str:00000000000004d8 .LASF132
     /tmp/ccx9SuF0.s:5      .text:0000000000000000 .Ltext0
     /tmp/ccx9SuF0.s:601    .text:0000000000000300 .Letext0
     /tmp/ccx9SuF0.s:3218   .debug_line:0000000000000000 .Ldebug_line0
     /tmp/ccx9SuF0.s:3372   .debug_str:0000000000000562 .LASF0
     /tmp/ccx9SuF0.s:3386   .debug_str:000000000000059e .LASF1
     /tmp/ccx9SuF0.s:3350   .debug_str:00000000000004be .LASF2
     /tmp/ccx9SuF0.s:3328   .debug_str:0000000000000434 .LASF4
     /tmp/ccx9SuF0.s:3432   .debug_str:00000000000006d8 .LASF3
     /tmp/ccx9SuF0.s:3252   .debug_str:0000000000000187 .LASF5
     /tmp/ccx9SuF0.s:3390   .debug_str:00000000000005c9 .LASF6
     /tmp/ccx9SuF0.s:3370   .debug_str:000000000000054f .LASF7
     /tmp/ccx9SuF0.s:3472   .debug_str:000000000000084b .LASF8
     /tmp/ccx9SuF0.s:3314   .debug_str:00000000000003a0 .LASF9
     /tmp/ccx9SuF0.s:3406   .debug_str:0000000000000627 .LASF10
     /tmp/ccx9SuF0.s:3462   .debug_str:00000000000007e6 .LASF11
     /tmp/ccx9SuF0.s:3256   .debug_str:0000000000000193 .LASF12
     /tmp/ccx9SuF0.s:3226   .debug_str:0000000000000031 .LASF13
     /tmp/ccx9SuF0.s:3266   .debug_str:00000000000001f5 .LASF14
     /tmp/ccx9SuF0.s:3424   .debug_str:000000000000069c .LASF15
     /tmp/ccx9SuF0.s:3274   .debug_str:000000000000023b .LASF16
     /tmp/ccx9SuF0.s:3366   .debug_str:000000000000053a .LASF26
     /tmp/ccx9SuF0.s:3300   .debug_str:0000000000000338 .LASF30
     /tmp/ccx9SuF0.s:3464   .debug_str:00000000000007f5 .LASF17
     /tmp/ccx9SuF0.s:3448   .debug_str:0000000000000777 .LASF18
     /tmp/ccx9SuF0.s:3400   .debug_str:00000000000005fb .LASF19
     /tmp/ccx9SuF0.s:3436   .debug_str:00000000000006fb .LASF32
     /tmp/ccx9SuF0.s:3466   .debug_str:00000000000007fa .LASF34
     /tmp/ccx9SuF0.s:3332   .debug_str:000000000000044e .LASF20
     /tmp/ccx9SuF0.s:3222   .debug_str:0000000000000008 .LASF29
     /tmp/ccx9SuF0.s:3280   .debug_str:0000000000000287 .LASF55
     /tmp/ccx9SuF0.s:3476   .debug_str:0000000000000862 .LASF21
     /tmp/ccx9SuF0.s:3446   .debug_str:0000000000000756 .LASF23
     /tmp/ccx9SuF0.s:3410   .debug_str:0000000000000641 .LASF22
     /tmp/ccx9SuF0.s:3494   .debug_str:00000000000008e1 .LASF24
     /tmp/ccx9SuF0.s:3396   .debug_str:00000000000005ee .LASF57
     /tmp/ccx9SuF0.s:3456   .debug_str:00000000000007ac .LASF59
     /tmp/ccx9SuF0.s:3298   .debug_str:0000000000000333 .LASF25
GAS LISTING /tmp/ccx9SuF0.s 			page 20


     /tmp/ccx9SuF0.s:3404   .debug_str:000000000000061d .LASF27
     /tmp/ccx9SuF0.s:3304   .debug_str:000000000000034d .LASF28
     /tmp/ccx9SuF0.s:3324   .debug_str:00000000000003f8 .LASF133
     /tmp/ccx9SuF0.s:3262   .debug_str:00000000000001d3 .LASF134
     /tmp/ccx9SuF0.s:3346   .debug_str:00000000000004a7 .LASF135
     /tmp/ccx9SuF0.s:3232   .debug_str:0000000000000064 .LASF31
     /tmp/ccx9SuF0.s:3482   .debug_str:000000000000088f .LASF33
     /tmp/ccx9SuF0.s:3248   .debug_str:00000000000000b7 .LASF35
     /tmp/ccx9SuF0.s:3310   .debug_str:0000000000000379 .LASF36
     /tmp/ccx9SuF0.s:3316   .debug_str:00000000000003ae .LASF37
     /tmp/ccx9SuF0.s:3442   .debug_str:0000000000000723 .LASF38
     /tmp/ccx9SuF0.s:3420   .debug_str:0000000000000684 .LASF40
     /tmp/ccx9SuF0.s:3330   .debug_str:000000000000043b .LASF39
     /tmp/ccx9SuF0.s:3458   .debug_str:00000000000007c8 .LASF41
     /tmp/ccx9SuF0.s:3284   .debug_str:00000000000002c6 .LASF42
     /tmp/ccx9SuF0.s:3414   .debug_str:000000000000065d .LASF43
     /tmp/ccx9SuF0.s:3392   .debug_str:00000000000005dc .LASF46
     /tmp/ccx9SuF0.s:3312   .debug_str:0000000000000389 .LASF48
     /tmp/ccx9SuF0.s:3356   .debug_str:00000000000004f6 .LASF44
     /tmp/ccx9SuF0.s:3500   .debug_str:0000000000000916 .LASF45
     /tmp/ccx9SuF0.s:3348   .debug_str:00000000000004b1 .LASF47
     /tmp/ccx9SuF0.s:3450   .debug_str:000000000000077c .LASF49
     /tmp/ccx9SuF0.s:3290   .debug_str:00000000000002ef .LASF136
     /tmp/ccx9SuF0.s:3340   .debug_str:0000000000000474 .LASF50
     /tmp/ccx9SuF0.s:3444   .debug_str:0000000000000733 .LASF51
     /tmp/ccx9SuF0.s:3416   .debug_str:0000000000000669 .LASF137
     /tmp/ccx9SuF0.s:3268   .debug_str:0000000000000201 .LASF52
     /tmp/ccx9SuF0.s:3230   .debug_str:000000000000004a .LASF53
     /tmp/ccx9SuF0.s:3408   .debug_str:0000000000000636 .LASF54
     /tmp/ccx9SuF0.s:3418   .debug_str:000000000000066e .LASF56
     /tmp/ccx9SuF0.s:3426   .debug_str:00000000000006b2 .LASF58
     /tmp/ccx9SuF0.s:3362   .debug_str:0000000000000524 .LASF60
     /tmp/ccx9SuF0.s:3240   .debug_str:0000000000000086 .LASF61
     /tmp/ccx9SuF0.s:3468   .debug_str:0000000000000822 .LASF62
     /tmp/ccx9SuF0.s:3282   .debug_str:00000000000002ae .LASF138
     /tmp/ccx9SuF0.s:3334   .debug_str:000000000000045c .LASF63
     /tmp/ccx9SuF0.s:3380   .debug_str:0000000000000585 .LASF64
     /tmp/ccx9SuF0.s:3378   .debug_str:000000000000057f .LASF65
     /tmp/ccx9SuF0.s:3338   .debug_str:000000000000046c .LASF66
     /tmp/ccx9SuF0.s:3382   .debug_str:000000000000058e .LASF67
     /tmp/ccx9SuF0.s:3484   .debug_str:000000000000089c .LASF68
     /tmp/ccx9SuF0.s:3220   .debug_str:0000000000000000 .LASF69
     /tmp/ccx9SuF0.s:3434   .debug_str:00000000000006ea .LASF70
     /tmp/ccx9SuF0.s:3342   .debug_str:0000000000000481 .LASF71
     /tmp/ccx9SuF0.s:3320   .debug_str:00000000000003d0 .LASF73
     /tmp/ccx9SuF0.s:3376   .debug_str:0000000000000576 .LASF72
     /tmp/ccx9SuF0.s:3296   .debug_str:0000000000000320 .LASF74
     /tmp/ccx9SuF0.s:3480   .debug_str:0000000000000881 .LASF139
     /tmp/ccx9SuF0.s:3326   .debug_str:000000000000040c .LASF140
     /tmp/ccx9SuF0.s:3384   .debug_str:0000000000000598 .LASF75
     /tmp/ccx9SuF0.s:3422   .debug_str:0000000000000691 .LASF76
     /tmp/ccx9SuF0.s:3492   .debug_str:00000000000008c9 .LASF77
     /tmp/ccx9SuF0.s:3246   .debug_str:00000000000000a9 .LASF78
     /tmp/ccx9SuF0.s:3288   .debug_str:00000000000002d4 .LASF79
     /tmp/ccx9SuF0.s:3302   .debug_str:0000000000000340 .LASF80
     /tmp/ccx9SuF0.s:3224   .debug_str:0000000000000017 .LASF81
     /tmp/ccx9SuF0.s:3228   .debug_str:0000000000000041 .LASF82
GAS LISTING /tmp/ccx9SuF0.s 			page 21


     /tmp/ccx9SuF0.s:3292   .debug_str:00000000000002f7 .LASF83
     /tmp/ccx9SuF0.s:3286   .debug_str:00000000000002cb .LASF84
     /tmp/ccx9SuF0.s:3270   .debug_str:000000000000020e .LASF85
     /tmp/ccx9SuF0.s:3360   .debug_str:000000000000051d .LASF86
     /tmp/ccx9SuF0.s:3412   .debug_str:000000000000064a .LASF87
     /tmp/ccx9SuF0.s:3474   .debug_str:000000000000085b .LASF88
     /tmp/ccx9SuF0.s:3470   .debug_str:0000000000000838 .LASF89
     /tmp/ccx9SuF0.s:3308   .debug_str:0000000000000371 .LASF90
     /tmp/ccx9SuF0.s:3276   .debug_str:0000000000000251 .LASF91
     /tmp/ccx9SuF0.s:3428   .debug_str:00000000000006b8 .LASF92
     /tmp/ccx9SuF0.s:3438   .debug_str:0000000000000700 .LASF93
     /tmp/ccx9SuF0.s:3398   .debug_str:00000000000005f3 .LASF94
     /tmp/ccx9SuF0.s:3258   .debug_str:00000000000001a3 .LASF95
     /tmp/ccx9SuF0.s:3498   .debug_str:000000000000090e .LASF96
     /tmp/ccx9SuF0.s:3294   .debug_str:000000000000030c .LASF97
     /tmp/ccx9SuF0.s:3374   .debug_str:000000000000056f .LASF98
     /tmp/ccx9SuF0.s:3488   .debug_str:00000000000008b1 .LASF99
     /tmp/ccx9SuF0.s:3242   .debug_str:0000000000000091 .LASF100
     /tmp/ccx9SuF0.s:3306   .debug_str:000000000000035e .LASF101
     /tmp/ccx9SuF0.s:3364   .debug_str:0000000000000534 .LASF102
     /tmp/ccx9SuF0.s:3454   .debug_str:000000000000079a .LASF103
     /tmp/ccx9SuF0.s:3238   .debug_str:0000000000000080 .LASF104
     /tmp/ccx9SuF0.s:3504   .debug_str:000000000000093e .LASF105
     /tmp/ccx9SuF0.s:3496   .debug_str:0000000000000903 .LASF106
     /tmp/ccx9SuF0.s:3430   .debug_str:00000000000006c0 .LASF107
     /tmp/ccx9SuF0.s:3336   .debug_str:0000000000000461 .LASF108
     /tmp/ccx9SuF0.s:3344   .debug_str:000000000000048f .LASF109
     /tmp/ccx9SuF0.s:3264   .debug_str:00000000000001eb .LASF110
     /tmp/ccx9SuF0.s:3402   .debug_str:0000000000000607 .LASF111
     /tmp/ccx9SuF0.s:3234   .debug_str:000000000000006c .LASF112
     /tmp/ccx9SuF0.s:3318   .debug_str:00000000000003ba .LASF113
     /tmp/ccx9SuF0.s:3452   .debug_str:0000000000000795 .LASF114
     /tmp/ccx9SuF0.s:3460   .debug_str:00000000000007d5 .LASF115
     /tmp/ccx9SuF0.s:3254   .debug_str:000000000000018e .LASF116
     /tmp/ccx9SuF0.s:3244   .debug_str:0000000000000098 .LASF117
     /tmp/ccx9SuF0.s:3440   .debug_str:0000000000000714 .LASF118
     /tmp/ccx9SuF0.s:3260   .debug_str:00000000000001b7 .LASF119
     /tmp/ccx9SuF0.s:3478   .debug_str:000000000000086c .LASF120
     /tmp/ccx9SuF0.s:3278   .debug_str:0000000000000265 .LASF121
     /tmp/ccx9SuF0.s:3502   .debug_str:000000000000092d .LASF122
     /tmp/ccx9SuF0.s:3358   .debug_str:0000000000000502 .LASF123
     /tmp/ccx9SuF0.s:564    .text:00000000000002e4 .LFB50
     /tmp/ccx9SuF0.s:585    .text:0000000000000300 .LFE50
     /tmp/ccx9SuF0.s:3490   .debug_str:00000000000008c4 .LASF126
     /tmp/ccx9SuF0.s:193    .text:00000000000000c0 .LFB49
     /tmp/ccx9SuF0.s:249    .text:000000000000011c .LFE49
     /tmp/ccx9SuF0.s:223    .text:00000000000000f8 .LBB14
     /tmp/ccx9SuF0.s:232    .text:0000000000000100 .LBE14
     /tmp/ccx9SuF0.s:2918   .debug_loc:0000000000000000 .LLST4
     /tmp/ccx9SuF0.s:2926   .debug_loc:0000000000000024 .LLST5
     /tmp/ccx9SuF0.s:209    .text:00000000000000dc .LVL8
     /tmp/ccx9SuF0.s:236    .text:0000000000000108 .LVL12
     /tmp/ccx9SuF0.s:519    .text:00000000000002a8 .LFB48
     /tmp/ccx9SuF0.s:558    .text:00000000000002e4 .LFE48
     /tmp/ccx9SuF0.s:532    .text:00000000000002b8 .LBB22
     /tmp/ccx9SuF0.s:541    .text:00000000000002c8 .LBE22
     /tmp/ccx9SuF0.s:2933   .debug_loc:0000000000000047 .LLST17
GAS LISTING /tmp/ccx9SuF0.s 			page 22


     /tmp/ccx9SuF0.s:2941   .debug_loc:000000000000006b .LLST18
     /tmp/ccx9SuF0.s:545    .text:00000000000002d0 .LVL43
     /tmp/ccx9SuF0.s:463    .text:000000000000025c .LFB47
     /tmp/ccx9SuF0.s:513    .text:00000000000002a8 .LFE47
     /tmp/ccx9SuF0.s:3394   .debug_str:00000000000005e7 .LASF124
     /tmp/ccx9SuF0.s:2949   .debug_loc:0000000000000096 .LLST15
     /tmp/ccx9SuF0.s:483    .text:0000000000000278 .LBB20
     /tmp/ccx9SuF0.s:492    .text:0000000000000284 .LBE20
     /tmp/ccx9SuF0.s:2971   .debug_loc:00000000000000f5 .LLST16
     /tmp/ccx9SuF0.s:490    .text:0000000000000284 .LVL37
     /tmp/ccx9SuF0.s:496    .text:0000000000000290 .LVL38
     /tmp/ccx9SuF0.s:438    .text:000000000000025c .LFE46
     /tmp/ccx9SuF0.s:2982   .debug_loc:000000000000012b .LLST8
     /tmp/ccx9SuF0.s:3000   .debug_loc:0000000000000177 .LLST9
     /tmp/ccx9SuF0.s:3368   .debug_str:000000000000054a .LASF125
     /tmp/ccx9SuF0.s:3018   .debug_loc:00000000000001c3 .LLST10
     /tmp/ccx9SuF0.s:364    .text:00000000000001c8 .LBB18
     /tmp/ccx9SuF0.s:405    .text:0000000000000220 .LBE18
     /tmp/ccx9SuF0.s:3057   .debug_loc:0000000000000260 .LLST11
     /tmp/ccx9SuF0.s:3092   .debug_loc:00000000000002ea .LLST12
     /tmp/ccx9SuF0.s:3106   .debug_loc:0000000000000323 .LLST13
     /tmp/ccx9SuF0.s:3120   .debug_loc:000000000000035c .LLST14
     /tmp/ccx9SuF0.s:392    .text:0000000000000210 .LVL25
     /tmp/ccx9SuF0.s:360    .text:00000000000001c4 .LVL22
     /tmp/ccx9SuF0.s:409    .text:000000000000022c .LVL29
     /tmp/ccx9SuF0.s:413    .text:0000000000000238 .LVL30
     /tmp/ccx9SuF0.s:255    .text:000000000000011c .LFB45
     /tmp/ccx9SuF0.s:323    .text:000000000000018c .LFE45
     /tmp/ccx9SuF0.s:3131   .debug_loc:0000000000000392 .LLST6
     /tmp/ccx9SuF0.s:273    .text:0000000000000138 .LBB16
     /tmp/ccx9SuF0.s:280    .text:000000000000013c .LBE16
     /tmp/ccx9SuF0.s:3142   .debug_loc:00000000000003c8 .LLST7
     /tmp/ccx9SuF0.s:291    .text:0000000000000150 .LVL15
     /tmp/ccx9SuF0.s:299    .text:0000000000000168 .LVL16
     /tmp/ccx9SuF0.s:320    .text:0000000000000188 .LVL19
     /tmp/ccx9SuF0.s:158    .text:00000000000000a0 .LFB44
     /tmp/ccx9SuF0.s:187    .text:00000000000000c0 .LFE44
     /tmp/ccx9SuF0.s:117    .text:0000000000000078 .LFB43
     /tmp/ccx9SuF0.s:145    .text:00000000000000a0 .LFE43
     /tmp/ccx9SuF0.s:3149   .debug_loc:00000000000003eb .LLST3
     /tmp/ccx9SuF0.s:134    .text:0000000000000090 .LVL7
     /tmp/ccx9SuF0.s:75     .text:0000000000000050 .LFB42
     /tmp/ccx9SuF0.s:103    .text:0000000000000078 .LFE42
     /tmp/ccx9SuF0.s:3163   .debug_loc:0000000000000424 .LLST2
     /tmp/ccx9SuF0.s:92     .text:0000000000000068 .LVL5
     /tmp/ccx9SuF0.s:43     .text:0000000000000028 .LFB41
     /tmp/ccx9SuF0.s:69     .text:0000000000000050 .LFE41
     /tmp/ccx9SuF0.s:3177   .debug_loc:000000000000045d .LLST1
     /tmp/ccx9SuF0.s:58     .text:0000000000000040 .LVL3
     /tmp/ccx9SuF0.s:10     .text:0000000000000000 .LFB40
     /tmp/ccx9SuF0.s:37     .text:0000000000000028 .LFE40
     /tmp/ccx9SuF0.s:3191   .debug_loc:0000000000000496 .LLST0
     /tmp/ccx9SuF0.s:26     .text:0000000000000018 .LVL1
     /tmp/ccx9SuF0.s:3388   .debug_str:00000000000005b1 .LASF128
     /tmp/ccx9SuF0.s:3236   .debug_str:0000000000000076 .LASF127
     /tmp/ccx9SuF0.s:3486   .debug_str:00000000000008a5 .LASF129
     /tmp/ccx9SuF0.s:3322   .debug_str:00000000000003e9 .LASF141
GAS LISTING /tmp/ccx9SuF0.s 			page 23


     /tmp/ccx9SuF0.s:3272   .debug_str:0000000000000223 .LASF142
     /tmp/ccx9SuF0.s:222    .text:00000000000000f8 .LVL10
     /tmp/ccx9SuF0.s:230    .text:0000000000000100 .LVL11
     /tmp/ccx9SuF0.s:531    .text:00000000000002b8 .LVL41
     /tmp/ccx9SuF0.s:539    .text:00000000000002c8 .LVL42
     /tmp/ccx9SuF0.s:466    .text:000000000000025c .LVL34
     /tmp/ccx9SuF0.s:488    .text:000000000000027c .LVL36
     /tmp/ccx9SuF0.s:505    .text:000000000000029c .LVL39
     /tmp/ccx9SuF0.s:509    .text:00000000000002a4 .LVL40
     /tmp/ccx9SuF0.s:482    .text:0000000000000278 .LVL35
     /tmp/ccx9SuF0.s:334    .text:000000000000018c .LVL20
     /tmp/ccx9SuF0.s:357    .text:00000000000001bc .LVL21
     /tmp/ccx9SuF0.s:430    .text:0000000000000250 .LVL32
     /tmp/ccx9SuF0.s:433    .text:0000000000000254 .LVL33
     /tmp/ccx9SuF0.s:377    .text:00000000000001ec .LVL24
     /tmp/ccx9SuF0.s:395    .text:0000000000000214 .LVL26
     /tmp/ccx9SuF0.s:399    .text:0000000000000218 .LVL27
     /tmp/ccx9SuF0.s:401    .text:000000000000021c .LVL28
     /tmp/ccx9SuF0.s:363    .text:00000000000001c8 .LVL23
     /tmp/ccx9SuF0.s:425    .text:0000000000000248 .LVL31
     /tmp/ccx9SuF0.s:271    .text:0000000000000138 .LVL13
     /tmp/ccx9SuF0.s:309    .text:0000000000000174 .LVL17
     /tmp/ccx9SuF0.s:313    .text:000000000000017c .LVL18
     /tmp/ccx9SuF0.s:278    .text:000000000000013c .LVL14
     /tmp/ccx9SuF0.s:122    .text:0000000000000078 .LVL6
     /tmp/ccx9SuF0.s:80     .text:0000000000000050 .LVL4
     /tmp/ccx9SuF0.s:46     .text:0000000000000028 .LVL2
     /tmp/ccx9SuF0.s:14     .text:0000000000000000 .LVL0
     /tmp/ccx9SuF0.s:607    .debug_info:0000000000000000 .Ldebug_info0
     /tmp/ccx9SuF0.s:106    .gcc_except_table:0000000000000000 .LLSDA42
     /tmp/ccx9SuF0.s:147    .gcc_except_table:0000000000000004 .LLSDA43
     /tmp/ccx9SuF0.s:440    .gcc_except_table:0000000000000008 .LLSDA46

UNDEFINED SYMBOLS
_ZN15MemoryAllocator9mem_allocEm
_ZN15MemoryAllocator8mem_freeEPKv
__gxx_personality_v0
_ZN5Riscv10popSppSpieEv
_ZN9Scheduler3getEv
_ZN3TCB13contextSwitchEPNS_7ContextES1_
_ZN9Scheduler3putEP3TCB
_Unwind_Resume
