GAS LISTING /tmp/ccQWeaXc.s 			page 1


   1              		.file	"workers.cpp"
   2              		.option pic
   3              		.option norelax
   4              		.text
   5              	.Ltext0:
   6              		.align	2
   8              	_ZL9fibonaccim:
   9              	.LFB42:
  10              		.file 1 "src/workers.cpp"
   1:src/workers.cpp **** //
   2:src/workers.cpp **** // Created by marko on 20.4.22..
   3:src/workers.cpp **** //
   4:src/workers.cpp **** 
   5:src/workers.cpp **** #include "../lib/hw.h"
   6:src/workers.cpp **** #include "../h/print.hpp"
   7:src/workers.cpp **** #include "../h/syscall_c.hpp"
   8:src/workers.cpp **** 
   9:src/workers.cpp **** void workerBodyA(void* g)
  10:src/workers.cpp **** {
  11:src/workers.cpp ****     for (uint64 i = 0; i < 10; i++)
  12:src/workers.cpp ****     {
  13:src/workers.cpp ****         printString("A: i=");
  14:src/workers.cpp ****         printInteger(i);
  15:src/workers.cpp ****         printString("\n");
  16:src/workers.cpp ****         for (uint64 j = 0; j < 10000; j++)
  17:src/workers.cpp ****         {
  18:src/workers.cpp ****             for (uint64 k = 0; k < 30000; k++)
  19:src/workers.cpp ****             {
  20:src/workers.cpp ****                 // busy wait
  21:src/workers.cpp ****             }
  22:src/workers.cpp **** //            TCB::yield();
  23:src/workers.cpp ****         }
  24:src/workers.cpp ****     }
  25:src/workers.cpp **** }
  26:src/workers.cpp **** 
  27:src/workers.cpp **** void workerBodyB(void* g)
  28:src/workers.cpp **** {
  29:src/workers.cpp ****     for (uint64 i = 0; i < 16; i++)
  30:src/workers.cpp ****     {
  31:src/workers.cpp ****         printString("B: i=");
  32:src/workers.cpp ****         printInteger(i);
  33:src/workers.cpp ****         printString("\n");
  34:src/workers.cpp ****         for (uint64 j = 0; j < 10000; j++)
  35:src/workers.cpp ****         {
  36:src/workers.cpp ****             for (uint64 k = 0; k < 30000; k++)
  37:src/workers.cpp ****             {
  38:src/workers.cpp ****                 // busy wait
  39:src/workers.cpp ****             }
  40:src/workers.cpp **** //            TCB::yield();
  41:src/workers.cpp ****         }
  42:src/workers.cpp ****         if(i == 10) thread_exit();
  43:src/workers.cpp ****     }
  44:src/workers.cpp **** }
  45:src/workers.cpp **** 
  46:src/workers.cpp **** static uint64 fibonacci(uint64 n)
  47:src/workers.cpp **** {
  11              		.loc 1 47 1
GAS LISTING /tmp/ccQWeaXc.s 			page 2


  12              		.cfi_startproc
  13              	.LVL0:
  14 0000 130101FE 		addi	sp,sp,-32
  15              		.cfi_def_cfa_offset 32
  16 0004 233C1100 		sd	ra,24(sp)
  17 0008 23388100 		sd	s0,16(sp)
  18 000c 23349100 		sd	s1,8(sp)
  19 0010 23302101 		sd	s2,0(sp)
  20              		.cfi_offset 1, -8
  21              		.cfi_offset 8, -16
  22              		.cfi_offset 9, -24
  23              		.cfi_offset 18, -32
  24 0014 13040102 		addi	s0,sp,32
  25              		.cfi_def_cfa 8, 0
  26 0018 93040500 		mv	s1,a0
  48:src/workers.cpp ****     if (n == 0 || n == 1) { return n; }
  27              		.loc 1 48 5
  28 001c 93071000 		li	a5,1
  29 0020 63F8A702 		bleu	a0,a5,.L1
  49:src/workers.cpp ****     if (n % 10 == 0) { TCB::yield(); }
  30              		.loc 1 49 5
  31              		.loc 1 49 11 is_stmt 0
  32 0024 9307A000 		li	a5,10
  33 0028 B377F502 		remu	a5,a0,a5
  34              		.loc 1 49 5
  35 002c 638E0702 		beqz	a5,.L6
  36              	.LVL1:
  37              	.L3:
  50:src/workers.cpp ****     return fibonacci(n - 1) + fibonacci(n - 2);
  38              		.loc 1 50 5 is_stmt 1
  39              		.loc 1 50 21 is_stmt 0
  40 0030 1385F4FF 		addi	a0,s1,-1
  41 0034 97000000 		call	_ZL9fibonaccim
  41      E7800000 
  42              	.LVL2:
  43 003c 13090500 		mv	s2,a0
  44              		.loc 1 50 40
  45 0040 1385E4FF 		addi	a0,s1,-2
  46 0044 97000000 		call	_ZL9fibonaccim
  46      E7800000 
  47              	.LVL3:
  48              		.loc 1 50 46
  49 004c 3305A900 		add	a0,s2,a0
  50              	.L1:
  51:src/workers.cpp **** }
  51              		.loc 1 51 1
  52 0050 83308101 		ld	ra,24(sp)
  53              		.cfi_remember_state
  54              		.cfi_restore 1
  55 0054 03340101 		ld	s0,16(sp)
  56              		.cfi_restore 8
  57              		.cfi_def_cfa 2, 32
  58 0058 83348100 		ld	s1,8(sp)
  59              		.cfi_restore 9
  60              	.LVL4:
  61 005c 03390100 		ld	s2,0(sp)
  62              		.cfi_restore 18
GAS LISTING /tmp/ccQWeaXc.s 			page 3


  63 0060 13010102 		addi	sp,sp,32
  64              		.cfi_def_cfa_offset 0
  65 0064 67800000 		jr	ra
  66              	.LVL5:
  67              	.L6:
  68              		.cfi_restore_state
  49:src/workers.cpp ****     if (n % 10 == 0) { TCB::yield(); }
  69              		.loc 1 49 24 is_stmt 1 discriminator 1
  49:src/workers.cpp ****     if (n % 10 == 0) { TCB::yield(); }
  70              		.loc 1 49 34 is_stmt 0 discriminator 1
  71 0068 97000000 		call	_ZN3TCB5yieldEv@plt
  71      E7800000 
  72              	.LVL6:
  73 0070 6FF01FFC 		j	.L3
  74              		.cfi_endproc
  75              	.LFE42:
  77              		.section	.rodata.str1.8,"aMS",@progbits,1
  78              		.align	3
  79              	.LC0:
  80 0000 413A2069 		.string	"A: i="
  80      3D00
  81 0006 0000     		.align	3
  82              	.LC1:
  83 0008 0A00     		.string	"\n"
  84              		.text
  85              		.align	2
  86              		.globl	_Z11workerBodyAPv
  88              	_Z11workerBodyAPv:
  89              	.LFB40:
  10:src/workers.cpp ****     for (uint64 i = 0; i < 10; i++)
  90              		.loc 1 10 1 is_stmt 1
  91              		.cfi_startproc
  92              	.LVL7:
  93 0074 130101FE 		addi	sp,sp,-32
  94              		.cfi_def_cfa_offset 32
  95 0078 233C1100 		sd	ra,24(sp)
  96 007c 23388100 		sd	s0,16(sp)
  97 0080 23349100 		sd	s1,8(sp)
  98              		.cfi_offset 1, -8
  99              		.cfi_offset 8, -16
 100              		.cfi_offset 9, -24
 101 0084 13040102 		addi	s0,sp,32
 102              		.cfi_def_cfa 8, 0
  11:src/workers.cpp ****     {
 103              		.loc 1 11 5
 104              	.LVL8:
 105              	.LBB2:
  11:src/workers.cpp ****     {
 106              		.loc 1 11 17 is_stmt 0
 107 0088 93040000 		li	s1,0
 108 008c 6F000003 		j	.L13
 109              	.LVL9:
 110              	.L10:
 111              	.LBB3:
 112              	.LBB4:
  16:src/workers.cpp ****         {
 113              		.loc 1 16 9 is_stmt 1 discriminator 2
GAS LISTING /tmp/ccQWeaXc.s 			page 4


 114 0090 93861600 		addi	a3,a3,1
 115              	.LVL10:
 116              	.L12:
  16:src/workers.cpp ****         {
 117              		.loc 1 16 30 discriminator 1
 118 0094 B7270000 		li	a5,8192
 119 0098 9387F770 		addi	a5,a5,1807
 120 009c 63EED700 		bgtu	a3,a5,.L9
 121              	.LBB5:
  18:src/workers.cpp ****             {
 122              		.loc 1 18 25 is_stmt 0
 123 00a0 13070000 		li	a4,0
 124              	.L11:
 125              	.LVL11:
  18:src/workers.cpp ****             {
 126              		.loc 1 18 34 is_stmt 1 discriminator 3
 127 00a4 B7770000 		li	a5,28672
 128 00a8 9387F752 		addi	a5,a5,1327
 129 00ac E3E2E7FE 		bgtu	a4,a5,.L10
  18:src/workers.cpp ****             {
 130              		.loc 1 18 13 discriminator 2
 131 00b0 13071700 		addi	a4,a4,1
 132              	.LVL12:
 133 00b4 6FF01FFF 		j	.L11
 134              	.LVL13:
 135              	.L9:
 136              	.LBE5:
 137              	.LBE4:
 138              	.LBE3:
  11:src/workers.cpp ****     {
 139              		.loc 1 11 5 discriminator 2
 140 00b8 93841400 		addi	s1,s1,1
 141              	.LVL14:
 142              	.L13:
  11:src/workers.cpp ****     {
 143              		.loc 1 11 26 discriminator 1
 144 00bc 93079000 		li	a5,9
 145 00c0 63EC9702 		bgtu	s1,a5,.L7
 146              	.LBB7:
  13:src/workers.cpp ****         printInteger(i);
 147              		.loc 1 13 9
  13:src/workers.cpp ****         printInteger(i);
 148              		.loc 1 13 20 is_stmt 0
 149 00c4 17050000 		lla	a0,.LC0
 149      13050500 
 150 00cc 97000000 		call	_Z11printStringPKc@plt
 150      E7800000 
 151              	.LVL15:
  14:src/workers.cpp ****         printString("\n");
 152              		.loc 1 14 9 is_stmt 1
  14:src/workers.cpp ****         printString("\n");
 153              		.loc 1 14 21 is_stmt 0
 154 00d4 13850400 		mv	a0,s1
 155 00d8 97000000 		call	_Z12printIntegerm@plt
 155      E7800000 
 156              	.LVL16:
  15:src/workers.cpp ****         for (uint64 j = 0; j < 10000; j++)
GAS LISTING /tmp/ccQWeaXc.s 			page 5


 157              		.loc 1 15 9 is_stmt 1
  15:src/workers.cpp ****         for (uint64 j = 0; j < 10000; j++)
 158              		.loc 1 15 20 is_stmt 0
 159 00e0 17050000 		lla	a0,.LC1
 159      13050500 
 160 00e8 97000000 		call	_Z11printStringPKc@plt
 160      E7800000 
 161              	.LVL17:
  16:src/workers.cpp ****         {
 162              		.loc 1 16 9 is_stmt 1
 163              	.LBB6:
  16:src/workers.cpp ****         {
 164              		.loc 1 16 21 is_stmt 0
 165 00f0 93060000 		li	a3,0
 166 00f4 6FF01FFA 		j	.L12
 167              	.LVL18:
 168              	.L7:
 169              	.LBE6:
 170              	.LBE7:
 171              	.LBE2:
  25:src/workers.cpp **** 
 172              		.loc 1 25 1
 173 00f8 83308101 		ld	ra,24(sp)
 174              		.cfi_restore 1
 175 00fc 03340101 		ld	s0,16(sp)
 176              		.cfi_restore 8
 177              		.cfi_def_cfa 2, 32
 178 0100 83348100 		ld	s1,8(sp)
 179              		.cfi_restore 9
 180              	.LVL19:
 181 0104 13010102 		addi	sp,sp,32
 182              		.cfi_def_cfa_offset 0
 183 0108 67800000 		jr	ra
 184              		.cfi_endproc
 185              	.LFE40:
 187              		.section	.rodata.str1.8
 188 000a 00000000 		.align	3
 188      0000
 189              	.LC2:
 190 0010 423A2069 		.string	"B: i="
 190      3D00
 191              		.text
 192              		.align	2
 193              		.globl	_Z11workerBodyBPv
 195              	_Z11workerBodyBPv:
 196              	.LFB41:
  28:src/workers.cpp ****     for (uint64 i = 0; i < 16; i++)
 197              		.loc 1 28 1 is_stmt 1
 198              		.cfi_startproc
 199              	.LVL20:
 200 010c 130101FE 		addi	sp,sp,-32
 201              		.cfi_def_cfa_offset 32
 202 0110 233C1100 		sd	ra,24(sp)
 203 0114 23388100 		sd	s0,16(sp)
 204 0118 23349100 		sd	s1,8(sp)
 205              		.cfi_offset 1, -8
 206              		.cfi_offset 8, -16
GAS LISTING /tmp/ccQWeaXc.s 			page 6


 207              		.cfi_offset 9, -24
 208 011c 13040102 		addi	s0,sp,32
 209              		.cfi_def_cfa 8, 0
  29:src/workers.cpp ****     {
 210              		.loc 1 29 5
 211              	.LVL21:
 212              	.LBB8:
  29:src/workers.cpp ****     {
 213              		.loc 1 29 17 is_stmt 0
 214 0120 93040000 		li	s1,0
 215 0124 6F008003 		j	.L22
 216              	.LVL22:
 217              	.L18:
 218              	.LBB9:
 219              	.LBB10:
  34:src/workers.cpp ****         {
 220              		.loc 1 34 9 is_stmt 1 discriminator 2
 221 0128 93861600 		addi	a3,a3,1
 222              	.LVL23:
 223              	.L20:
  34:src/workers.cpp ****         {
 224              		.loc 1 34 30 discriminator 1
 225 012c B7270000 		li	a5,8192
 226 0130 9387F770 		addi	a5,a5,1807
 227 0134 63EED700 		bgtu	a3,a5,.L17
 228              	.LBB11:
  36:src/workers.cpp ****             {
 229              		.loc 1 36 25 is_stmt 0
 230 0138 13070000 		li	a4,0
 231              	.L19:
 232              	.LVL24:
  36:src/workers.cpp ****             {
 233              		.loc 1 36 34 is_stmt 1 discriminator 3
 234 013c B7770000 		li	a5,28672
 235 0140 9387F752 		addi	a5,a5,1327
 236 0144 E3E2E7FE 		bgtu	a4,a5,.L18
  36:src/workers.cpp ****             {
 237              		.loc 1 36 13 discriminator 2
 238 0148 13071700 		addi	a4,a4,1
 239              	.LVL25:
 240 014c 6FF01FFF 		j	.L19
 241              	.LVL26:
 242              	.L17:
 243              	.LBE11:
 244              	.LBE10:
  42:src/workers.cpp ****     }
 245              		.loc 1 42 9
 246 0150 9307A000 		li	a5,10
 247 0154 6382F404 		beq	s1,a5,.L24
 248              	.LVL27:
 249              	.L21:
 250              	.LBE9:
  29:src/workers.cpp ****     {
 251              		.loc 1 29 5 discriminator 2
 252 0158 93841400 		addi	s1,s1,1
 253              	.LVL28:
 254              	.L22:
GAS LISTING /tmp/ccQWeaXc.s 			page 7


  29:src/workers.cpp ****     {
 255              		.loc 1 29 26 discriminator 1
 256 015c 9307F000 		li	a5,15
 257 0160 63E29704 		bgtu	s1,a5,.L15
 258              	.LBB13:
  31:src/workers.cpp ****         printInteger(i);
 259              		.loc 1 31 9
  31:src/workers.cpp ****         printInteger(i);
 260              		.loc 1 31 20 is_stmt 0
 261 0164 17050000 		lla	a0,.LC2
 261      13050500 
 262 016c 97000000 		call	_Z11printStringPKc@plt
 262      E7800000 
 263              	.LVL29:
  32:src/workers.cpp ****         printString("\n");
 264              		.loc 1 32 9 is_stmt 1
  32:src/workers.cpp ****         printString("\n");
 265              		.loc 1 32 21 is_stmt 0
 266 0174 13850400 		mv	a0,s1
 267 0178 97000000 		call	_Z12printIntegerm@plt
 267      E7800000 
 268              	.LVL30:
  33:src/workers.cpp ****         for (uint64 j = 0; j < 10000; j++)
 269              		.loc 1 33 9 is_stmt 1
  33:src/workers.cpp ****         for (uint64 j = 0; j < 10000; j++)
 270              		.loc 1 33 20 is_stmt 0
 271 0180 17050000 		lla	a0,.LC1
 271      13050500 
 272 0188 97000000 		call	_Z11printStringPKc@plt
 272      E7800000 
 273              	.LVL31:
  34:src/workers.cpp ****         {
 274              		.loc 1 34 9 is_stmt 1
 275              	.LBB12:
  34:src/workers.cpp ****         {
 276              		.loc 1 34 21 is_stmt 0
 277 0190 93060000 		li	a3,0
 278 0194 6FF09FF9 		j	.L20
 279              	.LVL32:
 280              	.L24:
 281              	.LBE12:
  42:src/workers.cpp ****     }
 282              		.loc 1 42 21 is_stmt 1 discriminator 1
  42:src/workers.cpp ****     }
 283              		.loc 1 42 32 is_stmt 0 discriminator 1
 284 0198 97000000 		call	_Z11thread_exitv@plt
 284      E7800000 
 285              	.LVL33:
 286 01a0 6FF09FFB 		j	.L21
 287              	.L15:
 288              	.LBE13:
 289              	.LBE8:
  44:src/workers.cpp **** 
 290              		.loc 1 44 1
 291 01a4 83308101 		ld	ra,24(sp)
 292              		.cfi_restore 1
 293 01a8 03340101 		ld	s0,16(sp)
GAS LISTING /tmp/ccQWeaXc.s 			page 8


 294              		.cfi_restore 8
 295              		.cfi_def_cfa 2, 32
 296 01ac 83348100 		ld	s1,8(sp)
 297              		.cfi_restore 9
 298              	.LVL34:
 299 01b0 13010102 		addi	sp,sp,32
 300              		.cfi_def_cfa_offset 0
 301 01b4 67800000 		jr	ra
 302              		.cfi_endproc
 303              	.LFE41:
 305              		.section	.rodata.str1.8
 306 0016 0000     		.align	3
 307              	.LC3:
 308 0018 433A2069 		.string	"C: i="
 308      3D00
 309 001e 0000     		.align	3
 310              	.LC4:
 311 0020 433A2079 		.string	"C: yield\n"
 311      69656C64 
 311      0A00
 312 002a 00000000 		.align	3
 312      0000
 313              	.LC5:
 314 0030 433A2074 		.string	"C: t1="
 314      313D00
 315 0037 00       		.align	3
 316              	.LC6:
 317 0038 433A2066 		.string	"C: fibonaci="
 317      69626F6E 
 317      6163693D 
 317      00
 318              		.text
 319              		.align	2
 320              		.globl	_Z11workerBodyCPv
 322              	_Z11workerBodyCPv:
 323              	.LFB43:
  52:src/workers.cpp **** 
  53:src/workers.cpp **** void workerBodyC(void* g)
  54:src/workers.cpp **** {
 324              		.loc 1 54 1 is_stmt 1
 325              		.cfi_startproc
 326              	.LVL35:
 327 01b8 130101FE 		addi	sp,sp,-32
 328              		.cfi_def_cfa_offset 32
 329 01bc 233C1100 		sd	ra,24(sp)
 330 01c0 23388100 		sd	s0,16(sp)
 331 01c4 23349100 		sd	s1,8(sp)
 332 01c8 23302101 		sd	s2,0(sp)
 333              		.cfi_offset 1, -8
 334              		.cfi_offset 8, -16
 335              		.cfi_offset 9, -24
 336              		.cfi_offset 18, -32
 337 01cc 13040102 		addi	s0,sp,32
 338              		.cfi_def_cfa 8, 0
  55:src/workers.cpp ****     uint8 i = 0;
 339              		.loc 1 55 5
 340              	.LVL36:
GAS LISTING /tmp/ccQWeaXc.s 			page 9


 341              		.loc 1 55 11 is_stmt 0
 342 01d0 93040000 		li	s1,0
 343 01d4 6F008003 		j	.L27
 344              	.LVL37:
 345              	.L31:
  56:src/workers.cpp ****     for (; i < 3; i++)
  57:src/workers.cpp ****     {
  58:src/workers.cpp ****         printString("C: i=");
 346              		.loc 1 58 9 is_stmt 1 discriminator 1
 347              		.loc 1 58 20 is_stmt 0 discriminator 1
 348 01d8 17050000 		lla	a0,.LC3
 348      13050500 
 349 01e0 97000000 		call	_Z11printStringPKc@plt
 349      E7800000 
 350              	.LVL38:
  59:src/workers.cpp ****         printInteger(i);
 351              		.loc 1 59 9 is_stmt 1 discriminator 1
 352              		.loc 1 59 21 is_stmt 0 discriminator 1
 353 01e8 13850400 		mv	a0,s1
 354 01ec 97000000 		call	_Z12printIntegerm@plt
 354      E7800000 
 355              	.LVL39:
  60:src/workers.cpp ****         printString("\n");
 356              		.loc 1 60 9 is_stmt 1 discriminator 1
 357              		.loc 1 60 20 is_stmt 0 discriminator 1
 358 01f4 17050000 		lla	a0,.LC1
 358      13050500 
 359 01fc 97000000 		call	_Z11printStringPKc@plt
 359      E7800000 
 360              	.LVL40:
  56:src/workers.cpp ****     for (; i < 3; i++)
 361              		.loc 1 56 5 is_stmt 1 discriminator 1
 362 0204 9B841400 		addiw	s1,s1,1
 363              	.LVL41:
 364 0208 93F4F40F 		andi	s1,s1,0xff
 365              	.LVL42:
 366              	.L27:
  56:src/workers.cpp ****     for (; i < 3; i++)
 367              		.loc 1 56 5 discriminator 2
  56:src/workers.cpp ****     for (; i < 3; i++)
 368              		.loc 1 56 14 discriminator 2
 369 020c 93072000 		li	a5,2
 370 0210 E3F497FC 		bleu	s1,a5,.L31
  61:src/workers.cpp ****     }
  62:src/workers.cpp **** 
  63:src/workers.cpp ****     printString("C: yield\n");
 371              		.loc 1 63 5
 372              		.loc 1 63 16 is_stmt 0
 373 0214 17050000 		lla	a0,.LC4
 373      13050500 
 374 021c 97000000 		call	_Z11printStringPKc@plt
 374      E7800000 
 375              	.LVL43:
  64:src/workers.cpp ****     __asm__ ("li t1, 7");
 376              		.loc 1 64 5 is_stmt 1
 377              		.loc 1 64 25 is_stmt 0
 378              	#APP
GAS LISTING /tmp/ccQWeaXc.s 			page 10


 379              	# 64 "src/workers.cpp" 1
  65              	    thread_dispatch();
 380              		li t1, 7
 381              	# 0 "" 2
 382              		.loc 1 65 5 is_stmt 1
 383              		.loc 1 65 20 is_stmt 0
 384              	#NO_APP
 385 0228 97000000 		call	_Z15thread_dispatchv@plt
 385      E7800000 
 386              	.LVL44:
  66:src/workers.cpp **** 
  67:src/workers.cpp ****     uint64 t1 = 0;
 387              		.loc 1 67 5 is_stmt 1
  68:src/workers.cpp ****     __asm__ ("mv %[t1], t1" : [t1] "=r"(t1));
 388              		.loc 1 68 5
 389              		.loc 1 68 45 is_stmt 0
 390              	#APP
 391              	# 68 "src/workers.cpp" 1
  69              	
 392              		mv s2, t1
 393              	# 0 "" 2
 394              	.LVL45:
  70:src/workers.cpp ****     printString("C: t1=");
 395              		.loc 1 70 5 is_stmt 1
 396              		.loc 1 70 16 is_stmt 0
 397              	#NO_APP
 398 0234 17050000 		lla	a0,.LC5
 398      13050500 
 399 023c 97000000 		call	_Z11printStringPKc@plt
 399      E7800000 
 400              	.LVL46:
  71:src/workers.cpp ****     printInteger(t1);
 401              		.loc 1 71 5 is_stmt 1
 402              		.loc 1 71 17 is_stmt 0
 403 0244 13050900 		mv	a0,s2
 404 0248 97000000 		call	_Z12printIntegerm@plt
 404      E7800000 
 405              	.LVL47:
  72:src/workers.cpp ****     printString("\n");
 406              		.loc 1 72 5 is_stmt 1
 407              		.loc 1 72 16 is_stmt 0
 408 0250 17050000 		lla	a0,.LC1
 408      13050500 
 409 0258 97000000 		call	_Z11printStringPKc@plt
 409      E7800000 
 410              	.LVL48:
  73:src/workers.cpp **** 
  74:src/workers.cpp ****     uint64 result = fibonacci(12);
 411              		.loc 1 74 5 is_stmt 1
 412              		.loc 1 74 30 is_stmt 0
 413 0260 1305C000 		li	a0,12
 414 0264 97000000 		call	_ZL9fibonaccim
 414      E7800000 
 415              	.LVL49:
 416 026c 13090500 		mv	s2,a0
 417              	.LVL50:
  75:src/workers.cpp ****     printString("C: fibonaci=");
GAS LISTING /tmp/ccQWeaXc.s 			page 11


 418              		.loc 1 75 5 is_stmt 1
 419              		.loc 1 75 16 is_stmt 0
 420 0270 17050000 		lla	a0,.LC6
 420      13050500 
 421              	.LVL51:
 422 0278 97000000 		call	_Z11printStringPKc@plt
 422      E7800000 
 423              	.LVL52:
  76:src/workers.cpp ****     printInteger(result);
 424              		.loc 1 76 5 is_stmt 1
 425              		.loc 1 76 17 is_stmt 0
 426 0280 13050900 		mv	a0,s2
 427 0284 97000000 		call	_Z12printIntegerm@plt
 427      E7800000 
 428              	.LVL53:
  77:src/workers.cpp ****     printString("\n");
 429              		.loc 1 77 5 is_stmt 1
 430              		.loc 1 77 16 is_stmt 0
 431 028c 17050000 		lla	a0,.LC1
 431      13050500 
 432 0294 97000000 		call	_Z11printStringPKc@plt
 432      E7800000 
 433              	.LVL54:
 434 029c 6F008003 		j	.L29
 435              	.L32:
  78:src/workers.cpp **** 
  79:src/workers.cpp ****     for (; i < 6; i++)
  80:src/workers.cpp ****     {
  81:src/workers.cpp ****         printString("C: i=");
 436              		.loc 1 81 9 is_stmt 1 discriminator 1
 437              		.loc 1 81 20 is_stmt 0 discriminator 1
 438 02a0 17050000 		lla	a0,.LC3
 438      13050500 
 439 02a8 97000000 		call	_Z11printStringPKc@plt
 439      E7800000 
 440              	.LVL55:
  82:src/workers.cpp ****         printInteger(i);
 441              		.loc 1 82 9 is_stmt 1 discriminator 1
 442              		.loc 1 82 21 is_stmt 0 discriminator 1
 443 02b0 13850400 		mv	a0,s1
 444 02b4 97000000 		call	_Z12printIntegerm@plt
 444      E7800000 
 445              	.LVL56:
  83:src/workers.cpp ****         printString("\n");
 446              		.loc 1 83 9 is_stmt 1 discriminator 1
 447              		.loc 1 83 20 is_stmt 0 discriminator 1
 448 02bc 17050000 		lla	a0,.LC1
 448      13050500 
 449 02c4 97000000 		call	_Z11printStringPKc@plt
 449      E7800000 
 450              	.LVL57:
  79:src/workers.cpp ****     {
 451              		.loc 1 79 5 is_stmt 1 discriminator 1
 452 02cc 9B841400 		addiw	s1,s1,1
 453              	.LVL58:
 454 02d0 93F4F40F 		andi	s1,s1,0xff
 455              	.LVL59:
GAS LISTING /tmp/ccQWeaXc.s 			page 12


 456              	.L29:
  79:src/workers.cpp ****     {
 457              		.loc 1 79 5 discriminator 2
  79:src/workers.cpp ****     {
 458              		.loc 1 79 14 discriminator 2
 459 02d4 93075000 		li	a5,5
 460 02d8 E3F497FC 		bleu	s1,a5,.L32
  84:src/workers.cpp ****     }
  85:src/workers.cpp **** //    TCB::yield();
  86:src/workers.cpp **** }
 461              		.loc 1 86 1 is_stmt 0
 462 02dc 83308101 		ld	ra,24(sp)
 463              		.cfi_restore 1
 464 02e0 03340101 		ld	s0,16(sp)
 465              		.cfi_restore 8
 466              		.cfi_def_cfa 2, 32
 467 02e4 83348100 		ld	s1,8(sp)
 468              		.cfi_restore 9
 469              	.LVL60:
 470 02e8 03390100 		ld	s2,0(sp)
 471              		.cfi_restore 18
 472              	.LVL61:
 473 02ec 13010102 		addi	sp,sp,32
 474              		.cfi_def_cfa_offset 0
 475 02f0 67800000 		jr	ra
 476              		.cfi_endproc
 477              	.LFE43:
 479              		.section	.rodata.str1.8
 480 0045 000000   		.align	3
 481              	.LC7:
 482 0048 443A2069 		.string	"D: i="
 482      3D00
 483 004e 0000     		.align	3
 484              	.LC8:
 485 0050 443A2079 		.string	"D: yield\n"
 485      69656C64 
 485      0A00
 486 005a 00000000 		.align	3
 486      0000
 487              	.LC9:
 488 0060 443A2066 		.string	"D: fibonaci="
 488      69626F6E 
 488      6163693D 
 488      00
 489              		.text
 490              		.align	2
 491              		.globl	_Z11workerBodyDPv
 493              	_Z11workerBodyDPv:
 494              	.LFB44:
  87:src/workers.cpp **** 
  88:src/workers.cpp **** void workerBodyD(void* g)
  89:src/workers.cpp **** {
 495              		.loc 1 89 1 is_stmt 1
 496              		.cfi_startproc
 497              	.LVL62:
 498 02f4 130101FE 		addi	sp,sp,-32
 499              		.cfi_def_cfa_offset 32
GAS LISTING /tmp/ccQWeaXc.s 			page 13


 500 02f8 233C1100 		sd	ra,24(sp)
 501 02fc 23388100 		sd	s0,16(sp)
 502 0300 23349100 		sd	s1,8(sp)
 503 0304 23302101 		sd	s2,0(sp)
 504              		.cfi_offset 1, -8
 505              		.cfi_offset 8, -16
 506              		.cfi_offset 9, -24
 507              		.cfi_offset 18, -32
 508 0308 13040102 		addi	s0,sp,32
 509              		.cfi_def_cfa 8, 0
  90:src/workers.cpp ****     uint8 i = 10;
 510              		.loc 1 90 5
 511              	.LVL63:
 512              		.loc 1 90 11 is_stmt 0
 513 030c 9304A000 		li	s1,10
 514 0310 6F008003 		j	.L35
 515              	.LVL64:
 516              	.L39:
  91:src/workers.cpp ****     for (; i < 13; i++)
  92:src/workers.cpp ****     {
  93:src/workers.cpp ****         printString("D: i=");
 517              		.loc 1 93 9 is_stmt 1 discriminator 1
 518              		.loc 1 93 20 is_stmt 0 discriminator 1
 519 0314 17050000 		lla	a0,.LC7
 519      13050500 
 520 031c 97000000 		call	_Z11printStringPKc@plt
 520      E7800000 
 521              	.LVL65:
  94:src/workers.cpp ****         printInteger(i);
 522              		.loc 1 94 9 is_stmt 1 discriminator 1
 523              		.loc 1 94 21 is_stmt 0 discriminator 1
 524 0324 13850400 		mv	a0,s1
 525 0328 97000000 		call	_Z12printIntegerm@plt
 525      E7800000 
 526              	.LVL66:
  95:src/workers.cpp ****         printString("\n");
 527              		.loc 1 95 9 is_stmt 1 discriminator 1
 528              		.loc 1 95 20 is_stmt 0 discriminator 1
 529 0330 17050000 		lla	a0,.LC1
 529      13050500 
 530 0338 97000000 		call	_Z11printStringPKc@plt
 530      E7800000 
 531              	.LVL67:
  91:src/workers.cpp ****     for (; i < 13; i++)
 532              		.loc 1 91 5 is_stmt 1 discriminator 1
 533 0340 9B841400 		addiw	s1,s1,1
 534              	.LVL68:
 535 0344 93F4F40F 		andi	s1,s1,0xff
 536              	.LVL69:
 537              	.L35:
  91:src/workers.cpp ****     for (; i < 13; i++)
 538              		.loc 1 91 5 discriminator 2
  91:src/workers.cpp ****     for (; i < 13; i++)
 539              		.loc 1 91 14 discriminator 2
 540 0348 9307C000 		li	a5,12
 541 034c E3F497FC 		bleu	s1,a5,.L39
  96:src/workers.cpp ****     }
GAS LISTING /tmp/ccQWeaXc.s 			page 14


  97:src/workers.cpp **** 
  98:src/workers.cpp ****     printString("D: yield\n");
 542              		.loc 1 98 5
 543              		.loc 1 98 16 is_stmt 0
 544 0350 17050000 		lla	a0,.LC8
 544      13050500 
 545 0358 97000000 		call	_Z11printStringPKc@plt
 545      E7800000 
 546              	.LVL70:
  99:src/workers.cpp ****     __asm__ ("li t1, 5");
 547              		.loc 1 99 5 is_stmt 1
 548              		.loc 1 99 25 is_stmt 0
 549              	#APP
 550              	# 99 "src/workers.cpp" 1
 100              	    thread_dispatch();
 551              		li t1, 5
 552              	# 0 "" 2
 553              		.loc 1 100 5 is_stmt 1
 554              		.loc 1 100 20 is_stmt 0
 555              	#NO_APP
 556 0364 97000000 		call	_Z15thread_dispatchv@plt
 556      E7800000 
 557              	.LVL71:
 101:src/workers.cpp **** 
 102:src/workers.cpp ****     uint64 result = fibonacci(16);
 558              		.loc 1 102 5 is_stmt 1
 559              		.loc 1 102 30 is_stmt 0
 560 036c 13050001 		li	a0,16
 561 0370 97000000 		call	_ZL9fibonaccim
 561      E7800000 
 562              	.LVL72:
 563 0378 13090500 		mv	s2,a0
 564              	.LVL73:
 103:src/workers.cpp ****     printString("D: fibonaci=");
 565              		.loc 1 103 5 is_stmt 1
 566              		.loc 1 103 16 is_stmt 0
 567 037c 17050000 		lla	a0,.LC9
 567      13050500 
 568              	.LVL74:
 569 0384 97000000 		call	_Z11printStringPKc@plt
 569      E7800000 
 570              	.LVL75:
 104:src/workers.cpp ****     printInteger(result);
 571              		.loc 1 104 5 is_stmt 1
 572              		.loc 1 104 17 is_stmt 0
 573 038c 13050900 		mv	a0,s2
 574 0390 97000000 		call	_Z12printIntegerm@plt
 574      E7800000 
 575              	.LVL76:
 105:src/workers.cpp ****     printString("\n");
 576              		.loc 1 105 5 is_stmt 1
 577              		.loc 1 105 16 is_stmt 0
 578 0398 17050000 		lla	a0,.LC1
 578      13050500 
 579 03a0 97000000 		call	_Z11printStringPKc@plt
 579      E7800000 
 580              	.LVL77:
GAS LISTING /tmp/ccQWeaXc.s 			page 15


 581 03a8 6F008003 		j	.L37
 582              	.L40:
 106:src/workers.cpp **** 
 107:src/workers.cpp ****     for (; i < 16; i++)
 108:src/workers.cpp ****     {
 109:src/workers.cpp ****         printString("D: i=");
 583              		.loc 1 109 9 is_stmt 1 discriminator 1
 584              		.loc 1 109 20 is_stmt 0 discriminator 1
 585 03ac 17050000 		lla	a0,.LC7
 585      13050500 
 586 03b4 97000000 		call	_Z11printStringPKc@plt
 586      E7800000 
 587              	.LVL78:
 110:src/workers.cpp ****         printInteger(i);
 588              		.loc 1 110 9 is_stmt 1 discriminator 1
 589              		.loc 1 110 21 is_stmt 0 discriminator 1
 590 03bc 13850400 		mv	a0,s1
 591 03c0 97000000 		call	_Z12printIntegerm@plt
 591      E7800000 
 592              	.LVL79:
 111:src/workers.cpp ****         printString("\n");
 593              		.loc 1 111 9 is_stmt 1 discriminator 1
 594              		.loc 1 111 20 is_stmt 0 discriminator 1
 595 03c8 17050000 		lla	a0,.LC1
 595      13050500 
 596 03d0 97000000 		call	_Z11printStringPKc@plt
 596      E7800000 
 597              	.LVL80:
 107:src/workers.cpp ****     {
 598              		.loc 1 107 5 is_stmt 1 discriminator 1
 599 03d8 9B841400 		addiw	s1,s1,1
 600              	.LVL81:
 601 03dc 93F4F40F 		andi	s1,s1,0xff
 602              	.LVL82:
 603              	.L37:
 107:src/workers.cpp ****     {
 604              		.loc 1 107 5 discriminator 2
 107:src/workers.cpp ****     {
 605              		.loc 1 107 14 discriminator 2
 606 03e0 9307F000 		li	a5,15
 607 03e4 E3F497FC 		bleu	s1,a5,.L40
 112:src/workers.cpp ****     }
 113:src/workers.cpp **** //    TCB::yield();
 114:src/workers.cpp **** }...
 608              		.loc 1 114 1 is_stmt 0
 609 03e8 83308101 		ld	ra,24(sp)
 610              		.cfi_restore 1
 611 03ec 03340101 		ld	s0,16(sp)
 612              		.cfi_restore 8
 613              		.cfi_def_cfa 2, 32
 614 03f0 83348100 		ld	s1,8(sp)
 615              		.cfi_restore 9
 616              	.LVL83:
 617 03f4 03390100 		ld	s2,0(sp)
 618              		.cfi_restore 18
 619              	.LVL84:
 620 03f8 13010102 		addi	sp,sp,32
GAS LISTING /tmp/ccQWeaXc.s 			page 16


 621              		.cfi_def_cfa_offset 0
 622 03fc 67800000 		jr	ra
 623              		.cfi_endproc
 624              	.LFE44:
 626              	.Letext0:
 627              		.file 2 "src/../lib/hw.h"
 628              		.file 3 "src/../h/tcb.hpp"
 629              		.file 4 "src/../h/syscall_c.hpp"
 630              		.file 5 "src/../h/print.hpp"
GAS LISTING /tmp/ccQWeaXc.s 			page 17


DEFINED SYMBOLS
                            *ABS*:0000000000000000 workers.cpp
     /tmp/ccQWeaXc.s:8      .text:0000000000000000 _ZL9fibonaccim
     /tmp/ccQWeaXc.s:12     .text:0000000000000000 .L0 
     /tmp/ccQWeaXc.s:14     .text:0000000000000000 .L0 
     /tmp/ccQWeaXc.s:15     .text:0000000000000004 .L0 
     /tmp/ccQWeaXc.s:20     .text:0000000000000014 .L0 
     /tmp/ccQWeaXc.s:21     .text:0000000000000014 .L0 
     /tmp/ccQWeaXc.s:22     .text:0000000000000014 .L0 
     /tmp/ccQWeaXc.s:23     .text:0000000000000014 .L0 
     /tmp/ccQWeaXc.s:25     .text:0000000000000018 .L0 
     /tmp/ccQWeaXc.s:28     .text:000000000000001c .L0 
     /tmp/ccQWeaXc.s:31     .text:0000000000000024 .L0 
     /tmp/ccQWeaXc.s:32     .text:0000000000000024 .L0 
     /tmp/ccQWeaXc.s:35     .text:000000000000002c .L0 
     /tmp/ccQWeaXc.s:39     .text:0000000000000030 .L0 
     /tmp/ccQWeaXc.s:40     .text:0000000000000030 .L0 
     /tmp/ccQWeaXc.s:45     .text:0000000000000040 .L0 
     /tmp/ccQWeaXc.s:49     .text:000000000000004c .L0 
     /tmp/ccQWeaXc.s:52     .text:0000000000000050 .L0 
     /tmp/ccQWeaXc.s:53     .text:0000000000000054 .L0 
     /tmp/ccQWeaXc.s:54     .text:0000000000000054 .L0 
     /tmp/ccQWeaXc.s:56     .text:0000000000000058 .L0 
     /tmp/ccQWeaXc.s:57     .text:0000000000000058 .L0 
     /tmp/ccQWeaXc.s:59     .text:000000000000005c .L0 
     /tmp/ccQWeaXc.s:62     .text:0000000000000060 .L0 
     /tmp/ccQWeaXc.s:64     .text:0000000000000064 .L0 
     /tmp/ccQWeaXc.s:68     .text:0000000000000068 .L0 
     /tmp/ccQWeaXc.s:70     .text:0000000000000068 .L0 
     /tmp/ccQWeaXc.s:71     .text:0000000000000068 .L0 
     /tmp/ccQWeaXc.s:74     .text:0000000000000074 .L0 
     /tmp/ccQWeaXc.s:88     .text:0000000000000074 _Z11workerBodyAPv
     /tmp/ccQWeaXc.s:91     .text:0000000000000074 .L0 
     /tmp/ccQWeaXc.s:93     .text:0000000000000074 .L0 
     /tmp/ccQWeaXc.s:94     .text:0000000000000078 .L0 
     /tmp/ccQWeaXc.s:98     .text:0000000000000084 .L0 
     /tmp/ccQWeaXc.s:99     .text:0000000000000084 .L0 
     /tmp/ccQWeaXc.s:100    .text:0000000000000084 .L0 
     /tmp/ccQWeaXc.s:102    .text:0000000000000088 .L0 
     /tmp/ccQWeaXc.s:106    .text:0000000000000088 .L0 
     /tmp/ccQWeaXc.s:107    .text:0000000000000088 .L0 
     /tmp/ccQWeaXc.s:114    .text:0000000000000090 .L0 
     /tmp/ccQWeaXc.s:118    .text:0000000000000094 .L0 
     /tmp/ccQWeaXc.s:123    .text:00000000000000a0 .L0 
     /tmp/ccQWeaXc.s:127    .text:00000000000000a4 .L0 
     /tmp/ccQWeaXc.s:131    .text:00000000000000b0 .L0 
     /tmp/ccQWeaXc.s:140    .text:00000000000000b8 .L0 
     /tmp/ccQWeaXc.s:144    .text:00000000000000bc .L0 
     /tmp/ccQWeaXc.s:148    .text:00000000000000c4 .L0 
     /tmp/ccQWeaXc.s:149    .text:00000000000000c4 .L0 
     /tmp/ccQWeaXc.s:153    .text:00000000000000d4 .L0 
     /tmp/ccQWeaXc.s:154    .text:00000000000000d4 .L0 
     /tmp/ccQWeaXc.s:158    .text:00000000000000e0 .L0 
     /tmp/ccQWeaXc.s:159    .text:00000000000000e0 .L0 
     /tmp/ccQWeaXc.s:164    .text:00000000000000f0 .L0 
     /tmp/ccQWeaXc.s:165    .text:00000000000000f0 .L0 
     /tmp/ccQWeaXc.s:173    .text:00000000000000f8 .L0 
GAS LISTING /tmp/ccQWeaXc.s 			page 18


     /tmp/ccQWeaXc.s:174    .text:00000000000000fc .L0 
     /tmp/ccQWeaXc.s:176    .text:0000000000000100 .L0 
     /tmp/ccQWeaXc.s:177    .text:0000000000000100 .L0 
     /tmp/ccQWeaXc.s:179    .text:0000000000000104 .L0 
     /tmp/ccQWeaXc.s:182    .text:0000000000000108 .L0 
     /tmp/ccQWeaXc.s:184    .text:000000000000010c .L0 
     /tmp/ccQWeaXc.s:195    .text:000000000000010c _Z11workerBodyBPv
     /tmp/ccQWeaXc.s:198    .text:000000000000010c .L0 
     /tmp/ccQWeaXc.s:200    .text:000000000000010c .L0 
     /tmp/ccQWeaXc.s:201    .text:0000000000000110 .L0 
     /tmp/ccQWeaXc.s:205    .text:000000000000011c .L0 
     /tmp/ccQWeaXc.s:206    .text:000000000000011c .L0 
     /tmp/ccQWeaXc.s:207    .text:000000000000011c .L0 
     /tmp/ccQWeaXc.s:209    .text:0000000000000120 .L0 
     /tmp/ccQWeaXc.s:213    .text:0000000000000120 .L0 
     /tmp/ccQWeaXc.s:214    .text:0000000000000120 .L0 
     /tmp/ccQWeaXc.s:221    .text:0000000000000128 .L0 
     /tmp/ccQWeaXc.s:225    .text:000000000000012c .L0 
     /tmp/ccQWeaXc.s:230    .text:0000000000000138 .L0 
     /tmp/ccQWeaXc.s:234    .text:000000000000013c .L0 
     /tmp/ccQWeaXc.s:238    .text:0000000000000148 .L0 
     /tmp/ccQWeaXc.s:246    .text:0000000000000150 .L0 
     /tmp/ccQWeaXc.s:252    .text:0000000000000158 .L0 
     /tmp/ccQWeaXc.s:256    .text:000000000000015c .L0 
     /tmp/ccQWeaXc.s:260    .text:0000000000000164 .L0 
     /tmp/ccQWeaXc.s:261    .text:0000000000000164 .L0 
     /tmp/ccQWeaXc.s:265    .text:0000000000000174 .L0 
     /tmp/ccQWeaXc.s:266    .text:0000000000000174 .L0 
     /tmp/ccQWeaXc.s:270    .text:0000000000000180 .L0 
     /tmp/ccQWeaXc.s:271    .text:0000000000000180 .L0 
     /tmp/ccQWeaXc.s:276    .text:0000000000000190 .L0 
     /tmp/ccQWeaXc.s:277    .text:0000000000000190 .L0 
     /tmp/ccQWeaXc.s:283    .text:0000000000000198 .L0 
     /tmp/ccQWeaXc.s:284    .text:0000000000000198 .L0 
     /tmp/ccQWeaXc.s:291    .text:00000000000001a4 .L0 
     /tmp/ccQWeaXc.s:292    .text:00000000000001a8 .L0 
     /tmp/ccQWeaXc.s:294    .text:00000000000001ac .L0 
     /tmp/ccQWeaXc.s:295    .text:00000000000001ac .L0 
     /tmp/ccQWeaXc.s:297    .text:00000000000001b0 .L0 
     /tmp/ccQWeaXc.s:300    .text:00000000000001b4 .L0 
     /tmp/ccQWeaXc.s:302    .text:00000000000001b8 .L0 
     /tmp/ccQWeaXc.s:322    .text:00000000000001b8 _Z11workerBodyCPv
     /tmp/ccQWeaXc.s:325    .text:00000000000001b8 .L0 
     /tmp/ccQWeaXc.s:327    .text:00000000000001b8 .L0 
     /tmp/ccQWeaXc.s:328    .text:00000000000001bc .L0 
     /tmp/ccQWeaXc.s:333    .text:00000000000001cc .L0 
     /tmp/ccQWeaXc.s:334    .text:00000000000001cc .L0 
     /tmp/ccQWeaXc.s:335    .text:00000000000001cc .L0 
     /tmp/ccQWeaXc.s:336    .text:00000000000001cc .L0 
     /tmp/ccQWeaXc.s:338    .text:00000000000001d0 .L0 
     /tmp/ccQWeaXc.s:341    .text:00000000000001d0 .L0 
     /tmp/ccQWeaXc.s:342    .text:00000000000001d0 .L0 
     /tmp/ccQWeaXc.s:347    .text:00000000000001d8 .L0 
     /tmp/ccQWeaXc.s:348    .text:00000000000001d8 .L0 
     /tmp/ccQWeaXc.s:352    .text:00000000000001e8 .L0 
     /tmp/ccQWeaXc.s:353    .text:00000000000001e8 .L0 
     /tmp/ccQWeaXc.s:357    .text:00000000000001f4 .L0 
GAS LISTING /tmp/ccQWeaXc.s 			page 19


     /tmp/ccQWeaXc.s:358    .text:00000000000001f4 .L0 
     /tmp/ccQWeaXc.s:362    .text:0000000000000204 .L0 
     /tmp/ccQWeaXc.s:368    .text:000000000000020c .L0 
     /tmp/ccQWeaXc.s:369    .text:000000000000020c .L0 
     /tmp/ccQWeaXc.s:372    .text:0000000000000214 .L0 
     /tmp/ccQWeaXc.s:373    .text:0000000000000214 .L0 
     /tmp/ccQWeaXc.s:377    .text:0000000000000224 .L0 
     src/workers.cpp:64     .text:0000000000000224 .L0 
     /tmp/ccQWeaXc.s:383    .text:0000000000000228 .L0 
     /tmp/ccQWeaXc.s:385    .text:0000000000000228 .L0 
     /tmp/ccQWeaXc.s:388    .text:0000000000000230 .L0 
     /tmp/ccQWeaXc.s:389    .text:0000000000000230 .L0 
     src/workers.cpp:68     .text:0000000000000230 .L0 
     /tmp/ccQWeaXc.s:396    .text:0000000000000234 .L0 
     /tmp/ccQWeaXc.s:398    .text:0000000000000234 .L0 
     /tmp/ccQWeaXc.s:402    .text:0000000000000244 .L0 
     /tmp/ccQWeaXc.s:403    .text:0000000000000244 .L0 
     /tmp/ccQWeaXc.s:407    .text:0000000000000250 .L0 
     /tmp/ccQWeaXc.s:408    .text:0000000000000250 .L0 
     /tmp/ccQWeaXc.s:412    .text:0000000000000260 .L0 
     /tmp/ccQWeaXc.s:413    .text:0000000000000260 .L0 
     /tmp/ccQWeaXc.s:419    .text:0000000000000270 .L0 
     /tmp/ccQWeaXc.s:420    .text:0000000000000270 .L0 
     /tmp/ccQWeaXc.s:425    .text:0000000000000280 .L0 
     /tmp/ccQWeaXc.s:426    .text:0000000000000280 .L0 
     /tmp/ccQWeaXc.s:430    .text:000000000000028c .L0 
     /tmp/ccQWeaXc.s:431    .text:000000000000028c .L0 
     /tmp/ccQWeaXc.s:437    .text:00000000000002a0 .L0 
     /tmp/ccQWeaXc.s:438    .text:00000000000002a0 .L0 
     /tmp/ccQWeaXc.s:442    .text:00000000000002b0 .L0 
     /tmp/ccQWeaXc.s:443    .text:00000000000002b0 .L0 
     /tmp/ccQWeaXc.s:447    .text:00000000000002bc .L0 
     /tmp/ccQWeaXc.s:448    .text:00000000000002bc .L0 
     /tmp/ccQWeaXc.s:452    .text:00000000000002cc .L0 
     /tmp/ccQWeaXc.s:458    .text:00000000000002d4 .L0 
     /tmp/ccQWeaXc.s:459    .text:00000000000002d4 .L0 
     /tmp/ccQWeaXc.s:462    .text:00000000000002dc .L0 
     /tmp/ccQWeaXc.s:463    .text:00000000000002e0 .L0 
     /tmp/ccQWeaXc.s:465    .text:00000000000002e4 .L0 
     /tmp/ccQWeaXc.s:466    .text:00000000000002e4 .L0 
     /tmp/ccQWeaXc.s:468    .text:00000000000002e8 .L0 
     /tmp/ccQWeaXc.s:471    .text:00000000000002ec .L0 
     /tmp/ccQWeaXc.s:474    .text:00000000000002f0 .L0 
     /tmp/ccQWeaXc.s:476    .text:00000000000002f4 .L0 
     /tmp/ccQWeaXc.s:493    .text:00000000000002f4 _Z11workerBodyDPv
     /tmp/ccQWeaXc.s:496    .text:00000000000002f4 .L0 
     /tmp/ccQWeaXc.s:498    .text:00000000000002f4 .L0 
     /tmp/ccQWeaXc.s:499    .text:00000000000002f8 .L0 
     /tmp/ccQWeaXc.s:504    .text:0000000000000308 .L0 
     /tmp/ccQWeaXc.s:505    .text:0000000000000308 .L0 
     /tmp/ccQWeaXc.s:506    .text:0000000000000308 .L0 
     /tmp/ccQWeaXc.s:507    .text:0000000000000308 .L0 
     /tmp/ccQWeaXc.s:509    .text:000000000000030c .L0 
     /tmp/ccQWeaXc.s:512    .text:000000000000030c .L0 
     /tmp/ccQWeaXc.s:513    .text:000000000000030c .L0 
     /tmp/ccQWeaXc.s:518    .text:0000000000000314 .L0 
     /tmp/ccQWeaXc.s:519    .text:0000000000000314 .L0 
GAS LISTING /tmp/ccQWeaXc.s 			page 20


     /tmp/ccQWeaXc.s:523    .text:0000000000000324 .L0 
     /tmp/ccQWeaXc.s:524    .text:0000000000000324 .L0 
     /tmp/ccQWeaXc.s:528    .text:0000000000000330 .L0 
     /tmp/ccQWeaXc.s:529    .text:0000000000000330 .L0 
     /tmp/ccQWeaXc.s:533    .text:0000000000000340 .L0 
     /tmp/ccQWeaXc.s:539    .text:0000000000000348 .L0 
     /tmp/ccQWeaXc.s:540    .text:0000000000000348 .L0 
     /tmp/ccQWeaXc.s:543    .text:0000000000000350 .L0 
     /tmp/ccQWeaXc.s:544    .text:0000000000000350 .L0 
     /tmp/ccQWeaXc.s:548    .text:0000000000000360 .L0 
     src/workers.cpp:99     .text:0000000000000360 .L0 
     /tmp/ccQWeaXc.s:554    .text:0000000000000364 .L0 
     /tmp/ccQWeaXc.s:556    .text:0000000000000364 .L0 
     /tmp/ccQWeaXc.s:559    .text:000000000000036c .L0 
     /tmp/ccQWeaXc.s:560    .text:000000000000036c .L0 
     /tmp/ccQWeaXc.s:566    .text:000000000000037c .L0 
     /tmp/ccQWeaXc.s:567    .text:000000000000037c .L0 
     /tmp/ccQWeaXc.s:572    .text:000000000000038c .L0 
     /tmp/ccQWeaXc.s:573    .text:000000000000038c .L0 
     /tmp/ccQWeaXc.s:577    .text:0000000000000398 .L0 
     /tmp/ccQWeaXc.s:578    .text:0000000000000398 .L0 
     /tmp/ccQWeaXc.s:584    .text:00000000000003ac .L0 
     /tmp/ccQWeaXc.s:585    .text:00000000000003ac .L0 
     /tmp/ccQWeaXc.s:589    .text:00000000000003bc .L0 
     /tmp/ccQWeaXc.s:590    .text:00000000000003bc .L0 
     /tmp/ccQWeaXc.s:594    .text:00000000000003c8 .L0 
     /tmp/ccQWeaXc.s:595    .text:00000000000003c8 .L0 
     /tmp/ccQWeaXc.s:599    .text:00000000000003d8 .L0 
     /tmp/ccQWeaXc.s:605    .text:00000000000003e0 .L0 
     /tmp/ccQWeaXc.s:606    .text:00000000000003e0 .L0 
     /tmp/ccQWeaXc.s:609    .text:00000000000003e8 .L0 
     /tmp/ccQWeaXc.s:610    .text:00000000000003ec .L0 
     /tmp/ccQWeaXc.s:612    .text:00000000000003f0 .L0 
     /tmp/ccQWeaXc.s:613    .text:00000000000003f0 .L0 
     /tmp/ccQWeaXc.s:615    .text:00000000000003f4 .L0 
     /tmp/ccQWeaXc.s:618    .text:00000000000003f8 .L0 
     /tmp/ccQWeaXc.s:621    .text:00000000000003fc .L0 
     /tmp/ccQWeaXc.s:623    .text:0000000000000400 .L0 
     /tmp/ccQWeaXc.s:631    .text:0000000000000400 .L0 
     /tmp/ccQWeaXc.s:79     .rodata.str1.8:0000000000000000 .LC0
     /tmp/ccQWeaXc.s:149    .text:00000000000000c4 .L0 
     /tmp/ccQWeaXc.s:82     .rodata.str1.8:0000000000000008 .LC1
     /tmp/ccQWeaXc.s:159    .text:00000000000000e0 .L0 
     /tmp/ccQWeaXc.s:189    .rodata.str1.8:0000000000000010 .LC2
     /tmp/ccQWeaXc.s:261    .text:0000000000000164 .L0 
     /tmp/ccQWeaXc.s:271    .text:0000000000000180 .L0 
     /tmp/ccQWeaXc.s:307    .rodata.str1.8:0000000000000018 .LC3
     /tmp/ccQWeaXc.s:348    .text:00000000000001d8 .L0 
     /tmp/ccQWeaXc.s:358    .text:00000000000001f4 .L0 
     /tmp/ccQWeaXc.s:310    .rodata.str1.8:0000000000000020 .LC4
     /tmp/ccQWeaXc.s:373    .text:0000000000000214 .L0 
     /tmp/ccQWeaXc.s:313    .rodata.str1.8:0000000000000030 .LC5
     /tmp/ccQWeaXc.s:398    .text:0000000000000234 .L0 
     /tmp/ccQWeaXc.s:408    .text:0000000000000250 .L0 
     /tmp/ccQWeaXc.s:316    .rodata.str1.8:0000000000000038 .LC6
     /tmp/ccQWeaXc.s:420    .text:0000000000000270 .L0 
     /tmp/ccQWeaXc.s:431    .text:000000000000028c .L0 
GAS LISTING /tmp/ccQWeaXc.s 			page 21


     /tmp/ccQWeaXc.s:438    .text:00000000000002a0 .L0 
     /tmp/ccQWeaXc.s:448    .text:00000000000002bc .L0 
     /tmp/ccQWeaXc.s:481    .rodata.str1.8:0000000000000048 .LC7
     /tmp/ccQWeaXc.s:519    .text:0000000000000314 .L0 
     /tmp/ccQWeaXc.s:529    .text:0000000000000330 .L0 
     /tmp/ccQWeaXc.s:484    .rodata.str1.8:0000000000000050 .LC8
     /tmp/ccQWeaXc.s:544    .text:0000000000000350 .L0 
     /tmp/ccQWeaXc.s:487    .rodata.str1.8:0000000000000060 .LC9
     /tmp/ccQWeaXc.s:567    .text:000000000000037c .L0 
     /tmp/ccQWeaXc.s:578    .text:0000000000000398 .L0 
     /tmp/ccQWeaXc.s:585    .text:00000000000003ac .L0 
     /tmp/ccQWeaXc.s:595    .text:00000000000003c8 .L0 
     /tmp/ccQWeaXc.s:50     .text:0000000000000050 .L1
     /tmp/ccQWeaXc.s:67     .text:0000000000000068 .L6
     /tmp/ccQWeaXc.s:37     .text:0000000000000030 .L3
     /tmp/ccQWeaXc.s:142    .text:00000000000000bc .L13
     /tmp/ccQWeaXc.s:135    .text:00000000000000b8 .L9
     /tmp/ccQWeaXc.s:110    .text:0000000000000090 .L10
     /tmp/ccQWeaXc.s:124    .text:00000000000000a4 .L11
     /tmp/ccQWeaXc.s:168    .text:00000000000000f8 .L7
     /tmp/ccQWeaXc.s:116    .text:0000000000000094 .L12
     /tmp/ccQWeaXc.s:254    .text:000000000000015c .L22
     /tmp/ccQWeaXc.s:242    .text:0000000000000150 .L17
     /tmp/ccQWeaXc.s:217    .text:0000000000000128 .L18
     /tmp/ccQWeaXc.s:231    .text:000000000000013c .L19
     /tmp/ccQWeaXc.s:280    .text:0000000000000198 .L24
     /tmp/ccQWeaXc.s:287    .text:00000000000001a4 .L15
     /tmp/ccQWeaXc.s:223    .text:000000000000012c .L20
     /tmp/ccQWeaXc.s:249    .text:0000000000000158 .L21
     /tmp/ccQWeaXc.s:366    .text:000000000000020c .L27
     /tmp/ccQWeaXc.s:345    .text:00000000000001d8 .L31
     /tmp/ccQWeaXc.s:456    .text:00000000000002d4 .L29
     /tmp/ccQWeaXc.s:435    .text:00000000000002a0 .L32
     /tmp/ccQWeaXc.s:537    .text:0000000000000348 .L35
     /tmp/ccQWeaXc.s:516    .text:0000000000000314 .L39
     /tmp/ccQWeaXc.s:603    .text:00000000000003e0 .L37
     /tmp/ccQWeaXc.s:582    .text:00000000000003ac .L40
     /tmp/ccQWeaXc.s:1674   .debug_abbrev:0000000000000000 .Ldebug_abbrev0
     /tmp/ccQWeaXc.s:2726   .debug_str:000000000000008e .LASF68
     /tmp/ccQWeaXc.s:2736   .debug_str:0000000000000182 .LASF69
     /tmp/ccQWeaXc.s:2788   .debug_str:00000000000002fc .LASF70
     /tmp/ccQWeaXc.s:5      .text:0000000000000000 .Ltext0
     /tmp/ccQWeaXc.s:626    .text:0000000000000400 .Letext0
     /tmp/ccQWeaXc.s:2704   .debug_line:0000000000000000 .Ldebug_line0
     /tmp/ccQWeaXc.s:2800   .debug_str:0000000000000367 .LASF0
     /tmp/ccQWeaXc.s:2812   .debug_str:00000000000003b6 .LASF1
     /tmp/ccQWeaXc.s:2784   .debug_str:00000000000002e0 .LASF2
     /tmp/ccQWeaXc.s:2742   .debug_str:00000000000001b8 .LASF3
     /tmp/ccQWeaXc.s:2770   .debug_str:000000000000029e .LASF4
     /tmp/ccQWeaXc.s:2838   .debug_str:0000000000000474 .LASF5
     /tmp/ccQWeaXc.s:2728   .debug_str:0000000000000152 .LASF6
     /tmp/ccQWeaXc.s:2818   .debug_str:00000000000003ec .LASF7
     /tmp/ccQWeaXc.s:2798   .debug_str:0000000000000354 .LASF8
     /tmp/ccQWeaXc.s:2856   .debug_str:0000000000000506 .LASF9
     /tmp/ccQWeaXc.s:2758   .debug_str:0000000000000227 .LASF10
     /tmp/ccQWeaXc.s:2822   .debug_str:000000000000040a .LASF11
     /tmp/ccQWeaXc.s:2850   .debug_str:00000000000004d3 .LASF12
GAS LISTING /tmp/ccQWeaXc.s 			page 22


     /tmp/ccQWeaXc.s:2730   .debug_str:0000000000000159 .LASF13
     /tmp/ccQWeaXc.s:2712   .debug_str:000000000000001f .LASF14
     /tmp/ccQWeaXc.s:2732   .debug_str:0000000000000169 .LASF15
     /tmp/ccQWeaXc.s:2834   .debug_str:0000000000000458 .LASF16
     /tmp/ccQWeaXc.s:2740   .debug_str:00000000000001a2 .LASF17
     /tmp/ccQWeaXc.s:2748   .debug_str:00000000000001d9 .LASF18
     /tmp/ccQWeaXc.s:2718   .debug_str:0000000000000055 .LASF71
     /tmp/ccQWeaXc.s:2866   .debug_str:000000000000054e .LASF19
     /tmp/ccQWeaXc.s:2846   .debug_str:00000000000004ba .LASF21
     /tmp/ccQWeaXc.s:2754   .debug_str:0000000000000200 .LASF20
     /tmp/ccQWeaXc.s:2760   .debug_str:0000000000000235 .LASF22
     /tmp/ccQWeaXc.s:2842   .debug_str:0000000000000497 .LASF23
     /tmp/ccQWeaXc.s:2832   .debug_str:000000000000044b .LASF25
     /tmp/ccQWeaXc.s:2844   .debug_str:00000000000004a7 .LASF24
     /tmp/ccQWeaXc.s:2848   .debug_str:00000000000004c6 .LASF26
     /tmp/ccQWeaXc.s:2764   .debug_str:000000000000025a .LASF27
     /tmp/ccQWeaXc.s:2826   .debug_str:0000000000000424 .LASF29
     /tmp/ccQWeaXc.s:2820   .debug_str:00000000000003ff .LASF31
     /tmp/ccQWeaXc.s:2756   .debug_str:0000000000000210 .LASF33
     /tmp/ccQWeaXc.s:2790   .debug_str:000000000000031a .LASF28
     /tmp/ccQWeaXc.s:2766   .debug_str:000000000000025f .LASF30
     /tmp/ccQWeaXc.s:2782   .debug_str:00000000000002d3 .LASF32
     /tmp/ccQWeaXc.s:2724   .debug_str:0000000000000075 .LASF34
     /tmp/ccQWeaXc.s:2744   .debug_str:00000000000001be .LASF72
     /tmp/ccQWeaXc.s:2778   .debug_str:00000000000002bb .LASF35
     /tmp/ccQWeaXc.s:2810   .debug_str:0000000000000396 .LASF36
     /tmp/ccQWeaXc.s:2828   .debug_str:0000000000000430 .LASF73
     /tmp/ccQWeaXc.s:2734   .debug_str:0000000000000175 .LASF37
     /tmp/ccQWeaXc.s:2714   .debug_str:000000000000002f .LASF38
     /tmp/ccQWeaXc.s:2824   .debug_str:0000000000000419 .LASF74
     /tmp/ccQWeaXc.s:2830   .debug_str:0000000000000435 .LASF75
     /tmp/ccQWeaXc.s:2836   .debug_str:000000000000046e .LASF76
     /tmp/ccQWeaXc.s:2794   .debug_str:0000000000000338 .LASF77
     /tmp/ccQWeaXc.s:2860   .debug_str:0000000000000520 .LASF78
     /tmp/ccQWeaXc.s:2774   .debug_str:00000000000002ae .LASF39
     /tmp/ccQWeaXc.s:2806   .debug_str:0000000000000383 .LASF40
     /tmp/ccQWeaXc.s:2804   .debug_str:000000000000037d .LASF41
     /tmp/ccQWeaXc.s:2776   .debug_str:00000000000002b3 .LASF42
     /tmp/ccQWeaXc.s:2808   .debug_str:000000000000038c .LASF43
     /tmp/ccQWeaXc.s:2772   .debug_str:00000000000002a5 .LASF44
     /tmp/ccQWeaXc.s:2840   .debug_str:0000000000000486 .LASF79
     /tmp/ccQWeaXc.s:2780   .debug_str:00000000000002c8 .LASF45
     /tmp/ccQWeaXc.s:2864   .debug_str:0000000000000543 .LASF46
     /tmp/ccQWeaXc.s:2786   .debug_str:00000000000002ee .LASF47
     /tmp/ccQWeaXc.s:2762   .debug_str:0000000000000241 .LASF49
     /tmp/ccQWeaXc.s:2802   .debug_str:0000000000000374 .LASF48
     /tmp/ccQWeaXc.s:2746   .debug_str:00000000000001c6 .LASF50
     /tmp/ccQWeaXc.s:2862   .debug_str:0000000000000535 .LASF80
     /tmp/ccQWeaXc.s:2768   .debug_str:0000000000000276 .LASF81
     /tmp/ccQWeaXc.s:2722   .debug_str:0000000000000069 .LASF51
     /tmp/ccQWeaXc.s:2792   .debug_str:0000000000000326 .LASF52
     /tmp/ccQWeaXc.s:494    .text:00000000000002f4 .LFB44
     /tmp/ccQWeaXc.s:624    .text:0000000000000400 .LFE44
     /tmp/ccQWeaXc.s:2455   .debug_loc:0000000000000000 .LLST13
     /tmp/ccQWeaXc.s:2469   .debug_loc:0000000000000039 .LLST14
     /tmp/ccQWeaXc.s:2706   .debug_str:0000000000000000 .LASF53
     /tmp/ccQWeaXc.s:2489   .debug_loc:0000000000000096 .LLST15
GAS LISTING /tmp/ccQWeaXc.s 			page 23


     /tmp/ccQWeaXc.s:521    .text:0000000000000324 .LVL65
     /tmp/ccQWeaXc.s:526    .text:0000000000000330 .LVL66
     /tmp/ccQWeaXc.s:531    .text:0000000000000340 .LVL67
     /tmp/ccQWeaXc.s:546    .text:0000000000000360 .LVL70
     /tmp/ccQWeaXc.s:557    .text:000000000000036c .LVL71
     /tmp/ccQWeaXc.s:562    .text:0000000000000378 .LVL72
     /tmp/ccQWeaXc.s:570    .text:000000000000038c .LVL75
     /tmp/ccQWeaXc.s:575    .text:0000000000000398 .LVL76
     /tmp/ccQWeaXc.s:580    .text:00000000000003a8 .LVL77
     /tmp/ccQWeaXc.s:587    .text:00000000000003bc .LVL78
     /tmp/ccQWeaXc.s:592    .text:00000000000003c8 .LVL79
     /tmp/ccQWeaXc.s:597    .text:00000000000003d8 .LVL80
     /tmp/ccQWeaXc.s:2710   .debug_str:0000000000000013 .LASF54
     /tmp/ccQWeaXc.s:2814   .debug_str:00000000000003c9 .LASF55
     /tmp/ccQWeaXc.s:323    .text:00000000000001b8 .LFB43
     /tmp/ccQWeaXc.s:477    .text:00000000000002f4 .LFE43
     /tmp/ccQWeaXc.s:2500   .debug_loc:00000000000000cc .LLST9
     /tmp/ccQWeaXc.s:2514   .debug_loc:0000000000000105 .LLST10
     /tmp/ccQWeaXc.s:2534   .debug_loc:0000000000000162 .LLST11
     /tmp/ccQWeaXc.s:2542   .debug_loc:0000000000000186 .LLST12
     /tmp/ccQWeaXc.s:350    .text:00000000000001e8 .LVL38
     /tmp/ccQWeaXc.s:355    .text:00000000000001f4 .LVL39
     /tmp/ccQWeaXc.s:360    .text:0000000000000204 .LVL40
     /tmp/ccQWeaXc.s:375    .text:0000000000000224 .LVL43
     /tmp/ccQWeaXc.s:386    .text:0000000000000230 .LVL44
     /tmp/ccQWeaXc.s:400    .text:0000000000000244 .LVL46
     /tmp/ccQWeaXc.s:405    .text:0000000000000250 .LVL47
     /tmp/ccQWeaXc.s:410    .text:0000000000000260 .LVL48
     /tmp/ccQWeaXc.s:415    .text:000000000000026c .LVL49
     /tmp/ccQWeaXc.s:423    .text:0000000000000280 .LVL52
     /tmp/ccQWeaXc.s:428    .text:000000000000028c .LVL53
     /tmp/ccQWeaXc.s:433    .text:000000000000029c .LVL54
     /tmp/ccQWeaXc.s:440    .text:00000000000002b0 .LVL55
     /tmp/ccQWeaXc.s:445    .text:00000000000002bc .LVL56
     /tmp/ccQWeaXc.s:450    .text:00000000000002cc .LVL57
     /tmp/ccQWeaXc.s:2858   .debug_str:0000000000000516 .LASF82
     /tmp/ccQWeaXc.s:9      .text:0000000000000000 .LFB42
     /tmp/ccQWeaXc.s:75     .text:0000000000000074 .LFE42
     /tmp/ccQWeaXc.s:2553   .debug_loc:00000000000001bc .LLST0
     /tmp/ccQWeaXc.s:42     .text:000000000000003c .LVL2
     /tmp/ccQWeaXc.s:47     .text:000000000000004c .LVL3
     /tmp/ccQWeaXc.s:72     .text:0000000000000070 .LVL6
     /tmp/ccQWeaXc.s:2708   .debug_str:0000000000000007 .LASF56
     /tmp/ccQWeaXc.s:2868   .debug_str:000000000000055b .LASF57
     /tmp/ccQWeaXc.s:196    .text:000000000000010c .LFB41
     /tmp/ccQWeaXc.s:303    .text:00000000000001b8 .LFE41
     /tmp/ccQWeaXc.s:2575   .debug_loc:000000000000021b .LLST5
     /tmp/ccQWeaXc.s:212    .text:0000000000000120 .LBB8
     /tmp/ccQWeaXc.s:289    .text:00000000000001a4 .LBE8
     /tmp/ccQWeaXc.s:2589   .debug_loc:0000000000000254 .LLST6
     /tmp/ccQWeaXc.s:2690   .debug_ranges:0000000000000000 .Ldebug_ranges0
     /tmp/ccQWeaXc.s:2601   .debug_loc:000000000000028b .LLST7
     /tmp/ccQWeaXc.s:228    .text:0000000000000138 .LBB11
     /tmp/ccQWeaXc.s:243    .text:0000000000000150 .LBE11
     /tmp/ccQWeaXc.s:2617   .debug_loc:00000000000002d5 .LLST8
     /tmp/ccQWeaXc.s:263    .text:0000000000000174 .LVL29
     /tmp/ccQWeaXc.s:268    .text:0000000000000180 .LVL30
GAS LISTING /tmp/ccQWeaXc.s 			page 24


     /tmp/ccQWeaXc.s:273    .text:0000000000000190 .LVL31
     /tmp/ccQWeaXc.s:285    .text:00000000000001a0 .LVL33
     /tmp/ccQWeaXc.s:2796   .debug_str:0000000000000348 .LASF58
     /tmp/ccQWeaXc.s:2852   .debug_str:00000000000004e2 .LASF59
     /tmp/ccQWeaXc.s:89     .text:0000000000000074 .LFB40
     /tmp/ccQWeaXc.s:185    .text:000000000000010c .LFE40
     /tmp/ccQWeaXc.s:2628   .debug_loc:000000000000030b .LLST1
     /tmp/ccQWeaXc.s:105    .text:0000000000000088 .LBB2
     /tmp/ccQWeaXc.s:171    .text:00000000000000f8 .LBE2
     /tmp/ccQWeaXc.s:2642   .debug_loc:0000000000000344 .LLST2
     /tmp/ccQWeaXc.s:2654   .debug_loc:000000000000037b .LLST3
     /tmp/ccQWeaXc.s:121    .text:00000000000000a0 .LBB5
     /tmp/ccQWeaXc.s:136    .text:00000000000000b8 .LBE5
     /tmp/ccQWeaXc.s:2666   .debug_loc:00000000000003b2 .LLST4
     /tmp/ccQWeaXc.s:151    .text:00000000000000d4 .LVL15
     /tmp/ccQWeaXc.s:156    .text:00000000000000e0 .LVL16
     /tmp/ccQWeaXc.s:161    .text:00000000000000f0 .LVL17
     /tmp/ccQWeaXc.s:2870   .debug_str:000000000000056d .LASF60
     /tmp/ccQWeaXc.s:2716   .debug_str:0000000000000049 .LASF62
     /tmp/ccQWeaXc.s:2854   .debug_str:00000000000004f4 .LASF61
     /tmp/ccQWeaXc.s:2752   .debug_str:00000000000001f3 .LASF63
     /tmp/ccQWeaXc.s:2750   .debug_str:00000000000001de .LASF64
     /tmp/ccQWeaXc.s:2738   .debug_str:0000000000000192 .LASF65
     /tmp/ccQWeaXc.s:2816   .debug_str:00000000000003db .LASF66
     /tmp/ccQWeaXc.s:2720   .debug_str:000000000000005d .LASF67
     /tmp/ccQWeaXc.s:497    .text:00000000000002f4 .LVL62
     /tmp/ccQWeaXc.s:515    .text:0000000000000314 .LVL64
     /tmp/ccQWeaXc.s:511    .text:000000000000030c .LVL63
     /tmp/ccQWeaXc.s:534    .text:0000000000000344 .LVL68
     /tmp/ccQWeaXc.s:536    .text:0000000000000348 .LVL69
     /tmp/ccQWeaXc.s:600    .text:00000000000003dc .LVL81
     /tmp/ccQWeaXc.s:602    .text:00000000000003e0 .LVL82
     /tmp/ccQWeaXc.s:616    .text:00000000000003f4 .LVL83
     /tmp/ccQWeaXc.s:564    .text:000000000000037c .LVL73
     /tmp/ccQWeaXc.s:568    .text:0000000000000384 .LVL74
     /tmp/ccQWeaXc.s:619    .text:00000000000003f8 .LVL84
     /tmp/ccQWeaXc.s:326    .text:00000000000001b8 .LVL35
     /tmp/ccQWeaXc.s:344    .text:00000000000001d8 .LVL37
     /tmp/ccQWeaXc.s:340    .text:00000000000001d0 .LVL36
     /tmp/ccQWeaXc.s:363    .text:0000000000000208 .LVL41
     /tmp/ccQWeaXc.s:365    .text:000000000000020c .LVL42
     /tmp/ccQWeaXc.s:453    .text:00000000000002d0 .LVL58
     /tmp/ccQWeaXc.s:455    .text:00000000000002d4 .LVL59
     /tmp/ccQWeaXc.s:469    .text:00000000000002e8 .LVL60
     /tmp/ccQWeaXc.s:394    .text:0000000000000234 .LVL45
     /tmp/ccQWeaXc.s:417    .text:0000000000000270 .LVL50
     /tmp/ccQWeaXc.s:421    .text:0000000000000278 .LVL51
     /tmp/ccQWeaXc.s:472    .text:00000000000002ec .LVL61
     /tmp/ccQWeaXc.s:13     .text:0000000000000000 .LVL0
     /tmp/ccQWeaXc.s:36     .text:0000000000000030 .LVL1
     /tmp/ccQWeaXc.s:60     .text:000000000000005c .LVL4
     /tmp/ccQWeaXc.s:66     .text:0000000000000068 .LVL5
     /tmp/ccQWeaXc.s:199    .text:000000000000010c .LVL20
     /tmp/ccQWeaXc.s:216    .text:0000000000000128 .LVL22
     /tmp/ccQWeaXc.s:211    .text:0000000000000120 .LVL21
     /tmp/ccQWeaXc.s:298    .text:00000000000001b0 .LVL34
     /tmp/ccQWeaXc.s:248    .text:0000000000000158 .LVL27
GAS LISTING /tmp/ccQWeaXc.s 			page 25


     /tmp/ccQWeaXc.s:279    .text:0000000000000198 .LVL32
     /tmp/ccQWeaXc.s:222    .text:000000000000012c .LVL23
     /tmp/ccQWeaXc.s:232    .text:000000000000013c .LVL24
     /tmp/ccQWeaXc.s:241    .text:0000000000000150 .LVL26
     /tmp/ccQWeaXc.s:92     .text:0000000000000074 .LVL7
     /tmp/ccQWeaXc.s:109    .text:0000000000000090 .LVL9
     /tmp/ccQWeaXc.s:104    .text:0000000000000088 .LVL8
     /tmp/ccQWeaXc.s:180    .text:0000000000000104 .LVL19
     /tmp/ccQWeaXc.s:141    .text:00000000000000bc .LVL14
     /tmp/ccQWeaXc.s:167    .text:00000000000000f8 .LVL18
     /tmp/ccQWeaXc.s:115    .text:0000000000000094 .LVL10
     /tmp/ccQWeaXc.s:125    .text:00000000000000a4 .LVL11
     /tmp/ccQWeaXc.s:134    .text:00000000000000b8 .LVL13
     /tmp/ccQWeaXc.s:632    .debug_info:0000000000000000 .Ldebug_info0
     /tmp/ccQWeaXc.s:112    .text:0000000000000090 .LBB4
     /tmp/ccQWeaXc.s:137    .text:00000000000000b8 .LBE4
     /tmp/ccQWeaXc.s:163    .text:00000000000000f0 .LBB6
     /tmp/ccQWeaXc.s:169    .text:00000000000000f8 .LBE6
     /tmp/ccQWeaXc.s:219    .text:0000000000000128 .LBB10
     /tmp/ccQWeaXc.s:244    .text:0000000000000150 .LBE10
     /tmp/ccQWeaXc.s:275    .text:0000000000000190 .LBB12
     /tmp/ccQWeaXc.s:281    .text:0000000000000198 .LBE12

UNDEFINED SYMBOLS
_ZN3TCB5yieldEv
_Z11printStringPKc
_Z12printIntegerm
_Z11thread_exitv
_Z15thread_dispatchv
