GAS LISTING /tmp/cc0u4s26.s 			page 1


   1              		.file	"workers.cpp"
   2              		.option pic
   3              		.option norelax
   4              		.text
   5              	.Ltext0:
   6              		.align	2
   8              	_ZL9fibonaccim:
   9              	.LFB45:
  10              		.file 1 "src/workers.cpp"
   1:src/workers.cpp **** //
   2:src/workers.cpp **** // Created by marko on 20.4.22..
   3:src/workers.cpp **** //
   4:src/workers.cpp **** 
   5:src/workers.cpp **** #include "../lib/hw.h"
   6:src/workers.cpp **** #include "../h/print.hpp"
   7:src/workers.cpp **** #include "../h/syscall_c.hpp"
   8:src/workers.cpp **** #include "../h/semaphore.hpp"
   9:src/workers.cpp **** 
  10:src/workers.cpp **** void workerBodyA(void* g)
  11:src/workers.cpp **** {
  12:src/workers.cpp ****     sem* s = (sem*) g;
  13:src/workers.cpp ****     sem_wait(s);
  14:src/workers.cpp ****     for (uint64 i = 0; i < 10; i++)
  15:src/workers.cpp ****     {
  16:src/workers.cpp ****         printString("A: i=");
  17:src/workers.cpp ****         printInteger(i);
  18:src/workers.cpp ****         printString("\n");
  19:src/workers.cpp ****         for (uint64 j = 0; j < 10000; j++)
  20:src/workers.cpp ****         {
  21:src/workers.cpp ****             for (uint64 k = 0; k < 30000; k++)
  22:src/workers.cpp ****             {
  23:src/workers.cpp ****                 // busy wait
  24:src/workers.cpp ****             }
  25:src/workers.cpp **** //            TCB::yield();
  26:src/workers.cpp ****         }
  27:src/workers.cpp ****     }
  28:src/workers.cpp ****     sem_close(s);
  29:src/workers.cpp ****     sem_signal(s);
  30:src/workers.cpp **** }
  31:src/workers.cpp **** 
  32:src/workers.cpp **** void workerBodyB(void* g)
  33:src/workers.cpp **** {
  34:src/workers.cpp ****     for (uint64 i = 0; i < 16; i++)
  35:src/workers.cpp ****     {
  36:src/workers.cpp ****         printString("B: i=");
  37:src/workers.cpp ****         printInteger(i);
  38:src/workers.cpp ****         printString("\n");
  39:src/workers.cpp ****         for (uint64 j = 0; j < 10000; j++)
  40:src/workers.cpp ****         {
  41:src/workers.cpp ****             for (uint64 k = 0; k < 30000; k++)
  42:src/workers.cpp ****             {
  43:src/workers.cpp ****                 // busy wait
  44:src/workers.cpp ****             }
  45:src/workers.cpp **** //            TCB::yield();
  46:src/workers.cpp ****         }
  47:src/workers.cpp ****         if(i == 10) thread_exit();
  48:src/workers.cpp ****     }
GAS LISTING /tmp/cc0u4s26.s 			page 2


  49:src/workers.cpp **** }
  50:src/workers.cpp **** 
  51:src/workers.cpp **** static uint64 fibonacci(uint64 n)
  52:src/workers.cpp **** {
  11              		.loc 1 52 1
  12              		.cfi_startproc
  13              	.LVL0:
  14 0000 130101FE 		addi	sp,sp,-32
  15              		.cfi_def_cfa_offset 32
  16 0004 233C1100 		sd	ra,24(sp)
  17 0008 23388100 		sd	s0,16(sp)
  18 000c 23349100 		sd	s1,8(sp)
  19 0010 23302101 		sd	s2,0(sp)
  20              		.cfi_offset 1, -8
  21              		.cfi_offset 8, -16
  22              		.cfi_offset 9, -24
  23              		.cfi_offset 18, -32
  24 0014 13040102 		addi	s0,sp,32
  25              		.cfi_def_cfa 8, 0
  26 0018 93040500 		mv	s1,a0
  53:src/workers.cpp ****     if (n == 0 || n == 1) { return n; }
  27              		.loc 1 53 5
  28 001c 93071000 		li	a5,1
  29 0020 63F8A702 		bleu	a0,a5,.L1
  54:src/workers.cpp ****     if (n % 10 == 0) { TCB::yield(); }
  30              		.loc 1 54 5
  31              		.loc 1 54 11 is_stmt 0
  32 0024 9307A000 		li	a5,10
  33 0028 B377F502 		remu	a5,a0,a5
  34              		.loc 1 54 5
  35 002c 638E0702 		beqz	a5,.L6
  36              	.LVL1:
  37              	.L3:
  55:src/workers.cpp ****     return fibonacci(n - 1) + fibonacci(n - 2);
  38              		.loc 1 55 5 is_stmt 1
  39              		.loc 1 55 21 is_stmt 0
  40 0030 1385F4FF 		addi	a0,s1,-1
  41 0034 97000000 		call	_ZL9fibonaccim
  41      E7800000 
  42              	.LVL2:
  43 003c 13090500 		mv	s2,a0
  44              		.loc 1 55 40
  45 0040 1385E4FF 		addi	a0,s1,-2
  46 0044 97000000 		call	_ZL9fibonaccim
  46      E7800000 
  47              	.LVL3:
  48              		.loc 1 55 46
  49 004c 3305A900 		add	a0,s2,a0
  50              	.L1:
  56:src/workers.cpp **** }
  51              		.loc 1 56 1
  52 0050 83308101 		ld	ra,24(sp)
  53              		.cfi_remember_state
  54              		.cfi_restore 1
  55 0054 03340101 		ld	s0,16(sp)
  56              		.cfi_restore 8
  57              		.cfi_def_cfa 2, 32
GAS LISTING /tmp/cc0u4s26.s 			page 3


  58 0058 83348100 		ld	s1,8(sp)
  59              		.cfi_restore 9
  60              	.LVL4:
  61 005c 03390100 		ld	s2,0(sp)
  62              		.cfi_restore 18
  63 0060 13010102 		addi	sp,sp,32
  64              		.cfi_def_cfa_offset 0
  65 0064 67800000 		jr	ra
  66              	.LVL5:
  67              	.L6:
  68              		.cfi_restore_state
  54:src/workers.cpp ****     if (n % 10 == 0) { TCB::yield(); }
  69              		.loc 1 54 24 is_stmt 1 discriminator 1
  54:src/workers.cpp ****     if (n % 10 == 0) { TCB::yield(); }
  70              		.loc 1 54 34 is_stmt 0 discriminator 1
  71 0068 97000000 		call	_ZN3TCB5yieldEv@plt
  71      E7800000 
  72              	.LVL6:
  73 0070 6FF01FFC 		j	.L3
  74              		.cfi_endproc
  75              	.LFE45:
  77              		.section	.rodata.str1.8,"aMS",@progbits,1
  78              		.align	3
  79              	.LC0:
  80 0000 413A2069 		.string	"A: i="
  80      3D00
  81 0006 0000     		.align	3
  82              	.LC1:
  83 0008 0A00     		.string	"\n"
  84              		.text
  85              		.align	2
  86              		.globl	_Z11workerBodyAPv
  88              	_Z11workerBodyAPv:
  89              	.LFB43:
  11:src/workers.cpp ****     sem* s = (sem*) g;
  90              		.loc 1 11 1 is_stmt 1
  91              		.cfi_startproc
  92              	.LVL7:
  93 0074 130101FE 		addi	sp,sp,-32
  94              		.cfi_def_cfa_offset 32
  95 0078 233C1100 		sd	ra,24(sp)
  96 007c 23388100 		sd	s0,16(sp)
  97 0080 23349100 		sd	s1,8(sp)
  98 0084 23302101 		sd	s2,0(sp)
  99              		.cfi_offset 1, -8
 100              		.cfi_offset 8, -16
 101              		.cfi_offset 9, -24
 102              		.cfi_offset 18, -32
 103 0088 13040102 		addi	s0,sp,32
 104              		.cfi_def_cfa 8, 0
 105 008c 13090500 		mv	s2,a0
  12:src/workers.cpp ****     sem_wait(s);
 106              		.loc 1 12 5
 107              	.LVL8:
  13:src/workers.cpp ****     for (uint64 i = 0; i < 10; i++)
 108              		.loc 1 13 5
  13:src/workers.cpp ****     for (uint64 i = 0; i < 10; i++)
GAS LISTING /tmp/cc0u4s26.s 			page 4


 109              		.loc 1 13 13 is_stmt 0
 110 0090 97000000 		call	_Z8sem_waitP3sem@plt
 110      E7800000 
 111              	.LVL9:
  14:src/workers.cpp ****     {
 112              		.loc 1 14 5 is_stmt 1
 113              	.LBB2:
  14:src/workers.cpp ****     {
 114              		.loc 1 14 17 is_stmt 0
 115 0098 93040000 		li	s1,0
 116 009c 6F000003 		j	.L13
 117              	.LVL10:
 118              	.L10:
 119              	.LBB3:
 120              	.LBB4:
  19:src/workers.cpp ****         {
 121              		.loc 1 19 9 is_stmt 1 discriminator 2
 122 00a0 93861600 		addi	a3,a3,1
 123              	.LVL11:
 124              	.L12:
  19:src/workers.cpp ****         {
 125              		.loc 1 19 30 discriminator 1
 126 00a4 B7270000 		li	a5,8192
 127 00a8 9387F770 		addi	a5,a5,1807
 128 00ac 63EED700 		bgtu	a3,a5,.L9
 129              	.LBB5:
  21:src/workers.cpp ****             {
 130              		.loc 1 21 25 is_stmt 0
 131 00b0 13070000 		li	a4,0
 132              	.L11:
 133              	.LVL12:
  21:src/workers.cpp ****             {
 134              		.loc 1 21 34 is_stmt 1 discriminator 3
 135 00b4 B7770000 		li	a5,28672
 136 00b8 9387F752 		addi	a5,a5,1327
 137 00bc E3E2E7FE 		bgtu	a4,a5,.L10
  21:src/workers.cpp ****             {
 138              		.loc 1 21 13 discriminator 2
 139 00c0 13071700 		addi	a4,a4,1
 140              	.LVL13:
 141 00c4 6FF01FFF 		j	.L11
 142              	.LVL14:
 143              	.L9:
 144              	.LBE5:
 145              	.LBE4:
 146              	.LBE3:
  14:src/workers.cpp ****     {
 147              		.loc 1 14 5 discriminator 2
 148 00c8 93841400 		addi	s1,s1,1
 149              	.LVL15:
 150              	.L13:
  14:src/workers.cpp ****     {
 151              		.loc 1 14 26 discriminator 1
 152 00cc 93079000 		li	a5,9
 153 00d0 63EC9702 		bgtu	s1,a5,.L8
 154              	.LBB7:
  16:src/workers.cpp ****         printInteger(i);
GAS LISTING /tmp/cc0u4s26.s 			page 5


 155              		.loc 1 16 9
  16:src/workers.cpp ****         printInteger(i);
 156              		.loc 1 16 20 is_stmt 0
 157 00d4 17050000 		lla	a0,.LC0
 157      13050500 
 158 00dc 97000000 		call	_Z11printStringPKc@plt
 158      E7800000 
 159              	.LVL16:
  17:src/workers.cpp ****         printString("\n");
 160              		.loc 1 17 9 is_stmt 1
  17:src/workers.cpp ****         printString("\n");
 161              		.loc 1 17 21 is_stmt 0
 162 00e4 13850400 		mv	a0,s1
 163 00e8 97000000 		call	_Z12printIntegerm@plt
 163      E7800000 
 164              	.LVL17:
  18:src/workers.cpp ****         for (uint64 j = 0; j < 10000; j++)
 165              		.loc 1 18 9 is_stmt 1
  18:src/workers.cpp ****         for (uint64 j = 0; j < 10000; j++)
 166              		.loc 1 18 20 is_stmt 0
 167 00f0 17050000 		lla	a0,.LC1
 167      13050500 
 168 00f8 97000000 		call	_Z11printStringPKc@plt
 168      E7800000 
 169              	.LVL18:
  19:src/workers.cpp ****         {
 170              		.loc 1 19 9 is_stmt 1
 171              	.LBB6:
  19:src/workers.cpp ****         {
 172              		.loc 1 19 21 is_stmt 0
 173 0100 93060000 		li	a3,0
 174 0104 6FF01FFA 		j	.L12
 175              	.LVL19:
 176              	.L8:
 177              	.LBE6:
 178              	.LBE7:
 179              	.LBE2:
  28:src/workers.cpp ****     sem_signal(s);
 180              		.loc 1 28 5 is_stmt 1
  28:src/workers.cpp ****     sem_signal(s);
 181              		.loc 1 28 14 is_stmt 0
 182 0108 13050900 		mv	a0,s2
 183 010c 97000000 		call	_Z9sem_closeP3sem@plt
 183      E7800000 
 184              	.LVL20:
  29:src/workers.cpp **** }
 185              		.loc 1 29 5 is_stmt 1
  29:src/workers.cpp **** }
 186              		.loc 1 29 15 is_stmt 0
 187 0114 13050900 		mv	a0,s2
 188 0118 97000000 		call	_Z10sem_signalP3sem@plt
 188      E7800000 
 189              	.LVL21:
  30:src/workers.cpp **** 
 190              		.loc 1 30 1
 191 0120 83308101 		ld	ra,24(sp)
 192              		.cfi_restore 1
GAS LISTING /tmp/cc0u4s26.s 			page 6


 193 0124 03340101 		ld	s0,16(sp)
 194              		.cfi_restore 8
 195              		.cfi_def_cfa 2, 32
 196 0128 83348100 		ld	s1,8(sp)
 197              		.cfi_restore 9
 198              	.LVL22:
 199 012c 03390100 		ld	s2,0(sp)
 200              		.cfi_restore 18
 201              	.LVL23:
 202 0130 13010102 		addi	sp,sp,32
 203              		.cfi_def_cfa_offset 0
 204 0134 67800000 		jr	ra
 205              		.cfi_endproc
 206              	.LFE43:
 208              		.section	.rodata.str1.8
 209 000a 00000000 		.align	3
 209      0000
 210              	.LC2:
 211 0010 423A2069 		.string	"B: i="
 211      3D00
 212              		.text
 213              		.align	2
 214              		.globl	_Z11workerBodyBPv
 216              	_Z11workerBodyBPv:
 217              	.LFB44:
  33:src/workers.cpp ****     for (uint64 i = 0; i < 16; i++)
 218              		.loc 1 33 1 is_stmt 1
 219              		.cfi_startproc
 220              	.LVL24:
 221 0138 130101FE 		addi	sp,sp,-32
 222              		.cfi_def_cfa_offset 32
 223 013c 233C1100 		sd	ra,24(sp)
 224 0140 23388100 		sd	s0,16(sp)
 225 0144 23349100 		sd	s1,8(sp)
 226              		.cfi_offset 1, -8
 227              		.cfi_offset 8, -16
 228              		.cfi_offset 9, -24
 229 0148 13040102 		addi	s0,sp,32
 230              		.cfi_def_cfa 8, 0
  34:src/workers.cpp ****     {
 231              		.loc 1 34 5
 232              	.LVL25:
 233              	.LBB8:
  34:src/workers.cpp ****     {
 234              		.loc 1 34 17 is_stmt 0
 235 014c 93040000 		li	s1,0
 236 0150 6F008003 		j	.L22
 237              	.LVL26:
 238              	.L18:
 239              	.LBB9:
 240              	.LBB10:
  39:src/workers.cpp ****         {
 241              		.loc 1 39 9 is_stmt 1 discriminator 2
 242 0154 93861600 		addi	a3,a3,1
 243              	.LVL27:
 244              	.L20:
  39:src/workers.cpp ****         {
GAS LISTING /tmp/cc0u4s26.s 			page 7


 245              		.loc 1 39 30 discriminator 1
 246 0158 B7270000 		li	a5,8192
 247 015c 9387F770 		addi	a5,a5,1807
 248 0160 63EED700 		bgtu	a3,a5,.L17
 249              	.LBB11:
  41:src/workers.cpp ****             {
 250              		.loc 1 41 25 is_stmt 0
 251 0164 13070000 		li	a4,0
 252              	.L19:
 253              	.LVL28:
  41:src/workers.cpp ****             {
 254              		.loc 1 41 34 is_stmt 1 discriminator 3
 255 0168 B7770000 		li	a5,28672
 256 016c 9387F752 		addi	a5,a5,1327
 257 0170 E3E2E7FE 		bgtu	a4,a5,.L18
  41:src/workers.cpp ****             {
 258              		.loc 1 41 13 discriminator 2
 259 0174 13071700 		addi	a4,a4,1
 260              	.LVL29:
 261 0178 6FF01FFF 		j	.L19
 262              	.LVL30:
 263              	.L17:
 264              	.LBE11:
 265              	.LBE10:
  47:src/workers.cpp ****     }
 266              		.loc 1 47 9
 267 017c 9307A000 		li	a5,10
 268 0180 6382F404 		beq	s1,a5,.L24
 269              	.LVL31:
 270              	.L21:
 271              	.LBE9:
  34:src/workers.cpp ****     {
 272              		.loc 1 34 5 discriminator 2
 273 0184 93841400 		addi	s1,s1,1
 274              	.LVL32:
 275              	.L22:
  34:src/workers.cpp ****     {
 276              		.loc 1 34 26 discriminator 1
 277 0188 9307F000 		li	a5,15
 278 018c 63E29704 		bgtu	s1,a5,.L15
 279              	.LBB13:
  36:src/workers.cpp ****         printInteger(i);
 280              		.loc 1 36 9
  36:src/workers.cpp ****         printInteger(i);
 281              		.loc 1 36 20 is_stmt 0
 282 0190 17050000 		lla	a0,.LC2
 282      13050500 
 283 0198 97000000 		call	_Z11printStringPKc@plt
 283      E7800000 
 284              	.LVL33:
  37:src/workers.cpp ****         printString("\n");
 285              		.loc 1 37 9 is_stmt 1
  37:src/workers.cpp ****         printString("\n");
 286              		.loc 1 37 21 is_stmt 0
 287 01a0 13850400 		mv	a0,s1
 288 01a4 97000000 		call	_Z12printIntegerm@plt
 288      E7800000 
GAS LISTING /tmp/cc0u4s26.s 			page 8


 289              	.LVL34:
  38:src/workers.cpp ****         for (uint64 j = 0; j < 10000; j++)
 290              		.loc 1 38 9 is_stmt 1
  38:src/workers.cpp ****         for (uint64 j = 0; j < 10000; j++)
 291              		.loc 1 38 20 is_stmt 0
 292 01ac 17050000 		lla	a0,.LC1
 292      13050500 
 293 01b4 97000000 		call	_Z11printStringPKc@plt
 293      E7800000 
 294              	.LVL35:
  39:src/workers.cpp ****         {
 295              		.loc 1 39 9 is_stmt 1
 296              	.LBB12:
  39:src/workers.cpp ****         {
 297              		.loc 1 39 21 is_stmt 0
 298 01bc 93060000 		li	a3,0
 299 01c0 6FF09FF9 		j	.L20
 300              	.LVL36:
 301              	.L24:
 302              	.LBE12:
  47:src/workers.cpp ****     }
 303              		.loc 1 47 21 is_stmt 1 discriminator 1
  47:src/workers.cpp ****     }
 304              		.loc 1 47 32 is_stmt 0 discriminator 1
 305 01c4 97000000 		call	_Z11thread_exitv@plt
 305      E7800000 
 306              	.LVL37:
 307 01cc 6FF09FFB 		j	.L21
 308              	.L15:
 309              	.LBE13:
 310              	.LBE8:
  49:src/workers.cpp **** 
 311              		.loc 1 49 1
 312 01d0 83308101 		ld	ra,24(sp)
 313              		.cfi_restore 1
 314 01d4 03340101 		ld	s0,16(sp)
 315              		.cfi_restore 8
 316              		.cfi_def_cfa 2, 32
 317 01d8 83348100 		ld	s1,8(sp)
 318              		.cfi_restore 9
 319              	.LVL38:
 320 01dc 13010102 		addi	sp,sp,32
 321              		.cfi_def_cfa_offset 0
 322 01e0 67800000 		jr	ra
 323              		.cfi_endproc
 324              	.LFE44:
 326              		.section	.rodata.str1.8
 327 0016 0000     		.align	3
 328              	.LC3:
 329 0018 433A2069 		.string	"C: i="
 329      3D00
 330 001e 0000     		.align	3
 331              	.LC4:
 332 0020 433A2079 		.string	"C: yield\n"
 332      69656C64 
 332      0A00
 333 002a 00000000 		.align	3
GAS LISTING /tmp/cc0u4s26.s 			page 9


 333      0000
 334              	.LC5:
 335 0030 433A2074 		.string	"C: t1="
 335      313D00
 336 0037 00       		.align	3
 337              	.LC6:
 338 0038 433A2066 		.string	"C: fibonaci="
 338      69626F6E 
 338      6163693D 
 338      00
 339              		.text
 340              		.align	2
 341              		.globl	_Z11workerBodyCPv
 343              	_Z11workerBodyCPv:
 344              	.LFB46:
  57:src/workers.cpp **** 
  58:src/workers.cpp **** void workerBodyC(void* g)
  59:src/workers.cpp **** {
 345              		.loc 1 59 1 is_stmt 1
 346              		.cfi_startproc
 347              	.LVL39:
 348 01e4 130101FD 		addi	sp,sp,-48
 349              		.cfi_def_cfa_offset 48
 350 01e8 23341102 		sd	ra,40(sp)
 351 01ec 23308102 		sd	s0,32(sp)
 352 01f0 233C9100 		sd	s1,24(sp)
 353 01f4 23382101 		sd	s2,16(sp)
 354 01f8 23343101 		sd	s3,8(sp)
 355              		.cfi_offset 1, -8
 356              		.cfi_offset 8, -16
 357              		.cfi_offset 9, -24
 358              		.cfi_offset 18, -32
 359              		.cfi_offset 19, -40
 360 01fc 13040103 		addi	s0,sp,48
 361              		.cfi_def_cfa 8, 0
 362 0200 13090500 		mv	s2,a0
  60:src/workers.cpp ****    sem* s = (sem*) g;
 363              		.loc 1 60 4
 364              	.LVL40:
  61:src/workers.cpp ****     sem_wait(s);
 365              		.loc 1 61 5
 366              		.loc 1 61 13 is_stmt 0
 367 0204 97000000 		call	_Z8sem_waitP3sem@plt
 367      E7800000 
 368              	.LVL41:
  62:src/workers.cpp ****     uint8 i = 0;
 369              		.loc 1 62 5 is_stmt 1
 370              		.loc 1 62 11 is_stmt 0
 371 020c 93040000 		li	s1,0
 372 0210 6F008003 		j	.L27
 373              	.LVL42:
 374              	.L31:
  63:src/workers.cpp ****     for (; i < 3; i++)
  64:src/workers.cpp ****     {
  65:src/workers.cpp ****         printString("C: i=");
 375              		.loc 1 65 9 is_stmt 1 discriminator 1
 376              		.loc 1 65 20 is_stmt 0 discriminator 1
GAS LISTING /tmp/cc0u4s26.s 			page 10


 377 0214 17050000 		lla	a0,.LC3
 377      13050500 
 378 021c 97000000 		call	_Z11printStringPKc@plt
 378      E7800000 
 379              	.LVL43:
  66:src/workers.cpp ****         printInteger(i);
 380              		.loc 1 66 9 is_stmt 1 discriminator 1
 381              		.loc 1 66 21 is_stmt 0 discriminator 1
 382 0224 13850400 		mv	a0,s1
 383 0228 97000000 		call	_Z12printIntegerm@plt
 383      E7800000 
 384              	.LVL44:
  67:src/workers.cpp ****         printString("\n");
 385              		.loc 1 67 9 is_stmt 1 discriminator 1
 386              		.loc 1 67 20 is_stmt 0 discriminator 1
 387 0230 17050000 		lla	a0,.LC1
 387      13050500 
 388 0238 97000000 		call	_Z11printStringPKc@plt
 388      E7800000 
 389              	.LVL45:
  63:src/workers.cpp ****     for (; i < 3; i++)
 390              		.loc 1 63 5 is_stmt 1 discriminator 1
 391 0240 9B841400 		addiw	s1,s1,1
 392              	.LVL46:
 393 0244 93F4F40F 		andi	s1,s1,0xff
 394              	.LVL47:
 395              	.L27:
  63:src/workers.cpp ****     for (; i < 3; i++)
 396              		.loc 1 63 5 discriminator 2
  63:src/workers.cpp ****     for (; i < 3; i++)
 397              		.loc 1 63 14 discriminator 2
 398 0248 93072000 		li	a5,2
 399 024c E3F497FC 		bleu	s1,a5,.L31
  68:src/workers.cpp ****     }
  69:src/workers.cpp **** 
  70:src/workers.cpp ****     printString("C: yield\n");
 400              		.loc 1 70 5
 401              		.loc 1 70 16 is_stmt 0
 402 0250 17050000 		lla	a0,.LC4
 402      13050500 
 403 0258 97000000 		call	_Z11printStringPKc@plt
 403      E7800000 
 404              	.LVL48:
  71:src/workers.cpp ****     __asm__ ("li t1, 7");
 405              		.loc 1 71 5 is_stmt 1
 406              		.loc 1 71 25 is_stmt 0
 407              	#APP
 408              	# 71 "src/workers.cpp" 1
  72              	    thread_dispatch();
 409              		li t1, 7
 410              	# 0 "" 2
 411              		.loc 1 72 5 is_stmt 1
 412              		.loc 1 72 20 is_stmt 0
 413              	#NO_APP
 414 0264 97000000 		call	_Z15thread_dispatchv@plt
 414      E7800000 
 415              	.LVL49:
GAS LISTING /tmp/cc0u4s26.s 			page 11


  73:src/workers.cpp **** 
  74:src/workers.cpp ****     uint64 t1 = 0;
 416              		.loc 1 74 5 is_stmt 1
  75:src/workers.cpp ****     __asm__ ("mv %[t1], t1" : [t1] "=r"(t1));
 417              		.loc 1 75 5
 418              		.loc 1 75 45 is_stmt 0
 419              	#APP
 420              	# 75 "src/workers.cpp" 1
  76              	
 421              		mv s3, t1
 422              	# 0 "" 2
 423              	.LVL50:
  77:src/workers.cpp ****     printString("C: t1=");
 424              		.loc 1 77 5 is_stmt 1
 425              		.loc 1 77 16 is_stmt 0
 426              	#NO_APP
 427 0270 17050000 		lla	a0,.LC5
 427      13050500 
 428 0278 97000000 		call	_Z11printStringPKc@plt
 428      E7800000 
 429              	.LVL51:
  78:src/workers.cpp ****     printInteger(t1);
 430              		.loc 1 78 5 is_stmt 1
 431              		.loc 1 78 17 is_stmt 0
 432 0280 13850900 		mv	a0,s3
 433 0284 97000000 		call	_Z12printIntegerm@plt
 433      E7800000 
 434              	.LVL52:
  79:src/workers.cpp ****     printString("\n");
 435              		.loc 1 79 5 is_stmt 1
 436              		.loc 1 79 16 is_stmt 0
 437 028c 17050000 		lla	a0,.LC1
 437      13050500 
 438 0294 97000000 		call	_Z11printStringPKc@plt
 438      E7800000 
 439              	.LVL53:
  80:src/workers.cpp **** 
  81:src/workers.cpp ****     uint64 result = fibonacci(12);
 440              		.loc 1 81 5 is_stmt 1
 441              		.loc 1 81 30 is_stmt 0
 442 029c 1305C000 		li	a0,12
 443 02a0 97000000 		call	_ZL9fibonaccim
 443      E7800000 
 444              	.LVL54:
 445 02a8 93090500 		mv	s3,a0
 446              	.LVL55:
  82:src/workers.cpp ****     printString("C: fibonaci=");
 447              		.loc 1 82 5 is_stmt 1
 448              		.loc 1 82 16 is_stmt 0
 449 02ac 17050000 		lla	a0,.LC6
 449      13050500 
 450              	.LVL56:
 451 02b4 97000000 		call	_Z11printStringPKc@plt
 451      E7800000 
 452              	.LVL57:
  83:src/workers.cpp ****     printInteger(result);
 453              		.loc 1 83 5 is_stmt 1
GAS LISTING /tmp/cc0u4s26.s 			page 12


 454              		.loc 1 83 17 is_stmt 0
 455 02bc 13850900 		mv	a0,s3
 456 02c0 97000000 		call	_Z12printIntegerm@plt
 456      E7800000 
 457              	.LVL58:
  84:src/workers.cpp ****     printString("\n");
 458              		.loc 1 84 5 is_stmt 1
 459              		.loc 1 84 16 is_stmt 0
 460 02c8 17050000 		lla	a0,.LC1
 460      13050500 
 461 02d0 97000000 		call	_Z11printStringPKc@plt
 461      E7800000 
 462              	.LVL59:
 463 02d8 6F008003 		j	.L29
 464              	.L32:
  85:src/workers.cpp **** 
  86:src/workers.cpp ****     for (; i < 6; i++)
  87:src/workers.cpp ****     {
  88:src/workers.cpp ****         printString("C: i=");
 465              		.loc 1 88 9 is_stmt 1 discriminator 1
 466              		.loc 1 88 20 is_stmt 0 discriminator 1
 467 02dc 17050000 		lla	a0,.LC3
 467      13050500 
 468 02e4 97000000 		call	_Z11printStringPKc@plt
 468      E7800000 
 469              	.LVL60:
  89:src/workers.cpp ****         printInteger(i);
 470              		.loc 1 89 9 is_stmt 1 discriminator 1
 471              		.loc 1 89 21 is_stmt 0 discriminator 1
 472 02ec 13850400 		mv	a0,s1
 473 02f0 97000000 		call	_Z12printIntegerm@plt
 473      E7800000 
 474              	.LVL61:
  90:src/workers.cpp ****         printString("\n");
 475              		.loc 1 90 9 is_stmt 1 discriminator 1
 476              		.loc 1 90 20 is_stmt 0 discriminator 1
 477 02f8 17050000 		lla	a0,.LC1
 477      13050500 
 478 0300 97000000 		call	_Z11printStringPKc@plt
 478      E7800000 
 479              	.LVL62:
  86:src/workers.cpp ****     {
 480              		.loc 1 86 5 is_stmt 1 discriminator 1
 481 0308 9B841400 		addiw	s1,s1,1
 482              	.LVL63:
 483 030c 93F4F40F 		andi	s1,s1,0xff
 484              	.LVL64:
 485              	.L29:
  86:src/workers.cpp ****     {
 486              		.loc 1 86 5 discriminator 2
  86:src/workers.cpp ****     {
 487              		.loc 1 86 14 discriminator 2
 488 0310 93075000 		li	a5,5
 489 0314 E3F497FC 		bleu	s1,a5,.L32
  91:src/workers.cpp ****     }
  92:src/workers.cpp **** //    TCB::yield();
  93:src/workers.cpp ****     sem_signal(s);
GAS LISTING /tmp/cc0u4s26.s 			page 13


 490              		.loc 1 93 5
 491              		.loc 1 93 15 is_stmt 0
 492 0318 13050900 		mv	a0,s2
 493 031c 97000000 		call	_Z10sem_signalP3sem@plt
 493      E7800000 
 494              	.LVL65:
  94:src/workers.cpp **** }
 495              		.loc 1 94 1
 496 0324 83308102 		ld	ra,40(sp)
 497              		.cfi_restore 1
 498 0328 03340102 		ld	s0,32(sp)
 499              		.cfi_restore 8
 500              		.cfi_def_cfa 2, 48
 501 032c 83348101 		ld	s1,24(sp)
 502              		.cfi_restore 9
 503              	.LVL66:
 504 0330 03390101 		ld	s2,16(sp)
 505              		.cfi_restore 18
 506              	.LVL67:
 507 0334 83398100 		ld	s3,8(sp)
 508              		.cfi_restore 19
 509              	.LVL68:
 510 0338 13010103 		addi	sp,sp,48
 511              		.cfi_def_cfa_offset 0
 512 033c 67800000 		jr	ra
 513              		.cfi_endproc
 514              	.LFE46:
 516              		.section	.rodata.str1.8
 517 0045 000000   		.align	3
 518              	.LC7:
 519 0048 443A2069 		.string	"D: i="
 519      3D00
 520 004e 0000     		.align	3
 521              	.LC8:
 522 0050 443A2079 		.string	"D: yield\n"
 522      69656C64 
 522      0A00
 523 005a 00000000 		.align	3
 523      0000
 524              	.LC9:
 525 0060 443A2066 		.string	"D: fibonaci="
 525      69626F6E 
 525      6163693D 
 525      00
 526              		.text
 527              		.align	2
 528              		.globl	_Z11workerBodyDPv
 530              	_Z11workerBodyDPv:
 531              	.LFB47:
  95:src/workers.cpp **** 
  96:src/workers.cpp **** void workerBodyD(void* g)
  97:src/workers.cpp **** {
 532              		.loc 1 97 1 is_stmt 1
 533              		.cfi_startproc
 534              	.LVL69:
 535 0340 130101FE 		addi	sp,sp,-32
 536              		.cfi_def_cfa_offset 32
GAS LISTING /tmp/cc0u4s26.s 			page 14


 537 0344 233C1100 		sd	ra,24(sp)
 538 0348 23388100 		sd	s0,16(sp)
 539 034c 23349100 		sd	s1,8(sp)
 540 0350 23302101 		sd	s2,0(sp)
 541              		.cfi_offset 1, -8
 542              		.cfi_offset 8, -16
 543              		.cfi_offset 9, -24
 544              		.cfi_offset 18, -32
 545 0354 13040102 		addi	s0,sp,32
 546              		.cfi_def_cfa 8, 0
  98:src/workers.cpp ****     sem* s = (sem*) g;
 547              		.loc 1 98 5
 548              	.LVL70:
  99:src/workers.cpp ****     sem_trywait(s);
 549              		.loc 1 99 5
 550              		.loc 1 99 16 is_stmt 0
 551 0358 97000000 		call	_Z11sem_trywaitP3sem@plt
 551      E7800000 
 552              	.LVL71:
 100:src/workers.cpp ****     uint8 i = 10;
 553              		.loc 1 100 5 is_stmt 1
 554              		.loc 1 100 11 is_stmt 0
 555 0360 9304A000 		li	s1,10
 556 0364 6F008003 		j	.L35
 557              	.LVL72:
 558              	.L39:
 101:src/workers.cpp ****     for (; i < 13; i++)
 102:src/workers.cpp ****     {
 103:src/workers.cpp ****         printString("D: i=");
 559              		.loc 1 103 9 is_stmt 1 discriminator 1
 560              		.loc 1 103 20 is_stmt 0 discriminator 1
 561 0368 17050000 		lla	a0,.LC7
 561      13050500 
 562 0370 97000000 		call	_Z11printStringPKc@plt
 562      E7800000 
 563              	.LVL73:
 104:src/workers.cpp ****         printInteger(i);
 564              		.loc 1 104 9 is_stmt 1 discriminator 1
 565              		.loc 1 104 21 is_stmt 0 discriminator 1
 566 0378 13850400 		mv	a0,s1
 567 037c 97000000 		call	_Z12printIntegerm@plt
 567      E7800000 
 568              	.LVL74:
 105:src/workers.cpp ****         printString("\n");
 569              		.loc 1 105 9 is_stmt 1 discriminator 1
 570              		.loc 1 105 20 is_stmt 0 discriminator 1
 571 0384 17050000 		lla	a0,.LC1
 571      13050500 
 572 038c 97000000 		call	_Z11printStringPKc@plt
 572      E7800000 
 573              	.LVL75:
 101:src/workers.cpp ****     for (; i < 13; i++)
 574              		.loc 1 101 5 is_stmt 1 discriminator 1
 575 0394 9B841400 		addiw	s1,s1,1
 576              	.LVL76:
 577 0398 93F4F40F 		andi	s1,s1,0xff
 578              	.LVL77:
GAS LISTING /tmp/cc0u4s26.s 			page 15


 579              	.L35:
 101:src/workers.cpp ****     for (; i < 13; i++)
 580              		.loc 1 101 5 discriminator 2
 101:src/workers.cpp ****     for (; i < 13; i++)
 581              		.loc 1 101 14 discriminator 2
 582 039c 9307C000 		li	a5,12
 583 03a0 E3F497FC 		bleu	s1,a5,.L39
 106:src/workers.cpp ****     }
 107:src/workers.cpp **** 
 108:src/workers.cpp ****     printString("D: yield\n");
 584              		.loc 1 108 5
 585              		.loc 1 108 16 is_stmt 0
 586 03a4 17050000 		lla	a0,.LC8
 586      13050500 
 587 03ac 97000000 		call	_Z11printStringPKc@plt
 587      E7800000 
 588              	.LVL78:
 109:src/workers.cpp ****     __asm__ ("li t1, 5");
 589              		.loc 1 109 5 is_stmt 1
 590              		.loc 1 109 25 is_stmt 0
 591              	#APP
 592              	# 109 "src/workers.cpp" 1
 110              	    thread_dispatch();
 593              		li t1, 5
 594              	# 0 "" 2
 595              		.loc 1 110 5 is_stmt 1
 596              		.loc 1 110 20 is_stmt 0
 597              	#NO_APP
 598 03b8 97000000 		call	_Z15thread_dispatchv@plt
 598      E7800000 
 599              	.LVL79:
 111:src/workers.cpp **** 
 112:src/workers.cpp ****     uint64 result = fibonacci(16);
 600              		.loc 1 112 5 is_stmt 1
 601              		.loc 1 112 30 is_stmt 0
 602 03c0 13050001 		li	a0,16
 603 03c4 97000000 		call	_ZL9fibonaccim
 603      E7800000 
 604              	.LVL80:
 605 03cc 13090500 		mv	s2,a0
 606              	.LVL81:
 113:src/workers.cpp ****     printString("D: fibonaci=");
 607              		.loc 1 113 5 is_stmt 1
 608              		.loc 1 113 16 is_stmt 0
 609 03d0 17050000 		lla	a0,.LC9
 609      13050500 
 610              	.LVL82:
 611 03d8 97000000 		call	_Z11printStringPKc@plt
 611      E7800000 
 612              	.LVL83:
 114:src/workers.cpp ****     printInteger(result);
 613              		.loc 1 114 5 is_stmt 1
 614              		.loc 1 114 17 is_stmt 0
 615 03e0 13050900 		mv	a0,s2
 616 03e4 97000000 		call	_Z12printIntegerm@plt
 616      E7800000 
 617              	.LVL84:
GAS LISTING /tmp/cc0u4s26.s 			page 16


 115:src/workers.cpp ****     printString("\n");
 618              		.loc 1 115 5 is_stmt 1
 619              		.loc 1 115 16 is_stmt 0
 620 03ec 17050000 		lla	a0,.LC1
 620      13050500 
 621 03f4 97000000 		call	_Z11printStringPKc@plt
 621      E7800000 
 622              	.LVL85:
 623 03fc 6F008003 		j	.L37
 624              	.L40:
 116:src/workers.cpp **** 
 117:src/workers.cpp ****     for (; i < 16; i++)
 118:src/workers.cpp ****     {
 119:src/workers.cpp ****         printString("D: i=");
 625              		.loc 1 119 9 is_stmt 1 discriminator 1
 626              		.loc 1 119 20 is_stmt 0 discriminator 1
 627 0400 17050000 		lla	a0,.LC7
 627      13050500 
 628 0408 97000000 		call	_Z11printStringPKc@plt
 628      E7800000 
 629              	.LVL86:
 120:src/workers.cpp ****         printInteger(i);
 630              		.loc 1 120 9 is_stmt 1 discriminator 1
 631              		.loc 1 120 21 is_stmt 0 discriminator 1
 632 0410 13850400 		mv	a0,s1
 633 0414 97000000 		call	_Z12printIntegerm@plt
 633      E7800000 
 634              	.LVL87:
 121:src/workers.cpp ****         printString("\n");
 635              		.loc 1 121 9 is_stmt 1 discriminator 1
 636              		.loc 1 121 20 is_stmt 0 discriminator 1
 637 041c 17050000 		lla	a0,.LC1
 637      13050500 
 638 0424 97000000 		call	_Z11printStringPKc@plt
 638      E7800000 
 639              	.LVL88:
 117:src/workers.cpp ****     {
 640              		.loc 1 117 5 is_stmt 1 discriminator 1
 641 042c 9B841400 		addiw	s1,s1,1
 642              	.LVL89:
 643 0430 93F4F40F 		andi	s1,s1,0xff
 644              	.LVL90:
 645              	.L37:
 117:src/workers.cpp ****     {
 646              		.loc 1 117 5 discriminator 2
 117:src/workers.cpp ****     {
 647              		.loc 1 117 14 discriminator 2
 648 0434 9307F000 		li	a5,15
 649 0438 E3F497FC 		bleu	s1,a5,.L40
 122:src/workers.cpp ****     }
 123:src/workers.cpp ****     //sem_signal(s);
 124:src/workers.cpp **** //    TCB::yield();
 125:src/workers.cpp **** }...
 650              		.loc 1 125 1 is_stmt 0
 651 043c 83308101 		ld	ra,24(sp)
 652              		.cfi_restore 1
 653 0440 03340101 		ld	s0,16(sp)
GAS LISTING /tmp/cc0u4s26.s 			page 17


 654              		.cfi_restore 8
 655              		.cfi_def_cfa 2, 32
 656 0444 83348100 		ld	s1,8(sp)
 657              		.cfi_restore 9
 658              	.LVL91:
 659 0448 03390100 		ld	s2,0(sp)
 660              		.cfi_restore 18
 661              	.LVL92:
 662 044c 13010102 		addi	sp,sp,32
 663              		.cfi_def_cfa_offset 0
 664 0450 67800000 		jr	ra
 665              		.cfi_endproc
 666              	.LFE47:
 668              	.Letext0:
 669              		.file 2 "src/../lib/hw.h"
 670              		.file 3 "src/../h/list.hpp"
 671              		.file 4 "src/../h/tcb.hpp"
 672              		.file 5 "src/../h/semaphore.hpp"
 673              		.file 6 "src/../h/syscall_c.hpp"
 674              		.file 7 "src/../h/print.hpp"
GAS LISTING /tmp/cc0u4s26.s 			page 18


DEFINED SYMBOLS
                            *ABS*:0000000000000000 workers.cpp
     /tmp/cc0u4s26.s:8      .text:0000000000000000 _ZL9fibonaccim
     /tmp/cc0u4s26.s:12     .text:0000000000000000 .L0 
     /tmp/cc0u4s26.s:14     .text:0000000000000000 .L0 
     /tmp/cc0u4s26.s:15     .text:0000000000000004 .L0 
     /tmp/cc0u4s26.s:20     .text:0000000000000014 .L0 
     /tmp/cc0u4s26.s:21     .text:0000000000000014 .L0 
     /tmp/cc0u4s26.s:22     .text:0000000000000014 .L0 
     /tmp/cc0u4s26.s:23     .text:0000000000000014 .L0 
     /tmp/cc0u4s26.s:25     .text:0000000000000018 .L0 
     /tmp/cc0u4s26.s:28     .text:000000000000001c .L0 
     /tmp/cc0u4s26.s:31     .text:0000000000000024 .L0 
     /tmp/cc0u4s26.s:32     .text:0000000000000024 .L0 
     /tmp/cc0u4s26.s:35     .text:000000000000002c .L0 
     /tmp/cc0u4s26.s:39     .text:0000000000000030 .L0 
     /tmp/cc0u4s26.s:40     .text:0000000000000030 .L0 
     /tmp/cc0u4s26.s:45     .text:0000000000000040 .L0 
     /tmp/cc0u4s26.s:49     .text:000000000000004c .L0 
     /tmp/cc0u4s26.s:52     .text:0000000000000050 .L0 
     /tmp/cc0u4s26.s:53     .text:0000000000000054 .L0 
     /tmp/cc0u4s26.s:54     .text:0000000000000054 .L0 
     /tmp/cc0u4s26.s:56     .text:0000000000000058 .L0 
     /tmp/cc0u4s26.s:57     .text:0000000000000058 .L0 
     /tmp/cc0u4s26.s:59     .text:000000000000005c .L0 
     /tmp/cc0u4s26.s:62     .text:0000000000000060 .L0 
     /tmp/cc0u4s26.s:64     .text:0000000000000064 .L0 
     /tmp/cc0u4s26.s:68     .text:0000000000000068 .L0 
     /tmp/cc0u4s26.s:70     .text:0000000000000068 .L0 
     /tmp/cc0u4s26.s:71     .text:0000000000000068 .L0 
     /tmp/cc0u4s26.s:74     .text:0000000000000074 .L0 
     /tmp/cc0u4s26.s:88     .text:0000000000000074 _Z11workerBodyAPv
     /tmp/cc0u4s26.s:91     .text:0000000000000074 .L0 
     /tmp/cc0u4s26.s:93     .text:0000000000000074 .L0 
     /tmp/cc0u4s26.s:94     .text:0000000000000078 .L0 
     /tmp/cc0u4s26.s:99     .text:0000000000000088 .L0 
     /tmp/cc0u4s26.s:100    .text:0000000000000088 .L0 
     /tmp/cc0u4s26.s:101    .text:0000000000000088 .L0 
     /tmp/cc0u4s26.s:102    .text:0000000000000088 .L0 
     /tmp/cc0u4s26.s:104    .text:000000000000008c .L0 
     /tmp/cc0u4s26.s:108    .text:0000000000000090 .L0 
     /tmp/cc0u4s26.s:109    .text:0000000000000090 .L0 
     /tmp/cc0u4s26.s:110    .text:0000000000000090 .L0 
     /tmp/cc0u4s26.s:114    .text:0000000000000098 .L0 
     /tmp/cc0u4s26.s:115    .text:0000000000000098 .L0 
     /tmp/cc0u4s26.s:122    .text:00000000000000a0 .L0 
     /tmp/cc0u4s26.s:126    .text:00000000000000a4 .L0 
     /tmp/cc0u4s26.s:131    .text:00000000000000b0 .L0 
     /tmp/cc0u4s26.s:135    .text:00000000000000b4 .L0 
     /tmp/cc0u4s26.s:139    .text:00000000000000c0 .L0 
     /tmp/cc0u4s26.s:148    .text:00000000000000c8 .L0 
     /tmp/cc0u4s26.s:152    .text:00000000000000cc .L0 
     /tmp/cc0u4s26.s:156    .text:00000000000000d4 .L0 
     /tmp/cc0u4s26.s:157    .text:00000000000000d4 .L0 
     /tmp/cc0u4s26.s:161    .text:00000000000000e4 .L0 
     /tmp/cc0u4s26.s:162    .text:00000000000000e4 .L0 
     /tmp/cc0u4s26.s:166    .text:00000000000000f0 .L0 
GAS LISTING /tmp/cc0u4s26.s 			page 19


     /tmp/cc0u4s26.s:167    .text:00000000000000f0 .L0 
     /tmp/cc0u4s26.s:172    .text:0000000000000100 .L0 
     /tmp/cc0u4s26.s:173    .text:0000000000000100 .L0 
     /tmp/cc0u4s26.s:181    .text:0000000000000108 .L0 
     /tmp/cc0u4s26.s:182    .text:0000000000000108 .L0 
     /tmp/cc0u4s26.s:186    .text:0000000000000114 .L0 
     /tmp/cc0u4s26.s:187    .text:0000000000000114 .L0 
     /tmp/cc0u4s26.s:191    .text:0000000000000120 .L0 
     /tmp/cc0u4s26.s:192    .text:0000000000000124 .L0 
     /tmp/cc0u4s26.s:194    .text:0000000000000128 .L0 
     /tmp/cc0u4s26.s:195    .text:0000000000000128 .L0 
     /tmp/cc0u4s26.s:197    .text:000000000000012c .L0 
     /tmp/cc0u4s26.s:200    .text:0000000000000130 .L0 
     /tmp/cc0u4s26.s:203    .text:0000000000000134 .L0 
     /tmp/cc0u4s26.s:205    .text:0000000000000138 .L0 
     /tmp/cc0u4s26.s:216    .text:0000000000000138 _Z11workerBodyBPv
     /tmp/cc0u4s26.s:219    .text:0000000000000138 .L0 
     /tmp/cc0u4s26.s:221    .text:0000000000000138 .L0 
     /tmp/cc0u4s26.s:222    .text:000000000000013c .L0 
     /tmp/cc0u4s26.s:226    .text:0000000000000148 .L0 
     /tmp/cc0u4s26.s:227    .text:0000000000000148 .L0 
     /tmp/cc0u4s26.s:228    .text:0000000000000148 .L0 
     /tmp/cc0u4s26.s:230    .text:000000000000014c .L0 
     /tmp/cc0u4s26.s:234    .text:000000000000014c .L0 
     /tmp/cc0u4s26.s:235    .text:000000000000014c .L0 
     /tmp/cc0u4s26.s:242    .text:0000000000000154 .L0 
     /tmp/cc0u4s26.s:246    .text:0000000000000158 .L0 
     /tmp/cc0u4s26.s:251    .text:0000000000000164 .L0 
     /tmp/cc0u4s26.s:255    .text:0000000000000168 .L0 
     /tmp/cc0u4s26.s:259    .text:0000000000000174 .L0 
     /tmp/cc0u4s26.s:267    .text:000000000000017c .L0 
     /tmp/cc0u4s26.s:273    .text:0000000000000184 .L0 
     /tmp/cc0u4s26.s:277    .text:0000000000000188 .L0 
     /tmp/cc0u4s26.s:281    .text:0000000000000190 .L0 
     /tmp/cc0u4s26.s:282    .text:0000000000000190 .L0 
     /tmp/cc0u4s26.s:286    .text:00000000000001a0 .L0 
     /tmp/cc0u4s26.s:287    .text:00000000000001a0 .L0 
     /tmp/cc0u4s26.s:291    .text:00000000000001ac .L0 
     /tmp/cc0u4s26.s:292    .text:00000000000001ac .L0 
     /tmp/cc0u4s26.s:297    .text:00000000000001bc .L0 
     /tmp/cc0u4s26.s:298    .text:00000000000001bc .L0 
     /tmp/cc0u4s26.s:304    .text:00000000000001c4 .L0 
     /tmp/cc0u4s26.s:305    .text:00000000000001c4 .L0 
     /tmp/cc0u4s26.s:312    .text:00000000000001d0 .L0 
     /tmp/cc0u4s26.s:313    .text:00000000000001d4 .L0 
     /tmp/cc0u4s26.s:315    .text:00000000000001d8 .L0 
     /tmp/cc0u4s26.s:316    .text:00000000000001d8 .L0 
     /tmp/cc0u4s26.s:318    .text:00000000000001dc .L0 
     /tmp/cc0u4s26.s:321    .text:00000000000001e0 .L0 
     /tmp/cc0u4s26.s:323    .text:00000000000001e4 .L0 
     /tmp/cc0u4s26.s:343    .text:00000000000001e4 _Z11workerBodyCPv
     /tmp/cc0u4s26.s:346    .text:00000000000001e4 .L0 
     /tmp/cc0u4s26.s:348    .text:00000000000001e4 .L0 
     /tmp/cc0u4s26.s:349    .text:00000000000001e8 .L0 
     /tmp/cc0u4s26.s:355    .text:00000000000001fc .L0 
     /tmp/cc0u4s26.s:356    .text:00000000000001fc .L0 
     /tmp/cc0u4s26.s:357    .text:00000000000001fc .L0 
GAS LISTING /tmp/cc0u4s26.s 			page 20


     /tmp/cc0u4s26.s:358    .text:00000000000001fc .L0 
     /tmp/cc0u4s26.s:359    .text:00000000000001fc .L0 
     /tmp/cc0u4s26.s:361    .text:0000000000000200 .L0 
     /tmp/cc0u4s26.s:365    .text:0000000000000204 .L0 
     /tmp/cc0u4s26.s:366    .text:0000000000000204 .L0 
     /tmp/cc0u4s26.s:367    .text:0000000000000204 .L0 
     /tmp/cc0u4s26.s:370    .text:000000000000020c .L0 
     /tmp/cc0u4s26.s:371    .text:000000000000020c .L0 
     /tmp/cc0u4s26.s:376    .text:0000000000000214 .L0 
     /tmp/cc0u4s26.s:377    .text:0000000000000214 .L0 
     /tmp/cc0u4s26.s:381    .text:0000000000000224 .L0 
     /tmp/cc0u4s26.s:382    .text:0000000000000224 .L0 
     /tmp/cc0u4s26.s:386    .text:0000000000000230 .L0 
     /tmp/cc0u4s26.s:387    .text:0000000000000230 .L0 
     /tmp/cc0u4s26.s:391    .text:0000000000000240 .L0 
     /tmp/cc0u4s26.s:397    .text:0000000000000248 .L0 
     /tmp/cc0u4s26.s:398    .text:0000000000000248 .L0 
     /tmp/cc0u4s26.s:401    .text:0000000000000250 .L0 
     /tmp/cc0u4s26.s:402    .text:0000000000000250 .L0 
     /tmp/cc0u4s26.s:406    .text:0000000000000260 .L0 
     src/workers.cpp:71     .text:0000000000000260 .L0 
     /tmp/cc0u4s26.s:412    .text:0000000000000264 .L0 
     /tmp/cc0u4s26.s:414    .text:0000000000000264 .L0 
     /tmp/cc0u4s26.s:417    .text:000000000000026c .L0 
     /tmp/cc0u4s26.s:418    .text:000000000000026c .L0 
     src/workers.cpp:75     .text:000000000000026c .L0 
     /tmp/cc0u4s26.s:425    .text:0000000000000270 .L0 
     /tmp/cc0u4s26.s:427    .text:0000000000000270 .L0 
     /tmp/cc0u4s26.s:431    .text:0000000000000280 .L0 
     /tmp/cc0u4s26.s:432    .text:0000000000000280 .L0 
     /tmp/cc0u4s26.s:436    .text:000000000000028c .L0 
     /tmp/cc0u4s26.s:437    .text:000000000000028c .L0 
     /tmp/cc0u4s26.s:441    .text:000000000000029c .L0 
     /tmp/cc0u4s26.s:442    .text:000000000000029c .L0 
     /tmp/cc0u4s26.s:448    .text:00000000000002ac .L0 
     /tmp/cc0u4s26.s:449    .text:00000000000002ac .L0 
     /tmp/cc0u4s26.s:454    .text:00000000000002bc .L0 
     /tmp/cc0u4s26.s:455    .text:00000000000002bc .L0 
     /tmp/cc0u4s26.s:459    .text:00000000000002c8 .L0 
     /tmp/cc0u4s26.s:460    .text:00000000000002c8 .L0 
     /tmp/cc0u4s26.s:466    .text:00000000000002dc .L0 
     /tmp/cc0u4s26.s:467    .text:00000000000002dc .L0 
     /tmp/cc0u4s26.s:471    .text:00000000000002ec .L0 
     /tmp/cc0u4s26.s:472    .text:00000000000002ec .L0 
     /tmp/cc0u4s26.s:476    .text:00000000000002f8 .L0 
     /tmp/cc0u4s26.s:477    .text:00000000000002f8 .L0 
     /tmp/cc0u4s26.s:481    .text:0000000000000308 .L0 
     /tmp/cc0u4s26.s:487    .text:0000000000000310 .L0 
     /tmp/cc0u4s26.s:488    .text:0000000000000310 .L0 
     /tmp/cc0u4s26.s:491    .text:0000000000000318 .L0 
     /tmp/cc0u4s26.s:492    .text:0000000000000318 .L0 
     /tmp/cc0u4s26.s:496    .text:0000000000000324 .L0 
     /tmp/cc0u4s26.s:497    .text:0000000000000328 .L0 
     /tmp/cc0u4s26.s:499    .text:000000000000032c .L0 
     /tmp/cc0u4s26.s:500    .text:000000000000032c .L0 
     /tmp/cc0u4s26.s:502    .text:0000000000000330 .L0 
     /tmp/cc0u4s26.s:505    .text:0000000000000334 .L0 
GAS LISTING /tmp/cc0u4s26.s 			page 21


     /tmp/cc0u4s26.s:508    .text:0000000000000338 .L0 
     /tmp/cc0u4s26.s:511    .text:000000000000033c .L0 
     /tmp/cc0u4s26.s:513    .text:0000000000000340 .L0 
     /tmp/cc0u4s26.s:530    .text:0000000000000340 _Z11workerBodyDPv
     /tmp/cc0u4s26.s:533    .text:0000000000000340 .L0 
     /tmp/cc0u4s26.s:535    .text:0000000000000340 .L0 
     /tmp/cc0u4s26.s:536    .text:0000000000000344 .L0 
     /tmp/cc0u4s26.s:541    .text:0000000000000354 .L0 
     /tmp/cc0u4s26.s:542    .text:0000000000000354 .L0 
     /tmp/cc0u4s26.s:543    .text:0000000000000354 .L0 
     /tmp/cc0u4s26.s:544    .text:0000000000000354 .L0 
     /tmp/cc0u4s26.s:546    .text:0000000000000358 .L0 
     /tmp/cc0u4s26.s:549    .text:0000000000000358 .L0 
     /tmp/cc0u4s26.s:550    .text:0000000000000358 .L0 
     /tmp/cc0u4s26.s:551    .text:0000000000000358 .L0 
     /tmp/cc0u4s26.s:554    .text:0000000000000360 .L0 
     /tmp/cc0u4s26.s:555    .text:0000000000000360 .L0 
     /tmp/cc0u4s26.s:560    .text:0000000000000368 .L0 
     /tmp/cc0u4s26.s:561    .text:0000000000000368 .L0 
     /tmp/cc0u4s26.s:565    .text:0000000000000378 .L0 
     /tmp/cc0u4s26.s:566    .text:0000000000000378 .L0 
     /tmp/cc0u4s26.s:570    .text:0000000000000384 .L0 
     /tmp/cc0u4s26.s:571    .text:0000000000000384 .L0 
     /tmp/cc0u4s26.s:575    .text:0000000000000394 .L0 
     /tmp/cc0u4s26.s:581    .text:000000000000039c .L0 
     /tmp/cc0u4s26.s:582    .text:000000000000039c .L0 
     /tmp/cc0u4s26.s:585    .text:00000000000003a4 .L0 
     /tmp/cc0u4s26.s:586    .text:00000000000003a4 .L0 
     /tmp/cc0u4s26.s:590    .text:00000000000003b4 .L0 
     src/workers.cpp:109    .text:00000000000003b4 .L0 
     /tmp/cc0u4s26.s:596    .text:00000000000003b8 .L0 
     /tmp/cc0u4s26.s:598    .text:00000000000003b8 .L0 
     /tmp/cc0u4s26.s:601    .text:00000000000003c0 .L0 
     /tmp/cc0u4s26.s:602    .text:00000000000003c0 .L0 
     /tmp/cc0u4s26.s:608    .text:00000000000003d0 .L0 
     /tmp/cc0u4s26.s:609    .text:00000000000003d0 .L0 
     /tmp/cc0u4s26.s:614    .text:00000000000003e0 .L0 
     /tmp/cc0u4s26.s:615    .text:00000000000003e0 .L0 
     /tmp/cc0u4s26.s:619    .text:00000000000003ec .L0 
     /tmp/cc0u4s26.s:620    .text:00000000000003ec .L0 
     /tmp/cc0u4s26.s:626    .text:0000000000000400 .L0 
     /tmp/cc0u4s26.s:627    .text:0000000000000400 .L0 
     /tmp/cc0u4s26.s:631    .text:0000000000000410 .L0 
     /tmp/cc0u4s26.s:632    .text:0000000000000410 .L0 
     /tmp/cc0u4s26.s:636    .text:000000000000041c .L0 
     /tmp/cc0u4s26.s:637    .text:000000000000041c .L0 
     /tmp/cc0u4s26.s:641    .text:000000000000042c .L0 
     /tmp/cc0u4s26.s:647    .text:0000000000000434 .L0 
     /tmp/cc0u4s26.s:648    .text:0000000000000434 .L0 
     /tmp/cc0u4s26.s:651    .text:000000000000043c .L0 
     /tmp/cc0u4s26.s:652    .text:0000000000000440 .L0 
     /tmp/cc0u4s26.s:654    .text:0000000000000444 .L0 
     /tmp/cc0u4s26.s:655    .text:0000000000000444 .L0 
     /tmp/cc0u4s26.s:657    .text:0000000000000448 .L0 
     /tmp/cc0u4s26.s:660    .text:000000000000044c .L0 
     /tmp/cc0u4s26.s:663    .text:0000000000000450 .L0 
     /tmp/cc0u4s26.s:665    .text:0000000000000454 .L0 
GAS LISTING /tmp/cc0u4s26.s 			page 22


     /tmp/cc0u4s26.s:675    .text:0000000000000454 .L0 
     /tmp/cc0u4s26.s:79     .rodata.str1.8:0000000000000000 .LC0
     /tmp/cc0u4s26.s:157    .text:00000000000000d4 .L0 
     /tmp/cc0u4s26.s:82     .rodata.str1.8:0000000000000008 .LC1
     /tmp/cc0u4s26.s:167    .text:00000000000000f0 .L0 
     /tmp/cc0u4s26.s:210    .rodata.str1.8:0000000000000010 .LC2
     /tmp/cc0u4s26.s:282    .text:0000000000000190 .L0 
     /tmp/cc0u4s26.s:292    .text:00000000000001ac .L0 
     /tmp/cc0u4s26.s:328    .rodata.str1.8:0000000000000018 .LC3
     /tmp/cc0u4s26.s:377    .text:0000000000000214 .L0 
     /tmp/cc0u4s26.s:387    .text:0000000000000230 .L0 
     /tmp/cc0u4s26.s:331    .rodata.str1.8:0000000000000020 .LC4
     /tmp/cc0u4s26.s:402    .text:0000000000000250 .L0 
     /tmp/cc0u4s26.s:334    .rodata.str1.8:0000000000000030 .LC5
     /tmp/cc0u4s26.s:427    .text:0000000000000270 .L0 
     /tmp/cc0u4s26.s:437    .text:000000000000028c .L0 
     /tmp/cc0u4s26.s:337    .rodata.str1.8:0000000000000038 .LC6
     /tmp/cc0u4s26.s:449    .text:00000000000002ac .L0 
     /tmp/cc0u4s26.s:460    .text:00000000000002c8 .L0 
     /tmp/cc0u4s26.s:467    .text:00000000000002dc .L0 
     /tmp/cc0u4s26.s:477    .text:00000000000002f8 .L0 
     /tmp/cc0u4s26.s:518    .rodata.str1.8:0000000000000048 .LC7
     /tmp/cc0u4s26.s:561    .text:0000000000000368 .L0 
     /tmp/cc0u4s26.s:571    .text:0000000000000384 .L0 
     /tmp/cc0u4s26.s:521    .rodata.str1.8:0000000000000050 .LC8
     /tmp/cc0u4s26.s:586    .text:00000000000003a4 .L0 
     /tmp/cc0u4s26.s:524    .rodata.str1.8:0000000000000060 .LC9
     /tmp/cc0u4s26.s:609    .text:00000000000003d0 .L0 
     /tmp/cc0u4s26.s:620    .text:00000000000003ec .L0 
     /tmp/cc0u4s26.s:627    .text:0000000000000400 .L0 
     /tmp/cc0u4s26.s:637    .text:000000000000041c .L0 
     /tmp/cc0u4s26.s:50     .text:0000000000000050 .L1
     /tmp/cc0u4s26.s:67     .text:0000000000000068 .L6
     /tmp/cc0u4s26.s:37     .text:0000000000000030 .L3
     /tmp/cc0u4s26.s:150    .text:00000000000000cc .L13
     /tmp/cc0u4s26.s:143    .text:00000000000000c8 .L9
     /tmp/cc0u4s26.s:118    .text:00000000000000a0 .L10
     /tmp/cc0u4s26.s:132    .text:00000000000000b4 .L11
     /tmp/cc0u4s26.s:176    .text:0000000000000108 .L8
     /tmp/cc0u4s26.s:124    .text:00000000000000a4 .L12
     /tmp/cc0u4s26.s:275    .text:0000000000000188 .L22
     /tmp/cc0u4s26.s:263    .text:000000000000017c .L17
     /tmp/cc0u4s26.s:238    .text:0000000000000154 .L18
     /tmp/cc0u4s26.s:252    .text:0000000000000168 .L19
     /tmp/cc0u4s26.s:301    .text:00000000000001c4 .L24
     /tmp/cc0u4s26.s:308    .text:00000000000001d0 .L15
     /tmp/cc0u4s26.s:244    .text:0000000000000158 .L20
     /tmp/cc0u4s26.s:270    .text:0000000000000184 .L21
     /tmp/cc0u4s26.s:395    .text:0000000000000248 .L27
     /tmp/cc0u4s26.s:374    .text:0000000000000214 .L31
     /tmp/cc0u4s26.s:485    .text:0000000000000310 .L29
     /tmp/cc0u4s26.s:464    .text:00000000000002dc .L32
     /tmp/cc0u4s26.s:579    .text:000000000000039c .L35
     /tmp/cc0u4s26.s:558    .text:0000000000000368 .L39
     /tmp/cc0u4s26.s:645    .text:0000000000000434 .L37
     /tmp/cc0u4s26.s:624    .text:0000000000000400 .L40
     /tmp/cc0u4s26.s:2230   .debug_abbrev:0000000000000000 .Ldebug_abbrev0
GAS LISTING /tmp/cc0u4s26.s 			page 23


     /tmp/cc0u4s26.s:3643   .debug_str:000000000000064b .LASF123
     /tmp/cc0u4s26.s:3601   .debug_str:0000000000000508 .LASF124
     /tmp/cc0u4s26.s:3693   .debug_str:0000000000000864 .LASF125
     /tmp/cc0u4s26.s:5      .text:0000000000000000 .Ltext0
     /tmp/cc0u4s26.s:668    .text:0000000000000454 .Letext0
     /tmp/cc0u4s26.s:3427   .debug_line:0000000000000000 .Ldebug_line0
     /tmp/cc0u4s26.s:3519   .debug_str:00000000000002b7 .LASF0
     /tmp/cc0u4s26.s:3541   .debug_str:0000000000000363 .LASF1
     /tmp/cc0u4s26.s:3615   .debug_str:0000000000000570 .LASF2
     /tmp/cc0u4s26.s:3489   .debug_str:00000000000001e6 .LASF3
     /tmp/cc0u4s26.s:3625   .debug_str:00000000000005bf .LASF4
     /tmp/cc0u4s26.s:3529   .debug_str:0000000000000302 .LASF5
     /tmp/cc0u4s26.s:3445   .debug_str:0000000000000088 .LASF6
     /tmp/cc0u4s26.s:3583   .debug_str:0000000000000478 .LASF7
     /tmp/cc0u4s26.s:3535   .debug_str:000000000000033a .LASF8
     /tmp/cc0u4s26.s:3499   .debug_str:0000000000000223 .LASF9
     /tmp/cc0u4s26.s:3505   .debug_str:0000000000000251 .LASF10
     /tmp/cc0u4s26.s:3463   .debug_str:000000000000011f .LASF11
     /tmp/cc0u4s26.s:3495   .debug_str:0000000000000208 .LASF12
     /tmp/cc0u4s26.s:3471   .debug_str:000000000000016a .LASF13
     /tmp/cc0u4s26.s:3461   .debug_str:000000000000010f .LASF14
     /tmp/cc0u4s26.s:3647   .debug_str:000000000000071c .LASF15
     /tmp/cc0u4s26.s:3483   .debug_str:00000000000001a7 .LASF16
     /tmp/cc0u4s26.s:3639   .debug_str:0000000000000621 .LASF17
     /tmp/cc0u4s26.s:3553   .debug_str:00000000000003b8 .LASF18
     /tmp/cc0u4s26.s:3681   .debug_str:00000000000007f5 .LASF44
     /tmp/cc0u4s26.s:3699   .debug_str:00000000000008aa .LASF19
     /tmp/cc0u4s26.s:3675   .debug_str:00000000000007c1 .LASF21
     /tmp/cc0u4s26.s:3455   .debug_str:00000000000000d0 .LASF20
     /tmp/cc0u4s26.s:3673   .debug_str:00000000000007ae .LASF22
     /tmp/cc0u4s26.s:3435   .debug_str:0000000000000022 .LASF23
     /tmp/cc0u4s26.s:3569   .debug_str:000000000000041a .LASF25
     /tmp/cc0u4s26.s:3637   .debug_str:000000000000060e .LASF24
     /tmp/cc0u4s26.s:3641   .debug_str:0000000000000637 .LASF26
     /tmp/cc0u4s26.s:3473   .debug_str:000000000000017a .LASF126
     /tmp/cc0u4s26.s:3493   .debug_str:0000000000000203 .LASF27
     /tmp/cc0u4s26.s:3567   .debug_str:0000000000000415 .LASF28
     /tmp/cc0u4s26.s:3563   .debug_str:00000000000003f9 .LASF29
     /tmp/cc0u4s26.s:3651   .debug_str:000000000000072f .LASF31
     /tmp/cc0u4s26.s:3491   .debug_str:00000000000001ec .LASF36
     /tmp/cc0u4s26.s:3619   .debug_str:000000000000058b .LASF127
     /tmp/cc0u4s26.s:3613   .debug_str:0000000000000559 .LASF128
     /tmp/cc0u4s26.s:3537   .debug_str:000000000000034d .LASF30
     /tmp/cc0u4s26.s:3457   .debug_str:00000000000000e0 .LASF32
     /tmp/cc0u4s26.s:3551   .debug_str:00000000000003b0 .LASF33
     /tmp/cc0u4s26.s:3487   .debug_str:00000000000001ca .LASF34
     /tmp/cc0u4s26.s:3581   .debug_str:000000000000046c .LASF35
     /tmp/cc0u4s26.s:3683   .debug_str:00000000000007ff .LASF37
     /tmp/cc0u4s26.s:3707   .debug_str:00000000000008d2 .LASF38
     /tmp/cc0u4s26.s:3697   .debug_str:000000000000088f .LASF39
     /tmp/cc0u4s26.s:3631   .debug_str:00000000000005dc .LASF40
     /tmp/cc0u4s26.s:3533   .debug_str:000000000000031d .LASF41
     /tmp/cc0u4s26.s:3609   .debug_str:0000000000000540 .LASF42
     /tmp/cc0u4s26.s:3439   .debug_str:000000000000003a .LASF43
     /tmp/cc0u4s26.s:3655   .debug_str:000000000000074b .LASF129
     /tmp/cc0u4s26.s:3501   .debug_str:0000000000000233 .LASF45
     /tmp/cc0u4s26.s:3497   .debug_str:0000000000000217 .LASF46
GAS LISTING /tmp/cc0u4s26.s 			page 24


     /tmp/cc0u4s26.s:3571   .debug_str:000000000000042e .LASF47
     /tmp/cc0u4s26.s:3617   .debug_str:000000000000057e .LASF48
     /tmp/cc0u4s26.s:3627   .debug_str:00000000000005c6 .LASF49
     /tmp/cc0u4s26.s:3443   .debug_str:000000000000007c .LASF50
     /tmp/cc0u4s26.s:3657   .debug_str:0000000000000753 .LASF51
     /tmp/cc0u4s26.s:3565   .debug_str:00000000000003fe .LASF52
     /tmp/cc0u4s26.s:3451   .debug_str:00000000000000b6 .LASF53
     /tmp/cc0u4s26.s:3575   .debug_str:0000000000000443 .LASF54
     /tmp/cc0u4s26.s:3547   .debug_str:000000000000038a .LASF55
     /tmp/cc0u4s26.s:3677   .debug_str:00000000000007d4 .LASF56
     /tmp/cc0u4s26.s:3661   .debug_str:0000000000000769 .LASF130
     /tmp/cc0u4s26.s:3645   .debug_str:000000000000070f .LASF57
     /tmp/cc0u4s26.s:3509   .debug_str:0000000000000271 .LASF58
     /tmp/cc0u4s26.s:3577   .debug_str:000000000000045a .LASF131
     /tmp/cc0u4s26.s:3539   .debug_str:0000000000000356 .LASF59
     /tmp/cc0u4s26.s:3557   .debug_str:00000000000003c3 .LASF60
     /tmp/cc0u4s26.s:3701   .debug_str:00000000000008b7 .LASF132
     /tmp/cc0u4s26.s:3587   .debug_str:0000000000000497 .LASF133
     /tmp/cc0u4s26.s:3543   .debug_str:0000000000000376 .LASF134
     /tmp/cc0u4s26.s:3665   .debug_str:0000000000000780 .LASF135
     /tmp/cc0u4s26.s:3659   .debug_str:000000000000075e .LASF61
     /tmp/cc0u4s26.s:3467   .debug_str:0000000000000141 .LASF62
     /tmp/cc0u4s26.s:3633   .debug_str:00000000000005e7 .LASF90
     /tmp/cc0u4s26.s:3433   .debug_str:000000000000001d .LASF63
     /tmp/cc0u4s26.s:3531   .debug_str:0000000000000314 .LASF64
     /tmp/cc0u4s26.s:3555   .debug_str:00000000000003bd .LASF65
     /tmp/cc0u4s26.s:3669   .debug_str:000000000000079a .LASF66
     /tmp/cc0u4s26.s:3667   .debug_str:0000000000000790 .LASF67
     /tmp/cc0u4s26.s:3653   .debug_str:0000000000000742 .LASF68
     /tmp/cc0u4s26.s:3573   .debug_str:000000000000043b .LASF69
     /tmp/cc0u4s26.s:3629   .debug_str:00000000000005cb .LASF136
     /tmp/cc0u4s26.s:3453   .debug_str:00000000000000c2 .LASF70
     /tmp/cc0u4s26.s:3549   .debug_str:0000000000000397 .LASF72
     /tmp/cc0u4s26.s:3479   .debug_str:0000000000000199 .LASF71
     /tmp/cc0u4s26.s:3465   .debug_str:000000000000012e .LASF73
     /tmp/cc0u4s26.s:3475   .debug_str:000000000000017f .LASF137
     /tmp/cc0u4s26.s:3441   .debug_str:0000000000000054 .LASF138
     /tmp/cc0u4s26.s:3525   .debug_str:00000000000002ea .LASF74
     /tmp/cc0u4s26.s:3513   .debug_str:000000000000029a .LASF75
     /tmp/cc0u4s26.s:3579   .debug_str:000000000000045f .LASF76
     /tmp/cc0u4s26.s:3695   .debug_str:0000000000000882 .LASF77
     /tmp/cc0u4s26.s:3545   .debug_str:000000000000037c .LASF78
     /tmp/cc0u4s26.s:3621   .debug_str:0000000000000595 .LASF79
     /tmp/cc0u4s26.s:3663   .debug_str:0000000000000771 .LASF80
     /tmp/cc0u4s26.s:3689   .debug_str:0000000000000836 .LASF81
     /tmp/cc0u4s26.s:3481   .debug_str:00000000000001a2 .LASF82
     /tmp/cc0u4s26.s:3635   .debug_str:00000000000005ff .LASF83
     /tmp/cc0u4s26.s:3649   .debug_str:0000000000000728 .LASF84
     /tmp/cc0u4s26.s:3595   .debug_str:00000000000004d1 .LASF85
     /tmp/cc0u4s26.s:3679   .debug_str:00000000000007ed .LASF86
     /tmp/cc0u4s26.s:3503   .debug_str:000000000000023f .LASF87
     /tmp/cc0u4s26.s:3515   .debug_str:00000000000002a6 .LASF88
     /tmp/cc0u4s26.s:3599   .debug_str:00000000000004f2 .LASF89
     /tmp/cc0u4s26.s:3477   .debug_str:000000000000018d .LASF91
     /tmp/cc0u4s26.s:3511   .debug_str:0000000000000294 .LASF92
     /tmp/cc0u4s26.s:3685   .debug_str:000000000000081d .LASF93
     /tmp/cc0u4s26.s:3517   .debug_str:00000000000002b1 .LASF94
GAS LISTING /tmp/cc0u4s26.s 			page 25


     /tmp/cc0u4s26.s:3597   .debug_str:00000000000004e2 .LASF95
     /tmp/cc0u4s26.s:3437   .debug_str:0000000000000032 .LASF96
     /tmp/cc0u4s26.s:3447   .debug_str:000000000000008f .LASF97
     /tmp/cc0u4s26.s:3591   .debug_str:00000000000004b9 .LASF98
     /tmp/cc0u4s26.s:3687   .debug_str:0000000000000824 .LASF99
     /tmp/cc0u4s26.s:531    .text:0000000000000340 .LFB47
     /tmp/cc0u4s26.s:666    .text:0000000000000454 .LFE47
     /tmp/cc0u4s26.s:3120   .debug_loc:0000000000000000 .LLST15
     /tmp/cc0u4s26.s:3134   .debug_loc:0000000000000039 .LLST16
     /tmp/cc0u4s26.s:3148   .debug_loc:0000000000000072 .LLST17
     /tmp/cc0u4s26.s:3703   .debug_str:00000000000008c2 .LASF100
     /tmp/cc0u4s26.s:3168   .debug_loc:00000000000000cf .LLST18
     /tmp/cc0u4s26.s:552    .text:0000000000000360 .LVL71
     /tmp/cc0u4s26.s:563    .text:0000000000000378 .LVL73
     /tmp/cc0u4s26.s:568    .text:0000000000000384 .LVL74
     /tmp/cc0u4s26.s:573    .text:0000000000000394 .LVL75
     /tmp/cc0u4s26.s:588    .text:00000000000003b4 .LVL78
     /tmp/cc0u4s26.s:599    .text:00000000000003c0 .LVL79
     /tmp/cc0u4s26.s:604    .text:00000000000003cc .LVL80
     /tmp/cc0u4s26.s:612    .text:00000000000003e0 .LVL83
     /tmp/cc0u4s26.s:617    .text:00000000000003ec .LVL84
     /tmp/cc0u4s26.s:622    .text:00000000000003fc .LVL85
     /tmp/cc0u4s26.s:629    .text:0000000000000410 .LVL86
     /tmp/cc0u4s26.s:634    .text:000000000000041c .LVL87
     /tmp/cc0u4s26.s:639    .text:000000000000042c .LVL88
     /tmp/cc0u4s26.s:3589   .debug_str:00000000000004ad .LASF101
     /tmp/cc0u4s26.s:3459   .debug_str:00000000000000fd .LASF102
     /tmp/cc0u4s26.s:344    .text:00000000000001e4 .LFB46
     /tmp/cc0u4s26.s:514    .text:0000000000000340 .LFE46
     /tmp/cc0u4s26.s:3179   .debug_loc:0000000000000105 .LLST10
     /tmp/cc0u4s26.s:3197   .debug_loc:0000000000000151 .LLST11
     /tmp/cc0u4s26.s:3215   .debug_loc:000000000000019d .LLST12
     /tmp/cc0u4s26.s:3235   .debug_loc:00000000000001fa .LLST13
     /tmp/cc0u4s26.s:3243   .debug_loc:000000000000021e .LLST14
     /tmp/cc0u4s26.s:368    .text:000000000000020c .LVL41
     /tmp/cc0u4s26.s:379    .text:0000000000000224 .LVL43
     /tmp/cc0u4s26.s:384    .text:0000000000000230 .LVL44
     /tmp/cc0u4s26.s:389    .text:0000000000000240 .LVL45
     /tmp/cc0u4s26.s:404    .text:0000000000000260 .LVL48
     /tmp/cc0u4s26.s:415    .text:000000000000026c .LVL49
     /tmp/cc0u4s26.s:429    .text:0000000000000280 .LVL51
     /tmp/cc0u4s26.s:434    .text:000000000000028c .LVL52
     /tmp/cc0u4s26.s:439    .text:000000000000029c .LVL53
     /tmp/cc0u4s26.s:444    .text:00000000000002a8 .LVL54
     /tmp/cc0u4s26.s:452    .text:00000000000002bc .LVL57
     /tmp/cc0u4s26.s:457    .text:00000000000002c8 .LVL58
     /tmp/cc0u4s26.s:462    .text:00000000000002d8 .LVL59
     /tmp/cc0u4s26.s:469    .text:00000000000002ec .LVL60
     /tmp/cc0u4s26.s:474    .text:00000000000002f8 .LVL61
     /tmp/cc0u4s26.s:479    .text:0000000000000308 .LVL62
     /tmp/cc0u4s26.s:494    .text:0000000000000324 .LVL65
     /tmp/cc0u4s26.s:3559   .debug_str:00000000000003dd .LASF139
     /tmp/cc0u4s26.s:9      .text:0000000000000000 .LFB45
     /tmp/cc0u4s26.s:75     .text:0000000000000074 .LFE45
     /tmp/cc0u4s26.s:3254   .debug_loc:0000000000000254 .LLST0
     /tmp/cc0u4s26.s:42     .text:000000000000003c .LVL2
     /tmp/cc0u4s26.s:47     .text:000000000000004c .LVL3
GAS LISTING /tmp/cc0u4s26.s 			page 26


     /tmp/cc0u4s26.s:72     .text:0000000000000070 .LVL6
     /tmp/cc0u4s26.s:3671   .debug_str:00000000000007a2 .LASF103
     /tmp/cc0u4s26.s:3507   .debug_str:000000000000025f .LASF104
     /tmp/cc0u4s26.s:217    .text:0000000000000138 .LFB44
     /tmp/cc0u4s26.s:324    .text:00000000000001e4 .LFE44
     /tmp/cc0u4s26.s:3276   .debug_loc:00000000000002b3 .LLST6
     /tmp/cc0u4s26.s:233    .text:000000000000014c .LBB8
     /tmp/cc0u4s26.s:310    .text:00000000000001d0 .LBE8
     /tmp/cc0u4s26.s:3290   .debug_loc:00000000000002ec .LLST7
     /tmp/cc0u4s26.s:3413   .debug_ranges:0000000000000000 .Ldebug_ranges0
     /tmp/cc0u4s26.s:3302   .debug_loc:0000000000000323 .LLST8
     /tmp/cc0u4s26.s:249    .text:0000000000000164 .LBB11
     /tmp/cc0u4s26.s:264    .text:000000000000017c .LBE11
     /tmp/cc0u4s26.s:3318   .debug_loc:000000000000036d .LLST9
     /tmp/cc0u4s26.s:284    .text:00000000000001a0 .LVL33
     /tmp/cc0u4s26.s:289    .text:00000000000001ac .LVL34
     /tmp/cc0u4s26.s:294    .text:00000000000001bc .LVL35
     /tmp/cc0u4s26.s:306    .text:00000000000001cc .LVL37
     /tmp/cc0u4s26.s:3585   .debug_str:000000000000048b .LASF105
     /tmp/cc0u4s26.s:3561   .debug_str:00000000000003e7 .LASF106
     /tmp/cc0u4s26.s:89     .text:0000000000000074 .LFB43
     /tmp/cc0u4s26.s:206    .text:0000000000000138 .LFE43
     /tmp/cc0u4s26.s:3329   .debug_loc:00000000000003a3 .LLST1
     /tmp/cc0u4s26.s:3347   .debug_loc:00000000000003ef .LLST2
     /tmp/cc0u4s26.s:113    .text:0000000000000098 .LBB2
     /tmp/cc0u4s26.s:179    .text:0000000000000108 .LBE2
     /tmp/cc0u4s26.s:3365   .debug_loc:000000000000043b .LLST3
     /tmp/cc0u4s26.s:3377   .debug_loc:0000000000000472 .LLST4
     /tmp/cc0u4s26.s:129    .text:00000000000000b0 .LBB5
     /tmp/cc0u4s26.s:144    .text:00000000000000c8 .LBE5
     /tmp/cc0u4s26.s:3389   .debug_loc:00000000000004a9 .LLST5
     /tmp/cc0u4s26.s:159    .text:00000000000000e4 .LVL16
     /tmp/cc0u4s26.s:164    .text:00000000000000f0 .LVL17
     /tmp/cc0u4s26.s:169    .text:0000000000000100 .LVL18
     /tmp/cc0u4s26.s:111    .text:0000000000000098 .LVL9
     /tmp/cc0u4s26.s:184    .text:0000000000000114 .LVL20
     /tmp/cc0u4s26.s:189    .text:0000000000000120 .LVL21
     /tmp/cc0u4s26.s:3523   .debug_str:00000000000002d5 .LASF107
     /tmp/cc0u4s26.s:3593   .debug_str:00000000000004c5 .LASF109
     /tmp/cc0u4s26.s:3469   .debug_str:0000000000000157 .LASF108
     /tmp/cc0u4s26.s:3607   .debug_str:0000000000000534 .LASF110
     /tmp/cc0u4s26.s:3429   .debug_str:0000000000000000 .LASF111
     /tmp/cc0u4s26.s:3485   .debug_str:00000000000001bd .LASF112
     /tmp/cc0u4s26.s:3449   .debug_str:00000000000000a1 .LASF113
     /tmp/cc0u4s26.s:3611   .debug_str:0000000000000549 .LASF114
     /tmp/cc0u4s26.s:3623   .debug_str:00000000000005ae .LASF115
     /tmp/cc0u4s26.s:3705   .debug_str:00000000000008c9 .LASF116
     /tmp/cc0u4s26.s:3691   .debug_str:0000000000000850 .LASF117
     /tmp/cc0u4s26.s:3431   .debug_str:0000000000000012 .LASF118
     /tmp/cc0u4s26.s:3521   .debug_str:00000000000002c4 .LASF119
     /tmp/cc0u4s26.s:3527   .debug_str:00000000000002f6 .LASF120
     /tmp/cc0u4s26.s:3603   .debug_str:0000000000000518 .LASF121
     /tmp/cc0u4s26.s:3605   .debug_str:000000000000052a .LASF122
     /tmp/cc0u4s26.s:534    .text:0000000000000340 .LVL69
     /tmp/cc0u4s26.s:548    .text:0000000000000358 .LVL70
     /tmp/cc0u4s26.s:557    .text:0000000000000368 .LVL72
     /tmp/cc0u4s26.s:576    .text:0000000000000398 .LVL76
GAS LISTING /tmp/cc0u4s26.s 			page 27


     /tmp/cc0u4s26.s:578    .text:000000000000039c .LVL77
     /tmp/cc0u4s26.s:642    .text:0000000000000430 .LVL89
     /tmp/cc0u4s26.s:644    .text:0000000000000434 .LVL90
     /tmp/cc0u4s26.s:658    .text:0000000000000448 .LVL91
     /tmp/cc0u4s26.s:606    .text:00000000000003d0 .LVL81
     /tmp/cc0u4s26.s:610    .text:00000000000003d8 .LVL82
     /tmp/cc0u4s26.s:661    .text:000000000000044c .LVL92
     /tmp/cc0u4s26.s:347    .text:00000000000001e4 .LVL39
     /tmp/cc0u4s26.s:506    .text:0000000000000334 .LVL67
     /tmp/cc0u4s26.s:364    .text:0000000000000204 .LVL40
     /tmp/cc0u4s26.s:373    .text:0000000000000214 .LVL42
     /tmp/cc0u4s26.s:392    .text:0000000000000244 .LVL46
     /tmp/cc0u4s26.s:394    .text:0000000000000248 .LVL47
     /tmp/cc0u4s26.s:482    .text:000000000000030c .LVL63
     /tmp/cc0u4s26.s:484    .text:0000000000000310 .LVL64
     /tmp/cc0u4s26.s:503    .text:0000000000000330 .LVL66
     /tmp/cc0u4s26.s:423    .text:0000000000000270 .LVL50
     /tmp/cc0u4s26.s:446    .text:00000000000002ac .LVL55
     /tmp/cc0u4s26.s:450    .text:00000000000002b4 .LVL56
     /tmp/cc0u4s26.s:509    .text:0000000000000338 .LVL68
     /tmp/cc0u4s26.s:13     .text:0000000000000000 .LVL0
     /tmp/cc0u4s26.s:36     .text:0000000000000030 .LVL1
     /tmp/cc0u4s26.s:60     .text:000000000000005c .LVL4
     /tmp/cc0u4s26.s:66     .text:0000000000000068 .LVL5
     /tmp/cc0u4s26.s:220    .text:0000000000000138 .LVL24
     /tmp/cc0u4s26.s:237    .text:0000000000000154 .LVL26
     /tmp/cc0u4s26.s:232    .text:000000000000014c .LVL25
     /tmp/cc0u4s26.s:319    .text:00000000000001dc .LVL38
     /tmp/cc0u4s26.s:269    .text:0000000000000184 .LVL31
     /tmp/cc0u4s26.s:300    .text:00000000000001c4 .LVL36
     /tmp/cc0u4s26.s:243    .text:0000000000000158 .LVL27
     /tmp/cc0u4s26.s:253    .text:0000000000000168 .LVL28
     /tmp/cc0u4s26.s:262    .text:000000000000017c .LVL30
     /tmp/cc0u4s26.s:92     .text:0000000000000074 .LVL7
     /tmp/cc0u4s26.s:201    .text:0000000000000130 .LVL23
     /tmp/cc0u4s26.s:107    .text:0000000000000090 .LVL8
     /tmp/cc0u4s26.s:117    .text:00000000000000a0 .LVL10
     /tmp/cc0u4s26.s:198    .text:000000000000012c .LVL22
     /tmp/cc0u4s26.s:149    .text:00000000000000cc .LVL15
     /tmp/cc0u4s26.s:175    .text:0000000000000108 .LVL19
     /tmp/cc0u4s26.s:123    .text:00000000000000a4 .LVL11
     /tmp/cc0u4s26.s:133    .text:00000000000000b4 .LVL12
     /tmp/cc0u4s26.s:142    .text:00000000000000c8 .LVL14
     /tmp/cc0u4s26.s:676    .debug_info:0000000000000000 .Ldebug_info0
     /tmp/cc0u4s26.s:120    .text:00000000000000a0 .LBB4
     /tmp/cc0u4s26.s:145    .text:00000000000000c8 .LBE4
     /tmp/cc0u4s26.s:171    .text:0000000000000100 .LBB6
     /tmp/cc0u4s26.s:177    .text:0000000000000108 .LBE6
     /tmp/cc0u4s26.s:240    .text:0000000000000154 .LBB10
     /tmp/cc0u4s26.s:265    .text:000000000000017c .LBE10
     /tmp/cc0u4s26.s:296    .text:00000000000001bc .LBB12
     /tmp/cc0u4s26.s:302    .text:00000000000001c4 .LBE12

UNDEFINED SYMBOLS
_ZN3TCB5yieldEv
_Z8sem_waitP3sem
_Z11printStringPKc
GAS LISTING /tmp/cc0u4s26.s 			page 28


_Z12printIntegerm
_Z9sem_closeP3sem
_Z10sem_signalP3sem
_Z11thread_exitv
_Z15thread_dispatchv
_Z11sem_trywaitP3sem
